
Line Following.elf:     file format elf32-littlearm

Sections:
Idx Name          Size      VMA       LMA       File off  Algn
  0 .isr_vector   0000010c  08000000  08000000  00010000  2**0
                  CONTENTS, ALLOC, LOAD, READONLY, DATA
  1 .text         000074f4  08000110  08000110  00010110  2**3
                  CONTENTS, ALLOC, LOAD, READONLY, CODE
  2 .rodata       000002d0  08007608  08007608  00017608  2**3
                  CONTENTS, ALLOC, LOAD, READONLY, DATA
  3 .ARM.extab    00000000  080078d8  080078d8  000201e8  2**0
                  CONTENTS
  4 .ARM          00000000  080078d8  080078d8  000201e8  2**0
                  CONTENTS
  5 .preinit_array 00000000  080078d8  080078d8  000201e8  2**0
                  CONTENTS, ALLOC, LOAD, DATA
  6 .init_array   00000004  080078d8  080078d8  000178d8  2**2
                  CONTENTS, ALLOC, LOAD, DATA
  7 .fini_array   00000004  080078dc  080078dc  000178dc  2**2
                  CONTENTS, ALLOC, LOAD, DATA
  8 .data         000001e8  20000000  080078e0  00020000  2**2
                  CONTENTS, ALLOC, LOAD, DATA
  9 .bss          0000004c  200001e8  08007ac8  000201e8  2**2
                  ALLOC
 10 ._user_heap_stack 00000604  20000234  08007ac8  00020234  2**0
                  ALLOC
 11 .ARM.attributes 00000029  00000000  00000000  000201e8  2**0
                  CONTENTS, READONLY
 12 .debug_info   00009f59  00000000  00000000  00020211  2**0
                  CONTENTS, READONLY, DEBUGGING
 13 .debug_abbrev 00001d0c  00000000  00000000  0002a16a  2**0
                  CONTENTS, READONLY, DEBUGGING
 14 .debug_aranges 00000b48  00000000  00000000  0002be78  2**3
                  CONTENTS, READONLY, DEBUGGING
 15 .debug_ranges 00000a60  00000000  00000000  0002c9c0  2**3
                  CONTENTS, READONLY, DEBUGGING
 16 .debug_macro  00015883  00000000  00000000  0002d420  2**0
                  CONTENTS, READONLY, DEBUGGING
 17 .debug_line   00006f0d  00000000  00000000  00042ca3  2**0
                  CONTENTS, READONLY, DEBUGGING
 18 .debug_str    0006de4f  00000000  00000000  00049bb0  2**0
                  CONTENTS, READONLY, DEBUGGING
 19 .comment      0000007b  00000000  00000000  000b79ff  2**0
                  CONTENTS, READONLY
 20 .debug_frame  00003ca8  00000000  00000000  000b7a7c  2**2
                  CONTENTS, READONLY, DEBUGGING

Disassembly of section .text:

08000110 <__do_global_dtors_aux>:
 8000110:	b510      	push	{r4, lr}
 8000112:	4c05      	ldr	r4, [pc, #20]	; (8000128 <__do_global_dtors_aux+0x18>)
 8000114:	7823      	ldrb	r3, [r4, #0]
 8000116:	b933      	cbnz	r3, 8000126 <__do_global_dtors_aux+0x16>
 8000118:	4b04      	ldr	r3, [pc, #16]	; (800012c <__do_global_dtors_aux+0x1c>)
 800011a:	b113      	cbz	r3, 8000122 <__do_global_dtors_aux+0x12>
 800011c:	4804      	ldr	r0, [pc, #16]	; (8000130 <__do_global_dtors_aux+0x20>)
 800011e:	f3af 8000 	nop.w
 8000122:	2301      	movs	r3, #1
 8000124:	7023      	strb	r3, [r4, #0]
 8000126:	bd10      	pop	{r4, pc}
 8000128:	200001e8 	.word	0x200001e8
 800012c:	00000000 	.word	0x00000000
 8000130:	080075ec 	.word	0x080075ec

08000134 <frame_dummy>:
 8000134:	b508      	push	{r3, lr}
 8000136:	4b03      	ldr	r3, [pc, #12]	; (8000144 <frame_dummy+0x10>)
 8000138:	b11b      	cbz	r3, 8000142 <frame_dummy+0xe>
 800013a:	4903      	ldr	r1, [pc, #12]	; (8000148 <frame_dummy+0x14>)
 800013c:	4803      	ldr	r0, [pc, #12]	; (800014c <frame_dummy+0x18>)
 800013e:	f3af 8000 	nop.w
 8000142:	bd08      	pop	{r3, pc}
 8000144:	00000000 	.word	0x00000000
 8000148:	200001ec 	.word	0x200001ec
 800014c:	080075ec 	.word	0x080075ec

08000150 <strlen>:
 8000150:	4603      	mov	r3, r0
 8000152:	f813 2b01 	ldrb.w	r2, [r3], #1
 8000156:	2a00      	cmp	r2, #0
 8000158:	d1fb      	bne.n	8000152 <strlen+0x2>
 800015a:	1a18      	subs	r0, r3, r0
 800015c:	3801      	subs	r0, #1
 800015e:	4770      	bx	lr

08000160 <__aeabi_drsub>:
 8000160:	f081 4100 	eor.w	r1, r1, #2147483648	; 0x80000000
 8000164:	e002      	b.n	800016c <__adddf3>
 8000166:	bf00      	nop

08000168 <__aeabi_dsub>:
 8000168:	f083 4300 	eor.w	r3, r3, #2147483648	; 0x80000000

0800016c <__adddf3>:
 800016c:	b530      	push	{r4, r5, lr}
 800016e:	ea4f 0441 	mov.w	r4, r1, lsl #1
 8000172:	ea4f 0543 	mov.w	r5, r3, lsl #1
 8000176:	ea94 0f05 	teq	r4, r5
 800017a:	bf08      	it	eq
 800017c:	ea90 0f02 	teqeq	r0, r2
 8000180:	bf1f      	itttt	ne
 8000182:	ea54 0c00 	orrsne.w	ip, r4, r0
 8000186:	ea55 0c02 	orrsne.w	ip, r5, r2
 800018a:	ea7f 5c64 	mvnsne.w	ip, r4, asr #21
 800018e:	ea7f 5c65 	mvnsne.w	ip, r5, asr #21
 8000192:	f000 80e2 	beq.w	800035a <__adddf3+0x1ee>
 8000196:	ea4f 5454 	mov.w	r4, r4, lsr #21
 800019a:	ebd4 5555 	rsbs	r5, r4, r5, lsr #21
 800019e:	bfb8      	it	lt
 80001a0:	426d      	neglt	r5, r5
 80001a2:	dd0c      	ble.n	80001be <__adddf3+0x52>
 80001a4:	442c      	add	r4, r5
 80001a6:	ea80 0202 	eor.w	r2, r0, r2
 80001aa:	ea81 0303 	eor.w	r3, r1, r3
 80001ae:	ea82 0000 	eor.w	r0, r2, r0
 80001b2:	ea83 0101 	eor.w	r1, r3, r1
 80001b6:	ea80 0202 	eor.w	r2, r0, r2
 80001ba:	ea81 0303 	eor.w	r3, r1, r3
 80001be:	2d36      	cmp	r5, #54	; 0x36
 80001c0:	bf88      	it	hi
 80001c2:	bd30      	pophi	{r4, r5, pc}
 80001c4:	f011 4f00 	tst.w	r1, #2147483648	; 0x80000000
 80001c8:	ea4f 3101 	mov.w	r1, r1, lsl #12
 80001cc:	f44f 1c80 	mov.w	ip, #1048576	; 0x100000
 80001d0:	ea4c 3111 	orr.w	r1, ip, r1, lsr #12
 80001d4:	d002      	beq.n	80001dc <__adddf3+0x70>
 80001d6:	4240      	negs	r0, r0
 80001d8:	eb61 0141 	sbc.w	r1, r1, r1, lsl #1
 80001dc:	f013 4f00 	tst.w	r3, #2147483648	; 0x80000000
 80001e0:	ea4f 3303 	mov.w	r3, r3, lsl #12
 80001e4:	ea4c 3313 	orr.w	r3, ip, r3, lsr #12
 80001e8:	d002      	beq.n	80001f0 <__adddf3+0x84>
 80001ea:	4252      	negs	r2, r2
 80001ec:	eb63 0343 	sbc.w	r3, r3, r3, lsl #1
 80001f0:	ea94 0f05 	teq	r4, r5
 80001f4:	f000 80a7 	beq.w	8000346 <__adddf3+0x1da>
 80001f8:	f1a4 0401 	sub.w	r4, r4, #1
 80001fc:	f1d5 0e20 	rsbs	lr, r5, #32
 8000200:	db0d      	blt.n	800021e <__adddf3+0xb2>
 8000202:	fa02 fc0e 	lsl.w	ip, r2, lr
 8000206:	fa22 f205 	lsr.w	r2, r2, r5
 800020a:	1880      	adds	r0, r0, r2
 800020c:	f141 0100 	adc.w	r1, r1, #0
 8000210:	fa03 f20e 	lsl.w	r2, r3, lr
 8000214:	1880      	adds	r0, r0, r2
 8000216:	fa43 f305 	asr.w	r3, r3, r5
 800021a:	4159      	adcs	r1, r3
 800021c:	e00e      	b.n	800023c <__adddf3+0xd0>
 800021e:	f1a5 0520 	sub.w	r5, r5, #32
 8000222:	f10e 0e20 	add.w	lr, lr, #32
 8000226:	2a01      	cmp	r2, #1
 8000228:	fa03 fc0e 	lsl.w	ip, r3, lr
 800022c:	bf28      	it	cs
 800022e:	f04c 0c02 	orrcs.w	ip, ip, #2
 8000232:	fa43 f305 	asr.w	r3, r3, r5
 8000236:	18c0      	adds	r0, r0, r3
 8000238:	eb51 71e3 	adcs.w	r1, r1, r3, asr #31
 800023c:	f001 4500 	and.w	r5, r1, #2147483648	; 0x80000000
 8000240:	d507      	bpl.n	8000252 <__adddf3+0xe6>
 8000242:	f04f 0e00 	mov.w	lr, #0
 8000246:	f1dc 0c00 	rsbs	ip, ip, #0
 800024a:	eb7e 0000 	sbcs.w	r0, lr, r0
 800024e:	eb6e 0101 	sbc.w	r1, lr, r1
 8000252:	f5b1 1f80 	cmp.w	r1, #1048576	; 0x100000
 8000256:	d31b      	bcc.n	8000290 <__adddf3+0x124>
 8000258:	f5b1 1f00 	cmp.w	r1, #2097152	; 0x200000
 800025c:	d30c      	bcc.n	8000278 <__adddf3+0x10c>
 800025e:	0849      	lsrs	r1, r1, #1
 8000260:	ea5f 0030 	movs.w	r0, r0, rrx
 8000264:	ea4f 0c3c 	mov.w	ip, ip, rrx
 8000268:	f104 0401 	add.w	r4, r4, #1
 800026c:	ea4f 5244 	mov.w	r2, r4, lsl #21
 8000270:	f512 0f80 	cmn.w	r2, #4194304	; 0x400000
 8000274:	f080 809a 	bcs.w	80003ac <__adddf3+0x240>
 8000278:	f1bc 4f00 	cmp.w	ip, #2147483648	; 0x80000000
 800027c:	bf08      	it	eq
 800027e:	ea5f 0c50 	movseq.w	ip, r0, lsr #1
 8000282:	f150 0000 	adcs.w	r0, r0, #0
 8000286:	eb41 5104 	adc.w	r1, r1, r4, lsl #20
 800028a:	ea41 0105 	orr.w	r1, r1, r5
 800028e:	bd30      	pop	{r4, r5, pc}
 8000290:	ea5f 0c4c 	movs.w	ip, ip, lsl #1
 8000294:	4140      	adcs	r0, r0
 8000296:	eb41 0101 	adc.w	r1, r1, r1
 800029a:	f411 1f80 	tst.w	r1, #1048576	; 0x100000
 800029e:	f1a4 0401 	sub.w	r4, r4, #1
 80002a2:	d1e9      	bne.n	8000278 <__adddf3+0x10c>
 80002a4:	f091 0f00 	teq	r1, #0
 80002a8:	bf04      	itt	eq
 80002aa:	4601      	moveq	r1, r0
 80002ac:	2000      	moveq	r0, #0
 80002ae:	fab1 f381 	clz	r3, r1
 80002b2:	bf08      	it	eq
 80002b4:	3320      	addeq	r3, #32
 80002b6:	f1a3 030b 	sub.w	r3, r3, #11
 80002ba:	f1b3 0220 	subs.w	r2, r3, #32
 80002be:	da0c      	bge.n	80002da <__adddf3+0x16e>
 80002c0:	320c      	adds	r2, #12
 80002c2:	dd08      	ble.n	80002d6 <__adddf3+0x16a>
 80002c4:	f102 0c14 	add.w	ip, r2, #20
 80002c8:	f1c2 020c 	rsb	r2, r2, #12
 80002cc:	fa01 f00c 	lsl.w	r0, r1, ip
 80002d0:	fa21 f102 	lsr.w	r1, r1, r2
 80002d4:	e00c      	b.n	80002f0 <__adddf3+0x184>
 80002d6:	f102 0214 	add.w	r2, r2, #20
 80002da:	bfd8      	it	le
 80002dc:	f1c2 0c20 	rsble	ip, r2, #32
 80002e0:	fa01 f102 	lsl.w	r1, r1, r2
 80002e4:	fa20 fc0c 	lsr.w	ip, r0, ip
 80002e8:	bfdc      	itt	le
 80002ea:	ea41 010c 	orrle.w	r1, r1, ip
 80002ee:	4090      	lslle	r0, r2
 80002f0:	1ae4      	subs	r4, r4, r3
 80002f2:	bfa2      	ittt	ge
 80002f4:	eb01 5104 	addge.w	r1, r1, r4, lsl #20
 80002f8:	4329      	orrge	r1, r5
 80002fa:	bd30      	popge	{r4, r5, pc}
 80002fc:	ea6f 0404 	mvn.w	r4, r4
 8000300:	3c1f      	subs	r4, #31
 8000302:	da1c      	bge.n	800033e <__adddf3+0x1d2>
 8000304:	340c      	adds	r4, #12
 8000306:	dc0e      	bgt.n	8000326 <__adddf3+0x1ba>
 8000308:	f104 0414 	add.w	r4, r4, #20
 800030c:	f1c4 0220 	rsb	r2, r4, #32
 8000310:	fa20 f004 	lsr.w	r0, r0, r4
 8000314:	fa01 f302 	lsl.w	r3, r1, r2
 8000318:	ea40 0003 	orr.w	r0, r0, r3
 800031c:	fa21 f304 	lsr.w	r3, r1, r4
 8000320:	ea45 0103 	orr.w	r1, r5, r3
 8000324:	bd30      	pop	{r4, r5, pc}
 8000326:	f1c4 040c 	rsb	r4, r4, #12
 800032a:	f1c4 0220 	rsb	r2, r4, #32
 800032e:	fa20 f002 	lsr.w	r0, r0, r2
 8000332:	fa01 f304 	lsl.w	r3, r1, r4
 8000336:	ea40 0003 	orr.w	r0, r0, r3
 800033a:	4629      	mov	r1, r5
 800033c:	bd30      	pop	{r4, r5, pc}
 800033e:	fa21 f004 	lsr.w	r0, r1, r4
 8000342:	4629      	mov	r1, r5
 8000344:	bd30      	pop	{r4, r5, pc}
 8000346:	f094 0f00 	teq	r4, #0
 800034a:	f483 1380 	eor.w	r3, r3, #1048576	; 0x100000
 800034e:	bf06      	itte	eq
 8000350:	f481 1180 	eoreq.w	r1, r1, #1048576	; 0x100000
 8000354:	3401      	addeq	r4, #1
 8000356:	3d01      	subne	r5, #1
 8000358:	e74e      	b.n	80001f8 <__adddf3+0x8c>
 800035a:	ea7f 5c64 	mvns.w	ip, r4, asr #21
 800035e:	bf18      	it	ne
 8000360:	ea7f 5c65 	mvnsne.w	ip, r5, asr #21
 8000364:	d029      	beq.n	80003ba <__adddf3+0x24e>
 8000366:	ea94 0f05 	teq	r4, r5
 800036a:	bf08      	it	eq
 800036c:	ea90 0f02 	teqeq	r0, r2
 8000370:	d005      	beq.n	800037e <__adddf3+0x212>
 8000372:	ea54 0c00 	orrs.w	ip, r4, r0
 8000376:	bf04      	itt	eq
 8000378:	4619      	moveq	r1, r3
 800037a:	4610      	moveq	r0, r2
 800037c:	bd30      	pop	{r4, r5, pc}
 800037e:	ea91 0f03 	teq	r1, r3
 8000382:	bf1e      	ittt	ne
 8000384:	2100      	movne	r1, #0
 8000386:	2000      	movne	r0, #0
 8000388:	bd30      	popne	{r4, r5, pc}
 800038a:	ea5f 5c54 	movs.w	ip, r4, lsr #21
 800038e:	d105      	bne.n	800039c <__adddf3+0x230>
 8000390:	0040      	lsls	r0, r0, #1
 8000392:	4149      	adcs	r1, r1
 8000394:	bf28      	it	cs
 8000396:	f041 4100 	orrcs.w	r1, r1, #2147483648	; 0x80000000
 800039a:	bd30      	pop	{r4, r5, pc}
 800039c:	f514 0480 	adds.w	r4, r4, #4194304	; 0x400000
 80003a0:	bf3c      	itt	cc
 80003a2:	f501 1180 	addcc.w	r1, r1, #1048576	; 0x100000
 80003a6:	bd30      	popcc	{r4, r5, pc}
 80003a8:	f001 4500 	and.w	r5, r1, #2147483648	; 0x80000000
 80003ac:	f045 41fe 	orr.w	r1, r5, #2130706432	; 0x7f000000
 80003b0:	f441 0170 	orr.w	r1, r1, #15728640	; 0xf00000
 80003b4:	f04f 0000 	mov.w	r0, #0
 80003b8:	bd30      	pop	{r4, r5, pc}
 80003ba:	ea7f 5c64 	mvns.w	ip, r4, asr #21
 80003be:	bf1a      	itte	ne
 80003c0:	4619      	movne	r1, r3
 80003c2:	4610      	movne	r0, r2
 80003c4:	ea7f 5c65 	mvnseq.w	ip, r5, asr #21
 80003c8:	bf1c      	itt	ne
 80003ca:	460b      	movne	r3, r1
 80003cc:	4602      	movne	r2, r0
 80003ce:	ea50 3401 	orrs.w	r4, r0, r1, lsl #12
 80003d2:	bf06      	itte	eq
 80003d4:	ea52 3503 	orrseq.w	r5, r2, r3, lsl #12
 80003d8:	ea91 0f03 	teqeq	r1, r3
 80003dc:	f441 2100 	orrne.w	r1, r1, #524288	; 0x80000
 80003e0:	bd30      	pop	{r4, r5, pc}
 80003e2:	bf00      	nop

080003e4 <__aeabi_ui2d>:
 80003e4:	f090 0f00 	teq	r0, #0
 80003e8:	bf04      	itt	eq
 80003ea:	2100      	moveq	r1, #0
 80003ec:	4770      	bxeq	lr
 80003ee:	b530      	push	{r4, r5, lr}
 80003f0:	f44f 6480 	mov.w	r4, #1024	; 0x400
 80003f4:	f104 0432 	add.w	r4, r4, #50	; 0x32
 80003f8:	f04f 0500 	mov.w	r5, #0
 80003fc:	f04f 0100 	mov.w	r1, #0
 8000400:	e750      	b.n	80002a4 <__adddf3+0x138>
 8000402:	bf00      	nop

08000404 <__aeabi_i2d>:
 8000404:	f090 0f00 	teq	r0, #0
 8000408:	bf04      	itt	eq
 800040a:	2100      	moveq	r1, #0
 800040c:	4770      	bxeq	lr
 800040e:	b530      	push	{r4, r5, lr}
 8000410:	f44f 6480 	mov.w	r4, #1024	; 0x400
 8000414:	f104 0432 	add.w	r4, r4, #50	; 0x32
 8000418:	f010 4500 	ands.w	r5, r0, #2147483648	; 0x80000000
 800041c:	bf48      	it	mi
 800041e:	4240      	negmi	r0, r0
 8000420:	f04f 0100 	mov.w	r1, #0
 8000424:	e73e      	b.n	80002a4 <__adddf3+0x138>
 8000426:	bf00      	nop

08000428 <__aeabi_f2d>:
 8000428:	0042      	lsls	r2, r0, #1
 800042a:	ea4f 01e2 	mov.w	r1, r2, asr #3
 800042e:	ea4f 0131 	mov.w	r1, r1, rrx
 8000432:	ea4f 7002 	mov.w	r0, r2, lsl #28
 8000436:	bf1f      	itttt	ne
 8000438:	f012 437f 	andsne.w	r3, r2, #4278190080	; 0xff000000
 800043c:	f093 4f7f 	teqne	r3, #4278190080	; 0xff000000
 8000440:	f081 5160 	eorne.w	r1, r1, #939524096	; 0x38000000
 8000444:	4770      	bxne	lr
 8000446:	f032 427f 	bics.w	r2, r2, #4278190080	; 0xff000000
 800044a:	bf08      	it	eq
 800044c:	4770      	bxeq	lr
 800044e:	f093 4f7f 	teq	r3, #4278190080	; 0xff000000
 8000452:	bf04      	itt	eq
 8000454:	f441 2100 	orreq.w	r1, r1, #524288	; 0x80000
 8000458:	4770      	bxeq	lr
 800045a:	b530      	push	{r4, r5, lr}
 800045c:	f44f 7460 	mov.w	r4, #896	; 0x380
 8000460:	f001 4500 	and.w	r5, r1, #2147483648	; 0x80000000
 8000464:	f021 4100 	bic.w	r1, r1, #2147483648	; 0x80000000
 8000468:	e71c      	b.n	80002a4 <__adddf3+0x138>
 800046a:	bf00      	nop

0800046c <__aeabi_ul2d>:
 800046c:	ea50 0201 	orrs.w	r2, r0, r1
 8000470:	bf08      	it	eq
 8000472:	4770      	bxeq	lr
 8000474:	b530      	push	{r4, r5, lr}
 8000476:	f04f 0500 	mov.w	r5, #0
 800047a:	e00a      	b.n	8000492 <__aeabi_l2d+0x16>

0800047c <__aeabi_l2d>:
 800047c:	ea50 0201 	orrs.w	r2, r0, r1
 8000480:	bf08      	it	eq
 8000482:	4770      	bxeq	lr
 8000484:	b530      	push	{r4, r5, lr}
 8000486:	f011 4500 	ands.w	r5, r1, #2147483648	; 0x80000000
 800048a:	d502      	bpl.n	8000492 <__aeabi_l2d+0x16>
 800048c:	4240      	negs	r0, r0
 800048e:	eb61 0141 	sbc.w	r1, r1, r1, lsl #1
 8000492:	f44f 6480 	mov.w	r4, #1024	; 0x400
 8000496:	f104 0432 	add.w	r4, r4, #50	; 0x32
 800049a:	ea5f 5c91 	movs.w	ip, r1, lsr #22
 800049e:	f43f aed8 	beq.w	8000252 <__adddf3+0xe6>
 80004a2:	f04f 0203 	mov.w	r2, #3
 80004a6:	ea5f 0cdc 	movs.w	ip, ip, lsr #3
 80004aa:	bf18      	it	ne
 80004ac:	3203      	addne	r2, #3
 80004ae:	ea5f 0cdc 	movs.w	ip, ip, lsr #3
 80004b2:	bf18      	it	ne
 80004b4:	3203      	addne	r2, #3
 80004b6:	eb02 02dc 	add.w	r2, r2, ip, lsr #3
 80004ba:	f1c2 0320 	rsb	r3, r2, #32
 80004be:	fa00 fc03 	lsl.w	ip, r0, r3
 80004c2:	fa20 f002 	lsr.w	r0, r0, r2
 80004c6:	fa01 fe03 	lsl.w	lr, r1, r3
 80004ca:	ea40 000e 	orr.w	r0, r0, lr
 80004ce:	fa21 f102 	lsr.w	r1, r1, r2
 80004d2:	4414      	add	r4, r2
 80004d4:	e6bd      	b.n	8000252 <__adddf3+0xe6>
 80004d6:	bf00      	nop

080004d8 <__aeabi_dmul>:
 80004d8:	b570      	push	{r4, r5, r6, lr}
 80004da:	f04f 0cff 	mov.w	ip, #255	; 0xff
 80004de:	f44c 6ce0 	orr.w	ip, ip, #1792	; 0x700
 80004e2:	ea1c 5411 	ands.w	r4, ip, r1, lsr #20
 80004e6:	bf1d      	ittte	ne
 80004e8:	ea1c 5513 	andsne.w	r5, ip, r3, lsr #20
 80004ec:	ea94 0f0c 	teqne	r4, ip
 80004f0:	ea95 0f0c 	teqne	r5, ip
 80004f4:	f000 f8de 	bleq	80006b4 <__aeabi_dmul+0x1dc>
 80004f8:	442c      	add	r4, r5
 80004fa:	ea81 0603 	eor.w	r6, r1, r3
 80004fe:	ea21 514c 	bic.w	r1, r1, ip, lsl #21
 8000502:	ea23 534c 	bic.w	r3, r3, ip, lsl #21
 8000506:	ea50 3501 	orrs.w	r5, r0, r1, lsl #12
 800050a:	bf18      	it	ne
 800050c:	ea52 3503 	orrsne.w	r5, r2, r3, lsl #12
 8000510:	f441 1180 	orr.w	r1, r1, #1048576	; 0x100000
 8000514:	f443 1380 	orr.w	r3, r3, #1048576	; 0x100000
 8000518:	d038      	beq.n	800058c <__aeabi_dmul+0xb4>
 800051a:	fba0 ce02 	umull	ip, lr, r0, r2
 800051e:	f04f 0500 	mov.w	r5, #0
 8000522:	fbe1 e502 	umlal	lr, r5, r1, r2
 8000526:	f006 4200 	and.w	r2, r6, #2147483648	; 0x80000000
 800052a:	fbe0 e503 	umlal	lr, r5, r0, r3
 800052e:	f04f 0600 	mov.w	r6, #0
 8000532:	fbe1 5603 	umlal	r5, r6, r1, r3
 8000536:	f09c 0f00 	teq	ip, #0
 800053a:	bf18      	it	ne
 800053c:	f04e 0e01 	orrne.w	lr, lr, #1
 8000540:	f1a4 04ff 	sub.w	r4, r4, #255	; 0xff
 8000544:	f5b6 7f00 	cmp.w	r6, #512	; 0x200
 8000548:	f564 7440 	sbc.w	r4, r4, #768	; 0x300
 800054c:	d204      	bcs.n	8000558 <__aeabi_dmul+0x80>
 800054e:	ea5f 0e4e 	movs.w	lr, lr, lsl #1
 8000552:	416d      	adcs	r5, r5
 8000554:	eb46 0606 	adc.w	r6, r6, r6
 8000558:	ea42 21c6 	orr.w	r1, r2, r6, lsl #11
 800055c:	ea41 5155 	orr.w	r1, r1, r5, lsr #21
 8000560:	ea4f 20c5 	mov.w	r0, r5, lsl #11
 8000564:	ea40 505e 	orr.w	r0, r0, lr, lsr #21
 8000568:	ea4f 2ece 	mov.w	lr, lr, lsl #11
 800056c:	f1b4 0cfd 	subs.w	ip, r4, #253	; 0xfd
 8000570:	bf88      	it	hi
 8000572:	f5bc 6fe0 	cmphi.w	ip, #1792	; 0x700
 8000576:	d81e      	bhi.n	80005b6 <__aeabi_dmul+0xde>
 8000578:	f1be 4f00 	cmp.w	lr, #2147483648	; 0x80000000
 800057c:	bf08      	it	eq
 800057e:	ea5f 0e50 	movseq.w	lr, r0, lsr #1
 8000582:	f150 0000 	adcs.w	r0, r0, #0
 8000586:	eb41 5104 	adc.w	r1, r1, r4, lsl #20
 800058a:	bd70      	pop	{r4, r5, r6, pc}
 800058c:	f006 4600 	and.w	r6, r6, #2147483648	; 0x80000000
 8000590:	ea46 0101 	orr.w	r1, r6, r1
 8000594:	ea40 0002 	orr.w	r0, r0, r2
 8000598:	ea81 0103 	eor.w	r1, r1, r3
 800059c:	ebb4 045c 	subs.w	r4, r4, ip, lsr #1
 80005a0:	bfc2      	ittt	gt
 80005a2:	ebd4 050c 	rsbsgt	r5, r4, ip
 80005a6:	ea41 5104 	orrgt.w	r1, r1, r4, lsl #20
 80005aa:	bd70      	popgt	{r4, r5, r6, pc}
 80005ac:	f441 1180 	orr.w	r1, r1, #1048576	; 0x100000
 80005b0:	f04f 0e00 	mov.w	lr, #0
 80005b4:	3c01      	subs	r4, #1
 80005b6:	f300 80ab 	bgt.w	8000710 <__aeabi_dmul+0x238>
 80005ba:	f114 0f36 	cmn.w	r4, #54	; 0x36
 80005be:	bfde      	ittt	le
 80005c0:	2000      	movle	r0, #0
 80005c2:	f001 4100 	andle.w	r1, r1, #2147483648	; 0x80000000
 80005c6:	bd70      	pople	{r4, r5, r6, pc}
 80005c8:	f1c4 0400 	rsb	r4, r4, #0
 80005cc:	3c20      	subs	r4, #32
 80005ce:	da35      	bge.n	800063c <__aeabi_dmul+0x164>
 80005d0:	340c      	adds	r4, #12
 80005d2:	dc1b      	bgt.n	800060c <__aeabi_dmul+0x134>
 80005d4:	f104 0414 	add.w	r4, r4, #20
 80005d8:	f1c4 0520 	rsb	r5, r4, #32
 80005dc:	fa00 f305 	lsl.w	r3, r0, r5
 80005e0:	fa20 f004 	lsr.w	r0, r0, r4
 80005e4:	fa01 f205 	lsl.w	r2, r1, r5
 80005e8:	ea40 0002 	orr.w	r0, r0, r2
 80005ec:	f001 4200 	and.w	r2, r1, #2147483648	; 0x80000000
 80005f0:	f021 4100 	bic.w	r1, r1, #2147483648	; 0x80000000
 80005f4:	eb10 70d3 	adds.w	r0, r0, r3, lsr #31
 80005f8:	fa21 f604 	lsr.w	r6, r1, r4
 80005fc:	eb42 0106 	adc.w	r1, r2, r6
 8000600:	ea5e 0e43 	orrs.w	lr, lr, r3, lsl #1
 8000604:	bf08      	it	eq
 8000606:	ea20 70d3 	biceq.w	r0, r0, r3, lsr #31
 800060a:	bd70      	pop	{r4, r5, r6, pc}
 800060c:	f1c4 040c 	rsb	r4, r4, #12
 8000610:	f1c4 0520 	rsb	r5, r4, #32
 8000614:	fa00 f304 	lsl.w	r3, r0, r4
 8000618:	fa20 f005 	lsr.w	r0, r0, r5
 800061c:	fa01 f204 	lsl.w	r2, r1, r4
 8000620:	ea40 0002 	orr.w	r0, r0, r2
 8000624:	f001 4100 	and.w	r1, r1, #2147483648	; 0x80000000
 8000628:	eb10 70d3 	adds.w	r0, r0, r3, lsr #31
 800062c:	f141 0100 	adc.w	r1, r1, #0
 8000630:	ea5e 0e43 	orrs.w	lr, lr, r3, lsl #1
 8000634:	bf08      	it	eq
 8000636:	ea20 70d3 	biceq.w	r0, r0, r3, lsr #31
 800063a:	bd70      	pop	{r4, r5, r6, pc}
 800063c:	f1c4 0520 	rsb	r5, r4, #32
 8000640:	fa00 f205 	lsl.w	r2, r0, r5
 8000644:	ea4e 0e02 	orr.w	lr, lr, r2
 8000648:	fa20 f304 	lsr.w	r3, r0, r4
 800064c:	fa01 f205 	lsl.w	r2, r1, r5
 8000650:	ea43 0302 	orr.w	r3, r3, r2
 8000654:	fa21 f004 	lsr.w	r0, r1, r4
 8000658:	f001 4100 	and.w	r1, r1, #2147483648	; 0x80000000
 800065c:	fa21 f204 	lsr.w	r2, r1, r4
 8000660:	ea20 0002 	bic.w	r0, r0, r2
 8000664:	eb00 70d3 	add.w	r0, r0, r3, lsr #31
 8000668:	ea5e 0e43 	orrs.w	lr, lr, r3, lsl #1
 800066c:	bf08      	it	eq
 800066e:	ea20 70d3 	biceq.w	r0, r0, r3, lsr #31
 8000672:	bd70      	pop	{r4, r5, r6, pc}
 8000674:	f094 0f00 	teq	r4, #0
 8000678:	d10f      	bne.n	800069a <__aeabi_dmul+0x1c2>
 800067a:	f001 4600 	and.w	r6, r1, #2147483648	; 0x80000000
 800067e:	0040      	lsls	r0, r0, #1
 8000680:	eb41 0101 	adc.w	r1, r1, r1
 8000684:	f411 1f80 	tst.w	r1, #1048576	; 0x100000
 8000688:	bf08      	it	eq
 800068a:	3c01      	subeq	r4, #1
 800068c:	d0f7      	beq.n	800067e <__aeabi_dmul+0x1a6>
 800068e:	ea41 0106 	orr.w	r1, r1, r6
 8000692:	f095 0f00 	teq	r5, #0
 8000696:	bf18      	it	ne
 8000698:	4770      	bxne	lr
 800069a:	f003 4600 	and.w	r6, r3, #2147483648	; 0x80000000
 800069e:	0052      	lsls	r2, r2, #1
 80006a0:	eb43 0303 	adc.w	r3, r3, r3
 80006a4:	f413 1f80 	tst.w	r3, #1048576	; 0x100000
 80006a8:	bf08      	it	eq
 80006aa:	3d01      	subeq	r5, #1
 80006ac:	d0f7      	beq.n	800069e <__aeabi_dmul+0x1c6>
 80006ae:	ea43 0306 	orr.w	r3, r3, r6
 80006b2:	4770      	bx	lr
 80006b4:	ea94 0f0c 	teq	r4, ip
 80006b8:	ea0c 5513 	and.w	r5, ip, r3, lsr #20
 80006bc:	bf18      	it	ne
 80006be:	ea95 0f0c 	teqne	r5, ip
 80006c2:	d00c      	beq.n	80006de <__aeabi_dmul+0x206>
 80006c4:	ea50 0641 	orrs.w	r6, r0, r1, lsl #1
 80006c8:	bf18      	it	ne
 80006ca:	ea52 0643 	orrsne.w	r6, r2, r3, lsl #1
 80006ce:	d1d1      	bne.n	8000674 <__aeabi_dmul+0x19c>
 80006d0:	ea81 0103 	eor.w	r1, r1, r3
 80006d4:	f001 4100 	and.w	r1, r1, #2147483648	; 0x80000000
 80006d8:	f04f 0000 	mov.w	r0, #0
 80006dc:	bd70      	pop	{r4, r5, r6, pc}
 80006de:	ea50 0641 	orrs.w	r6, r0, r1, lsl #1
 80006e2:	bf06      	itte	eq
 80006e4:	4610      	moveq	r0, r2
 80006e6:	4619      	moveq	r1, r3
 80006e8:	ea52 0643 	orrsne.w	r6, r2, r3, lsl #1
 80006ec:	d019      	beq.n	8000722 <__aeabi_dmul+0x24a>
 80006ee:	ea94 0f0c 	teq	r4, ip
 80006f2:	d102      	bne.n	80006fa <__aeabi_dmul+0x222>
 80006f4:	ea50 3601 	orrs.w	r6, r0, r1, lsl #12
 80006f8:	d113      	bne.n	8000722 <__aeabi_dmul+0x24a>
 80006fa:	ea95 0f0c 	teq	r5, ip
 80006fe:	d105      	bne.n	800070c <__aeabi_dmul+0x234>
 8000700:	ea52 3603 	orrs.w	r6, r2, r3, lsl #12
 8000704:	bf1c      	itt	ne
 8000706:	4610      	movne	r0, r2
 8000708:	4619      	movne	r1, r3
 800070a:	d10a      	bne.n	8000722 <__aeabi_dmul+0x24a>
 800070c:	ea81 0103 	eor.w	r1, r1, r3
 8000710:	f001 4100 	and.w	r1, r1, #2147483648	; 0x80000000
 8000714:	f041 41fe 	orr.w	r1, r1, #2130706432	; 0x7f000000
 8000718:	f441 0170 	orr.w	r1, r1, #15728640	; 0xf00000
 800071c:	f04f 0000 	mov.w	r0, #0
 8000720:	bd70      	pop	{r4, r5, r6, pc}
 8000722:	f041 41fe 	orr.w	r1, r1, #2130706432	; 0x7f000000
 8000726:	f441 0178 	orr.w	r1, r1, #16252928	; 0xf80000
 800072a:	bd70      	pop	{r4, r5, r6, pc}

0800072c <__aeabi_ddiv>:
 800072c:	b570      	push	{r4, r5, r6, lr}
 800072e:	f04f 0cff 	mov.w	ip, #255	; 0xff
 8000732:	f44c 6ce0 	orr.w	ip, ip, #1792	; 0x700
 8000736:	ea1c 5411 	ands.w	r4, ip, r1, lsr #20
 800073a:	bf1d      	ittte	ne
 800073c:	ea1c 5513 	andsne.w	r5, ip, r3, lsr #20
 8000740:	ea94 0f0c 	teqne	r4, ip
 8000744:	ea95 0f0c 	teqne	r5, ip
 8000748:	f000 f8a7 	bleq	800089a <__aeabi_ddiv+0x16e>
 800074c:	eba4 0405 	sub.w	r4, r4, r5
 8000750:	ea81 0e03 	eor.w	lr, r1, r3
 8000754:	ea52 3503 	orrs.w	r5, r2, r3, lsl #12
 8000758:	ea4f 3101 	mov.w	r1, r1, lsl #12
 800075c:	f000 8088 	beq.w	8000870 <__aeabi_ddiv+0x144>
 8000760:	ea4f 3303 	mov.w	r3, r3, lsl #12
 8000764:	f04f 5580 	mov.w	r5, #268435456	; 0x10000000
 8000768:	ea45 1313 	orr.w	r3, r5, r3, lsr #4
 800076c:	ea43 6312 	orr.w	r3, r3, r2, lsr #24
 8000770:	ea4f 2202 	mov.w	r2, r2, lsl #8
 8000774:	ea45 1511 	orr.w	r5, r5, r1, lsr #4
 8000778:	ea45 6510 	orr.w	r5, r5, r0, lsr #24
 800077c:	ea4f 2600 	mov.w	r6, r0, lsl #8
 8000780:	f00e 4100 	and.w	r1, lr, #2147483648	; 0x80000000
 8000784:	429d      	cmp	r5, r3
 8000786:	bf08      	it	eq
 8000788:	4296      	cmpeq	r6, r2
 800078a:	f144 04fd 	adc.w	r4, r4, #253	; 0xfd
 800078e:	f504 7440 	add.w	r4, r4, #768	; 0x300
 8000792:	d202      	bcs.n	800079a <__aeabi_ddiv+0x6e>
 8000794:	085b      	lsrs	r3, r3, #1
 8000796:	ea4f 0232 	mov.w	r2, r2, rrx
 800079a:	1ab6      	subs	r6, r6, r2
 800079c:	eb65 0503 	sbc.w	r5, r5, r3
 80007a0:	085b      	lsrs	r3, r3, #1
 80007a2:	ea4f 0232 	mov.w	r2, r2, rrx
 80007a6:	f44f 1080 	mov.w	r0, #1048576	; 0x100000
 80007aa:	f44f 2c00 	mov.w	ip, #524288	; 0x80000
 80007ae:	ebb6 0e02 	subs.w	lr, r6, r2
 80007b2:	eb75 0e03 	sbcs.w	lr, r5, r3
 80007b6:	bf22      	ittt	cs
 80007b8:	1ab6      	subcs	r6, r6, r2
 80007ba:	4675      	movcs	r5, lr
 80007bc:	ea40 000c 	orrcs.w	r0, r0, ip
 80007c0:	085b      	lsrs	r3, r3, #1
 80007c2:	ea4f 0232 	mov.w	r2, r2, rrx
 80007c6:	ebb6 0e02 	subs.w	lr, r6, r2
 80007ca:	eb75 0e03 	sbcs.w	lr, r5, r3
 80007ce:	bf22      	ittt	cs
 80007d0:	1ab6      	subcs	r6, r6, r2
 80007d2:	4675      	movcs	r5, lr
 80007d4:	ea40 005c 	orrcs.w	r0, r0, ip, lsr #1
 80007d8:	085b      	lsrs	r3, r3, #1
 80007da:	ea4f 0232 	mov.w	r2, r2, rrx
 80007de:	ebb6 0e02 	subs.w	lr, r6, r2
 80007e2:	eb75 0e03 	sbcs.w	lr, r5, r3
 80007e6:	bf22      	ittt	cs
 80007e8:	1ab6      	subcs	r6, r6, r2
 80007ea:	4675      	movcs	r5, lr
 80007ec:	ea40 009c 	orrcs.w	r0, r0, ip, lsr #2
 80007f0:	085b      	lsrs	r3, r3, #1
 80007f2:	ea4f 0232 	mov.w	r2, r2, rrx
 80007f6:	ebb6 0e02 	subs.w	lr, r6, r2
 80007fa:	eb75 0e03 	sbcs.w	lr, r5, r3
 80007fe:	bf22      	ittt	cs
 8000800:	1ab6      	subcs	r6, r6, r2
 8000802:	4675      	movcs	r5, lr
 8000804:	ea40 00dc 	orrcs.w	r0, r0, ip, lsr #3
 8000808:	ea55 0e06 	orrs.w	lr, r5, r6
 800080c:	d018      	beq.n	8000840 <__aeabi_ddiv+0x114>
 800080e:	ea4f 1505 	mov.w	r5, r5, lsl #4
 8000812:	ea45 7516 	orr.w	r5, r5, r6, lsr #28
 8000816:	ea4f 1606 	mov.w	r6, r6, lsl #4
 800081a:	ea4f 03c3 	mov.w	r3, r3, lsl #3
 800081e:	ea43 7352 	orr.w	r3, r3, r2, lsr #29
 8000822:	ea4f 02c2 	mov.w	r2, r2, lsl #3
 8000826:	ea5f 1c1c 	movs.w	ip, ip, lsr #4
 800082a:	d1c0      	bne.n	80007ae <__aeabi_ddiv+0x82>
 800082c:	f411 1f80 	tst.w	r1, #1048576	; 0x100000
 8000830:	d10b      	bne.n	800084a <__aeabi_ddiv+0x11e>
 8000832:	ea41 0100 	orr.w	r1, r1, r0
 8000836:	f04f 0000 	mov.w	r0, #0
 800083a:	f04f 4c00 	mov.w	ip, #2147483648	; 0x80000000
 800083e:	e7b6      	b.n	80007ae <__aeabi_ddiv+0x82>
 8000840:	f411 1f80 	tst.w	r1, #1048576	; 0x100000
 8000844:	bf04      	itt	eq
 8000846:	4301      	orreq	r1, r0
 8000848:	2000      	moveq	r0, #0
 800084a:	f1b4 0cfd 	subs.w	ip, r4, #253	; 0xfd
 800084e:	bf88      	it	hi
 8000850:	f5bc 6fe0 	cmphi.w	ip, #1792	; 0x700
 8000854:	f63f aeaf 	bhi.w	80005b6 <__aeabi_dmul+0xde>
 8000858:	ebb5 0c03 	subs.w	ip, r5, r3
 800085c:	bf04      	itt	eq
 800085e:	ebb6 0c02 	subseq.w	ip, r6, r2
 8000862:	ea5f 0c50 	movseq.w	ip, r0, lsr #1
 8000866:	f150 0000 	adcs.w	r0, r0, #0
 800086a:	eb41 5104 	adc.w	r1, r1, r4, lsl #20
 800086e:	bd70      	pop	{r4, r5, r6, pc}
 8000870:	f00e 4e00 	and.w	lr, lr, #2147483648	; 0x80000000
 8000874:	ea4e 3111 	orr.w	r1, lr, r1, lsr #12
 8000878:	eb14 045c 	adds.w	r4, r4, ip, lsr #1
 800087c:	bfc2      	ittt	gt
 800087e:	ebd4 050c 	rsbsgt	r5, r4, ip
 8000882:	ea41 5104 	orrgt.w	r1, r1, r4, lsl #20
 8000886:	bd70      	popgt	{r4, r5, r6, pc}
 8000888:	f441 1180 	orr.w	r1, r1, #1048576	; 0x100000
 800088c:	f04f 0e00 	mov.w	lr, #0
 8000890:	3c01      	subs	r4, #1
 8000892:	e690      	b.n	80005b6 <__aeabi_dmul+0xde>
 8000894:	ea45 0e06 	orr.w	lr, r5, r6
 8000898:	e68d      	b.n	80005b6 <__aeabi_dmul+0xde>
 800089a:	ea0c 5513 	and.w	r5, ip, r3, lsr #20
 800089e:	ea94 0f0c 	teq	r4, ip
 80008a2:	bf08      	it	eq
 80008a4:	ea95 0f0c 	teqeq	r5, ip
 80008a8:	f43f af3b 	beq.w	8000722 <__aeabi_dmul+0x24a>
 80008ac:	ea94 0f0c 	teq	r4, ip
 80008b0:	d10a      	bne.n	80008c8 <__aeabi_ddiv+0x19c>
 80008b2:	ea50 3401 	orrs.w	r4, r0, r1, lsl #12
 80008b6:	f47f af34 	bne.w	8000722 <__aeabi_dmul+0x24a>
 80008ba:	ea95 0f0c 	teq	r5, ip
 80008be:	f47f af25 	bne.w	800070c <__aeabi_dmul+0x234>
 80008c2:	4610      	mov	r0, r2
 80008c4:	4619      	mov	r1, r3
 80008c6:	e72c      	b.n	8000722 <__aeabi_dmul+0x24a>
 80008c8:	ea95 0f0c 	teq	r5, ip
 80008cc:	d106      	bne.n	80008dc <__aeabi_ddiv+0x1b0>
 80008ce:	ea52 3503 	orrs.w	r5, r2, r3, lsl #12
 80008d2:	f43f aefd 	beq.w	80006d0 <__aeabi_dmul+0x1f8>
 80008d6:	4610      	mov	r0, r2
 80008d8:	4619      	mov	r1, r3
 80008da:	e722      	b.n	8000722 <__aeabi_dmul+0x24a>
 80008dc:	ea50 0641 	orrs.w	r6, r0, r1, lsl #1
 80008e0:	bf18      	it	ne
 80008e2:	ea52 0643 	orrsne.w	r6, r2, r3, lsl #1
 80008e6:	f47f aec5 	bne.w	8000674 <__aeabi_dmul+0x19c>
 80008ea:	ea50 0441 	orrs.w	r4, r0, r1, lsl #1
 80008ee:	f47f af0d 	bne.w	800070c <__aeabi_dmul+0x234>
 80008f2:	ea52 0543 	orrs.w	r5, r2, r3, lsl #1
 80008f6:	f47f aeeb 	bne.w	80006d0 <__aeabi_dmul+0x1f8>
 80008fa:	e712      	b.n	8000722 <__aeabi_dmul+0x24a>

080008fc <__gedf2>:
 80008fc:	f04f 3cff 	mov.w	ip, #4294967295
 8000900:	e006      	b.n	8000910 <__cmpdf2+0x4>
 8000902:	bf00      	nop

08000904 <__ledf2>:
 8000904:	f04f 0c01 	mov.w	ip, #1
 8000908:	e002      	b.n	8000910 <__cmpdf2+0x4>
 800090a:	bf00      	nop

0800090c <__cmpdf2>:
 800090c:	f04f 0c01 	mov.w	ip, #1
 8000910:	f84d cd04 	str.w	ip, [sp, #-4]!
 8000914:	ea4f 0c41 	mov.w	ip, r1, lsl #1
 8000918:	ea7f 5c6c 	mvns.w	ip, ip, asr #21
 800091c:	ea4f 0c43 	mov.w	ip, r3, lsl #1
 8000920:	bf18      	it	ne
 8000922:	ea7f 5c6c 	mvnsne.w	ip, ip, asr #21
 8000926:	d01b      	beq.n	8000960 <__cmpdf2+0x54>
 8000928:	b001      	add	sp, #4
 800092a:	ea50 0c41 	orrs.w	ip, r0, r1, lsl #1
 800092e:	bf0c      	ite	eq
 8000930:	ea52 0c43 	orrseq.w	ip, r2, r3, lsl #1
 8000934:	ea91 0f03 	teqne	r1, r3
 8000938:	bf02      	ittt	eq
 800093a:	ea90 0f02 	teqeq	r0, r2
 800093e:	2000      	moveq	r0, #0
 8000940:	4770      	bxeq	lr
 8000942:	f110 0f00 	cmn.w	r0, #0
 8000946:	ea91 0f03 	teq	r1, r3
 800094a:	bf58      	it	pl
 800094c:	4299      	cmppl	r1, r3
 800094e:	bf08      	it	eq
 8000950:	4290      	cmpeq	r0, r2
 8000952:	bf2c      	ite	cs
 8000954:	17d8      	asrcs	r0, r3, #31
 8000956:	ea6f 70e3 	mvncc.w	r0, r3, asr #31
 800095a:	f040 0001 	orr.w	r0, r0, #1
 800095e:	4770      	bx	lr
 8000960:	ea4f 0c41 	mov.w	ip, r1, lsl #1
 8000964:	ea7f 5c6c 	mvns.w	ip, ip, asr #21
 8000968:	d102      	bne.n	8000970 <__cmpdf2+0x64>
 800096a:	ea50 3c01 	orrs.w	ip, r0, r1, lsl #12
 800096e:	d107      	bne.n	8000980 <__cmpdf2+0x74>
 8000970:	ea4f 0c43 	mov.w	ip, r3, lsl #1
 8000974:	ea7f 5c6c 	mvns.w	ip, ip, asr #21
 8000978:	d1d6      	bne.n	8000928 <__cmpdf2+0x1c>
 800097a:	ea52 3c03 	orrs.w	ip, r2, r3, lsl #12
 800097e:	d0d3      	beq.n	8000928 <__cmpdf2+0x1c>
 8000980:	f85d 0b04 	ldr.w	r0, [sp], #4
 8000984:	4770      	bx	lr
 8000986:	bf00      	nop

08000988 <__aeabi_cdrcmple>:
 8000988:	4684      	mov	ip, r0
 800098a:	4610      	mov	r0, r2
 800098c:	4662      	mov	r2, ip
 800098e:	468c      	mov	ip, r1
 8000990:	4619      	mov	r1, r3
 8000992:	4663      	mov	r3, ip
 8000994:	e000      	b.n	8000998 <__aeabi_cdcmpeq>
 8000996:	bf00      	nop

08000998 <__aeabi_cdcmpeq>:
 8000998:	b501      	push	{r0, lr}
 800099a:	f7ff ffb7 	bl	800090c <__cmpdf2>
 800099e:	2800      	cmp	r0, #0
 80009a0:	bf48      	it	mi
 80009a2:	f110 0f00 	cmnmi.w	r0, #0
 80009a6:	bd01      	pop	{r0, pc}

080009a8 <__aeabi_dcmpeq>:
 80009a8:	f84d ed08 	str.w	lr, [sp, #-8]!
 80009ac:	f7ff fff4 	bl	8000998 <__aeabi_cdcmpeq>
 80009b0:	bf0c      	ite	eq
 80009b2:	2001      	moveq	r0, #1
 80009b4:	2000      	movne	r0, #0
 80009b6:	f85d fb08 	ldr.w	pc, [sp], #8
 80009ba:	bf00      	nop

080009bc <__aeabi_dcmplt>:
 80009bc:	f84d ed08 	str.w	lr, [sp, #-8]!
 80009c0:	f7ff ffea 	bl	8000998 <__aeabi_cdcmpeq>
 80009c4:	bf34      	ite	cc
 80009c6:	2001      	movcc	r0, #1
 80009c8:	2000      	movcs	r0, #0
 80009ca:	f85d fb08 	ldr.w	pc, [sp], #8
 80009ce:	bf00      	nop

080009d0 <__aeabi_dcmple>:
 80009d0:	f84d ed08 	str.w	lr, [sp, #-8]!
 80009d4:	f7ff ffe0 	bl	8000998 <__aeabi_cdcmpeq>
 80009d8:	bf94      	ite	ls
 80009da:	2001      	movls	r0, #1
 80009dc:	2000      	movhi	r0, #0
 80009de:	f85d fb08 	ldr.w	pc, [sp], #8
 80009e2:	bf00      	nop

080009e4 <__aeabi_dcmpge>:
 80009e4:	f84d ed08 	str.w	lr, [sp, #-8]!
 80009e8:	f7ff ffce 	bl	8000988 <__aeabi_cdrcmple>
 80009ec:	bf94      	ite	ls
 80009ee:	2001      	movls	r0, #1
 80009f0:	2000      	movhi	r0, #0
 80009f2:	f85d fb08 	ldr.w	pc, [sp], #8
 80009f6:	bf00      	nop

080009f8 <__aeabi_dcmpgt>:
 80009f8:	f84d ed08 	str.w	lr, [sp, #-8]!
 80009fc:	f7ff ffc4 	bl	8000988 <__aeabi_cdrcmple>
 8000a00:	bf34      	ite	cc
 8000a02:	2001      	movcc	r0, #1
 8000a04:	2000      	movcs	r0, #0
 8000a06:	f85d fb08 	ldr.w	pc, [sp], #8
 8000a0a:	bf00      	nop

08000a0c <__aeabi_dcmpun>:
 8000a0c:	ea4f 0c41 	mov.w	ip, r1, lsl #1
 8000a10:	ea7f 5c6c 	mvns.w	ip, ip, asr #21
 8000a14:	d102      	bne.n	8000a1c <__aeabi_dcmpun+0x10>
 8000a16:	ea50 3c01 	orrs.w	ip, r0, r1, lsl #12
 8000a1a:	d10a      	bne.n	8000a32 <__aeabi_dcmpun+0x26>
 8000a1c:	ea4f 0c43 	mov.w	ip, r3, lsl #1
 8000a20:	ea7f 5c6c 	mvns.w	ip, ip, asr #21
 8000a24:	d102      	bne.n	8000a2c <__aeabi_dcmpun+0x20>
 8000a26:	ea52 3c03 	orrs.w	ip, r2, r3, lsl #12
 8000a2a:	d102      	bne.n	8000a32 <__aeabi_dcmpun+0x26>
 8000a2c:	f04f 0000 	mov.w	r0, #0
 8000a30:	4770      	bx	lr
 8000a32:	f04f 0001 	mov.w	r0, #1
 8000a36:	4770      	bx	lr

08000a38 <__aeabi_d2iz>:
 8000a38:	ea4f 0241 	mov.w	r2, r1, lsl #1
 8000a3c:	f512 1200 	adds.w	r2, r2, #2097152	; 0x200000
 8000a40:	d215      	bcs.n	8000a6e <__aeabi_d2iz+0x36>
 8000a42:	d511      	bpl.n	8000a68 <__aeabi_d2iz+0x30>
 8000a44:	f46f 7378 	mvn.w	r3, #992	; 0x3e0
 8000a48:	ebb3 5262 	subs.w	r2, r3, r2, asr #21
 8000a4c:	d912      	bls.n	8000a74 <__aeabi_d2iz+0x3c>
 8000a4e:	ea4f 23c1 	mov.w	r3, r1, lsl #11
 8000a52:	f043 4300 	orr.w	r3, r3, #2147483648	; 0x80000000
 8000a56:	ea43 5350 	orr.w	r3, r3, r0, lsr #21
 8000a5a:	f011 4f00 	tst.w	r1, #2147483648	; 0x80000000
 8000a5e:	fa23 f002 	lsr.w	r0, r3, r2
 8000a62:	bf18      	it	ne
 8000a64:	4240      	negne	r0, r0
 8000a66:	4770      	bx	lr
 8000a68:	f04f 0000 	mov.w	r0, #0
 8000a6c:	4770      	bx	lr
 8000a6e:	ea50 3001 	orrs.w	r0, r0, r1, lsl #12
 8000a72:	d105      	bne.n	8000a80 <__aeabi_d2iz+0x48>
 8000a74:	f011 4000 	ands.w	r0, r1, #2147483648	; 0x80000000
 8000a78:	bf08      	it	eq
 8000a7a:	f06f 4000 	mvneq.w	r0, #2147483648	; 0x80000000
 8000a7e:	4770      	bx	lr
 8000a80:	f04f 0000 	mov.w	r0, #0
 8000a84:	4770      	bx	lr
 8000a86:	bf00      	nop

08000a88 <__aeabi_frsub>:
 8000a88:	f080 4000 	eor.w	r0, r0, #2147483648	; 0x80000000
 8000a8c:	e002      	b.n	8000a94 <__addsf3>
 8000a8e:	bf00      	nop

08000a90 <__aeabi_fsub>:
 8000a90:	f081 4100 	eor.w	r1, r1, #2147483648	; 0x80000000

08000a94 <__addsf3>:
 8000a94:	0042      	lsls	r2, r0, #1
 8000a96:	bf1f      	itttt	ne
 8000a98:	ea5f 0341 	movsne.w	r3, r1, lsl #1
 8000a9c:	ea92 0f03 	teqne	r2, r3
 8000aa0:	ea7f 6c22 	mvnsne.w	ip, r2, asr #24
 8000aa4:	ea7f 6c23 	mvnsne.w	ip, r3, asr #24
 8000aa8:	d06a      	beq.n	8000b80 <__addsf3+0xec>
 8000aaa:	ea4f 6212 	mov.w	r2, r2, lsr #24
 8000aae:	ebd2 6313 	rsbs	r3, r2, r3, lsr #24
 8000ab2:	bfc1      	itttt	gt
 8000ab4:	18d2      	addgt	r2, r2, r3
 8000ab6:	4041      	eorgt	r1, r0
 8000ab8:	4048      	eorgt	r0, r1
 8000aba:	4041      	eorgt	r1, r0
 8000abc:	bfb8      	it	lt
 8000abe:	425b      	neglt	r3, r3
 8000ac0:	2b19      	cmp	r3, #25
 8000ac2:	bf88      	it	hi
 8000ac4:	4770      	bxhi	lr
 8000ac6:	f010 4f00 	tst.w	r0, #2147483648	; 0x80000000
 8000aca:	f440 0000 	orr.w	r0, r0, #8388608	; 0x800000
 8000ace:	f020 407f 	bic.w	r0, r0, #4278190080	; 0xff000000
 8000ad2:	bf18      	it	ne
 8000ad4:	4240      	negne	r0, r0
 8000ad6:	f011 4f00 	tst.w	r1, #2147483648	; 0x80000000
 8000ada:	f441 0100 	orr.w	r1, r1, #8388608	; 0x800000
 8000ade:	f021 417f 	bic.w	r1, r1, #4278190080	; 0xff000000
 8000ae2:	bf18      	it	ne
 8000ae4:	4249      	negne	r1, r1
 8000ae6:	ea92 0f03 	teq	r2, r3
 8000aea:	d03f      	beq.n	8000b6c <__addsf3+0xd8>
 8000aec:	f1a2 0201 	sub.w	r2, r2, #1
 8000af0:	fa41 fc03 	asr.w	ip, r1, r3
 8000af4:	eb10 000c 	adds.w	r0, r0, ip
 8000af8:	f1c3 0320 	rsb	r3, r3, #32
 8000afc:	fa01 f103 	lsl.w	r1, r1, r3
 8000b00:	f000 4300 	and.w	r3, r0, #2147483648	; 0x80000000
 8000b04:	d502      	bpl.n	8000b0c <__addsf3+0x78>
 8000b06:	4249      	negs	r1, r1
 8000b08:	eb60 0040 	sbc.w	r0, r0, r0, lsl #1
 8000b0c:	f5b0 0f00 	cmp.w	r0, #8388608	; 0x800000
 8000b10:	d313      	bcc.n	8000b3a <__addsf3+0xa6>
 8000b12:	f1b0 7f80 	cmp.w	r0, #16777216	; 0x1000000
 8000b16:	d306      	bcc.n	8000b26 <__addsf3+0x92>
 8000b18:	0840      	lsrs	r0, r0, #1
 8000b1a:	ea4f 0131 	mov.w	r1, r1, rrx
 8000b1e:	f102 0201 	add.w	r2, r2, #1
 8000b22:	2afe      	cmp	r2, #254	; 0xfe
 8000b24:	d251      	bcs.n	8000bca <__addsf3+0x136>
 8000b26:	f1b1 4f00 	cmp.w	r1, #2147483648	; 0x80000000
 8000b2a:	eb40 50c2 	adc.w	r0, r0, r2, lsl #23
 8000b2e:	bf08      	it	eq
 8000b30:	f020 0001 	biceq.w	r0, r0, #1
 8000b34:	ea40 0003 	orr.w	r0, r0, r3
 8000b38:	4770      	bx	lr
 8000b3a:	0049      	lsls	r1, r1, #1
 8000b3c:	eb40 0000 	adc.w	r0, r0, r0
 8000b40:	f410 0f00 	tst.w	r0, #8388608	; 0x800000
 8000b44:	f1a2 0201 	sub.w	r2, r2, #1
 8000b48:	d1ed      	bne.n	8000b26 <__addsf3+0x92>
 8000b4a:	fab0 fc80 	clz	ip, r0
 8000b4e:	f1ac 0c08 	sub.w	ip, ip, #8
 8000b52:	ebb2 020c 	subs.w	r2, r2, ip
 8000b56:	fa00 f00c 	lsl.w	r0, r0, ip
 8000b5a:	bfaa      	itet	ge
 8000b5c:	eb00 50c2 	addge.w	r0, r0, r2, lsl #23
 8000b60:	4252      	neglt	r2, r2
 8000b62:	4318      	orrge	r0, r3
 8000b64:	bfbc      	itt	lt
 8000b66:	40d0      	lsrlt	r0, r2
 8000b68:	4318      	orrlt	r0, r3
 8000b6a:	4770      	bx	lr
 8000b6c:	f092 0f00 	teq	r2, #0
 8000b70:	f481 0100 	eor.w	r1, r1, #8388608	; 0x800000
 8000b74:	bf06      	itte	eq
 8000b76:	f480 0000 	eoreq.w	r0, r0, #8388608	; 0x800000
 8000b7a:	3201      	addeq	r2, #1
 8000b7c:	3b01      	subne	r3, #1
 8000b7e:	e7b5      	b.n	8000aec <__addsf3+0x58>
 8000b80:	ea4f 0341 	mov.w	r3, r1, lsl #1
 8000b84:	ea7f 6c22 	mvns.w	ip, r2, asr #24
 8000b88:	bf18      	it	ne
 8000b8a:	ea7f 6c23 	mvnsne.w	ip, r3, asr #24
 8000b8e:	d021      	beq.n	8000bd4 <__addsf3+0x140>
 8000b90:	ea92 0f03 	teq	r2, r3
 8000b94:	d004      	beq.n	8000ba0 <__addsf3+0x10c>
 8000b96:	f092 0f00 	teq	r2, #0
 8000b9a:	bf08      	it	eq
 8000b9c:	4608      	moveq	r0, r1
 8000b9e:	4770      	bx	lr
 8000ba0:	ea90 0f01 	teq	r0, r1
 8000ba4:	bf1c      	itt	ne
 8000ba6:	2000      	movne	r0, #0
 8000ba8:	4770      	bxne	lr
 8000baa:	f012 4f7f 	tst.w	r2, #4278190080	; 0xff000000
 8000bae:	d104      	bne.n	8000bba <__addsf3+0x126>
 8000bb0:	0040      	lsls	r0, r0, #1
 8000bb2:	bf28      	it	cs
 8000bb4:	f040 4000 	orrcs.w	r0, r0, #2147483648	; 0x80000000
 8000bb8:	4770      	bx	lr
 8000bba:	f112 7200 	adds.w	r2, r2, #33554432	; 0x2000000
 8000bbe:	bf3c      	itt	cc
 8000bc0:	f500 0000 	addcc.w	r0, r0, #8388608	; 0x800000
 8000bc4:	4770      	bxcc	lr
 8000bc6:	f000 4300 	and.w	r3, r0, #2147483648	; 0x80000000
 8000bca:	f043 40fe 	orr.w	r0, r3, #2130706432	; 0x7f000000
 8000bce:	f440 0000 	orr.w	r0, r0, #8388608	; 0x800000
 8000bd2:	4770      	bx	lr
 8000bd4:	ea7f 6222 	mvns.w	r2, r2, asr #24
 8000bd8:	bf16      	itet	ne
 8000bda:	4608      	movne	r0, r1
 8000bdc:	ea7f 6323 	mvnseq.w	r3, r3, asr #24
 8000be0:	4601      	movne	r1, r0
 8000be2:	0242      	lsls	r2, r0, #9
 8000be4:	bf06      	itte	eq
 8000be6:	ea5f 2341 	movseq.w	r3, r1, lsl #9
 8000bea:	ea90 0f01 	teqeq	r0, r1
 8000bee:	f440 0080 	orrne.w	r0, r0, #4194304	; 0x400000
 8000bf2:	4770      	bx	lr

08000bf4 <__aeabi_ui2f>:
 8000bf4:	f04f 0300 	mov.w	r3, #0
 8000bf8:	e004      	b.n	8000c04 <__aeabi_i2f+0x8>
 8000bfa:	bf00      	nop

08000bfc <__aeabi_i2f>:
 8000bfc:	f010 4300 	ands.w	r3, r0, #2147483648	; 0x80000000
 8000c00:	bf48      	it	mi
 8000c02:	4240      	negmi	r0, r0
 8000c04:	ea5f 0c00 	movs.w	ip, r0
 8000c08:	bf08      	it	eq
 8000c0a:	4770      	bxeq	lr
 8000c0c:	f043 4396 	orr.w	r3, r3, #1258291200	; 0x4b000000
 8000c10:	4601      	mov	r1, r0
 8000c12:	f04f 0000 	mov.w	r0, #0
 8000c16:	e01c      	b.n	8000c52 <__aeabi_l2f+0x2a>

08000c18 <__aeabi_ul2f>:
 8000c18:	ea50 0201 	orrs.w	r2, r0, r1
 8000c1c:	bf08      	it	eq
 8000c1e:	4770      	bxeq	lr
 8000c20:	f04f 0300 	mov.w	r3, #0
 8000c24:	e00a      	b.n	8000c3c <__aeabi_l2f+0x14>
 8000c26:	bf00      	nop

08000c28 <__aeabi_l2f>:
 8000c28:	ea50 0201 	orrs.w	r2, r0, r1
 8000c2c:	bf08      	it	eq
 8000c2e:	4770      	bxeq	lr
 8000c30:	f011 4300 	ands.w	r3, r1, #2147483648	; 0x80000000
 8000c34:	d502      	bpl.n	8000c3c <__aeabi_l2f+0x14>
 8000c36:	4240      	negs	r0, r0
 8000c38:	eb61 0141 	sbc.w	r1, r1, r1, lsl #1
 8000c3c:	ea5f 0c01 	movs.w	ip, r1
 8000c40:	bf02      	ittt	eq
 8000c42:	4684      	moveq	ip, r0
 8000c44:	4601      	moveq	r1, r0
 8000c46:	2000      	moveq	r0, #0
 8000c48:	f043 43b6 	orr.w	r3, r3, #1526726656	; 0x5b000000
 8000c4c:	bf08      	it	eq
 8000c4e:	f1a3 5380 	subeq.w	r3, r3, #268435456	; 0x10000000
 8000c52:	f5a3 0300 	sub.w	r3, r3, #8388608	; 0x800000
 8000c56:	fabc f28c 	clz	r2, ip
 8000c5a:	3a08      	subs	r2, #8
 8000c5c:	eba3 53c2 	sub.w	r3, r3, r2, lsl #23
 8000c60:	db10      	blt.n	8000c84 <__aeabi_l2f+0x5c>
 8000c62:	fa01 fc02 	lsl.w	ip, r1, r2
 8000c66:	4463      	add	r3, ip
 8000c68:	fa00 fc02 	lsl.w	ip, r0, r2
 8000c6c:	f1c2 0220 	rsb	r2, r2, #32
 8000c70:	f1bc 4f00 	cmp.w	ip, #2147483648	; 0x80000000
 8000c74:	fa20 f202 	lsr.w	r2, r0, r2
 8000c78:	eb43 0002 	adc.w	r0, r3, r2
 8000c7c:	bf08      	it	eq
 8000c7e:	f020 0001 	biceq.w	r0, r0, #1
 8000c82:	4770      	bx	lr
 8000c84:	f102 0220 	add.w	r2, r2, #32
 8000c88:	fa01 fc02 	lsl.w	ip, r1, r2
 8000c8c:	f1c2 0220 	rsb	r2, r2, #32
 8000c90:	ea50 004c 	orrs.w	r0, r0, ip, lsl #1
 8000c94:	fa21 f202 	lsr.w	r2, r1, r2
 8000c98:	eb43 0002 	adc.w	r0, r3, r2
 8000c9c:	bf08      	it	eq
 8000c9e:	ea20 70dc 	biceq.w	r0, r0, ip, lsr #31
 8000ca2:	4770      	bx	lr

08000ca4 <__aeabi_fmul>:
 8000ca4:	f04f 0cff 	mov.w	ip, #255	; 0xff
 8000ca8:	ea1c 52d0 	ands.w	r2, ip, r0, lsr #23
 8000cac:	bf1e      	ittt	ne
 8000cae:	ea1c 53d1 	andsne.w	r3, ip, r1, lsr #23
 8000cb2:	ea92 0f0c 	teqne	r2, ip
 8000cb6:	ea93 0f0c 	teqne	r3, ip
 8000cba:	d06f      	beq.n	8000d9c <__aeabi_fmul+0xf8>
 8000cbc:	441a      	add	r2, r3
 8000cbe:	ea80 0c01 	eor.w	ip, r0, r1
 8000cc2:	0240      	lsls	r0, r0, #9
 8000cc4:	bf18      	it	ne
 8000cc6:	ea5f 2141 	movsne.w	r1, r1, lsl #9
 8000cca:	d01e      	beq.n	8000d0a <__aeabi_fmul+0x66>
 8000ccc:	f04f 6300 	mov.w	r3, #134217728	; 0x8000000
 8000cd0:	ea43 1050 	orr.w	r0, r3, r0, lsr #5
 8000cd4:	ea43 1151 	orr.w	r1, r3, r1, lsr #5
 8000cd8:	fba0 3101 	umull	r3, r1, r0, r1
 8000cdc:	f00c 4000 	and.w	r0, ip, #2147483648	; 0x80000000
 8000ce0:	f5b1 0f00 	cmp.w	r1, #8388608	; 0x800000
 8000ce4:	bf3e      	ittt	cc
 8000ce6:	0049      	lslcc	r1, r1, #1
 8000ce8:	ea41 71d3 	orrcc.w	r1, r1, r3, lsr #31
 8000cec:	005b      	lslcc	r3, r3, #1
 8000cee:	ea40 0001 	orr.w	r0, r0, r1
 8000cf2:	f162 027f 	sbc.w	r2, r2, #127	; 0x7f
 8000cf6:	2afd      	cmp	r2, #253	; 0xfd
 8000cf8:	d81d      	bhi.n	8000d36 <__aeabi_fmul+0x92>
 8000cfa:	f1b3 4f00 	cmp.w	r3, #2147483648	; 0x80000000
 8000cfe:	eb40 50c2 	adc.w	r0, r0, r2, lsl #23
 8000d02:	bf08      	it	eq
 8000d04:	f020 0001 	biceq.w	r0, r0, #1
 8000d08:	4770      	bx	lr
 8000d0a:	f090 0f00 	teq	r0, #0
 8000d0e:	f00c 4c00 	and.w	ip, ip, #2147483648	; 0x80000000
 8000d12:	bf08      	it	eq
 8000d14:	0249      	lsleq	r1, r1, #9
 8000d16:	ea4c 2050 	orr.w	r0, ip, r0, lsr #9
 8000d1a:	ea40 2051 	orr.w	r0, r0, r1, lsr #9
 8000d1e:	3a7f      	subs	r2, #127	; 0x7f
 8000d20:	bfc2      	ittt	gt
 8000d22:	f1d2 03ff 	rsbsgt	r3, r2, #255	; 0xff
 8000d26:	ea40 50c2 	orrgt.w	r0, r0, r2, lsl #23
 8000d2a:	4770      	bxgt	lr
 8000d2c:	f440 0000 	orr.w	r0, r0, #8388608	; 0x800000
 8000d30:	f04f 0300 	mov.w	r3, #0
 8000d34:	3a01      	subs	r2, #1
 8000d36:	dc5d      	bgt.n	8000df4 <__aeabi_fmul+0x150>
 8000d38:	f112 0f19 	cmn.w	r2, #25
 8000d3c:	bfdc      	itt	le
 8000d3e:	f000 4000 	andle.w	r0, r0, #2147483648	; 0x80000000
 8000d42:	4770      	bxle	lr
 8000d44:	f1c2 0200 	rsb	r2, r2, #0
 8000d48:	0041      	lsls	r1, r0, #1
 8000d4a:	fa21 f102 	lsr.w	r1, r1, r2
 8000d4e:	f1c2 0220 	rsb	r2, r2, #32
 8000d52:	fa00 fc02 	lsl.w	ip, r0, r2
 8000d56:	ea5f 0031 	movs.w	r0, r1, rrx
 8000d5a:	f140 0000 	adc.w	r0, r0, #0
 8000d5e:	ea53 034c 	orrs.w	r3, r3, ip, lsl #1
 8000d62:	bf08      	it	eq
 8000d64:	ea20 70dc 	biceq.w	r0, r0, ip, lsr #31
 8000d68:	4770      	bx	lr
 8000d6a:	f092 0f00 	teq	r2, #0
 8000d6e:	f000 4c00 	and.w	ip, r0, #2147483648	; 0x80000000
 8000d72:	bf02      	ittt	eq
 8000d74:	0040      	lsleq	r0, r0, #1
 8000d76:	f410 0f00 	tsteq.w	r0, #8388608	; 0x800000
 8000d7a:	3a01      	subeq	r2, #1
 8000d7c:	d0f9      	beq.n	8000d72 <__aeabi_fmul+0xce>
 8000d7e:	ea40 000c 	orr.w	r0, r0, ip
 8000d82:	f093 0f00 	teq	r3, #0
 8000d86:	f001 4c00 	and.w	ip, r1, #2147483648	; 0x80000000
 8000d8a:	bf02      	ittt	eq
 8000d8c:	0049      	lsleq	r1, r1, #1
 8000d8e:	f411 0f00 	tsteq.w	r1, #8388608	; 0x800000
 8000d92:	3b01      	subeq	r3, #1
 8000d94:	d0f9      	beq.n	8000d8a <__aeabi_fmul+0xe6>
 8000d96:	ea41 010c 	orr.w	r1, r1, ip
 8000d9a:	e78f      	b.n	8000cbc <__aeabi_fmul+0x18>
 8000d9c:	ea0c 53d1 	and.w	r3, ip, r1, lsr #23
 8000da0:	ea92 0f0c 	teq	r2, ip
 8000da4:	bf18      	it	ne
 8000da6:	ea93 0f0c 	teqne	r3, ip
 8000daa:	d00a      	beq.n	8000dc2 <__aeabi_fmul+0x11e>
 8000dac:	f030 4c00 	bics.w	ip, r0, #2147483648	; 0x80000000
 8000db0:	bf18      	it	ne
 8000db2:	f031 4c00 	bicsne.w	ip, r1, #2147483648	; 0x80000000
 8000db6:	d1d8      	bne.n	8000d6a <__aeabi_fmul+0xc6>
 8000db8:	ea80 0001 	eor.w	r0, r0, r1
 8000dbc:	f000 4000 	and.w	r0, r0, #2147483648	; 0x80000000
 8000dc0:	4770      	bx	lr
 8000dc2:	f090 0f00 	teq	r0, #0
 8000dc6:	bf17      	itett	ne
 8000dc8:	f090 4f00 	teqne	r0, #2147483648	; 0x80000000
 8000dcc:	4608      	moveq	r0, r1
 8000dce:	f091 0f00 	teqne	r1, #0
 8000dd2:	f091 4f00 	teqne	r1, #2147483648	; 0x80000000
 8000dd6:	d014      	beq.n	8000e02 <__aeabi_fmul+0x15e>
 8000dd8:	ea92 0f0c 	teq	r2, ip
 8000ddc:	d101      	bne.n	8000de2 <__aeabi_fmul+0x13e>
 8000dde:	0242      	lsls	r2, r0, #9
 8000de0:	d10f      	bne.n	8000e02 <__aeabi_fmul+0x15e>
 8000de2:	ea93 0f0c 	teq	r3, ip
 8000de6:	d103      	bne.n	8000df0 <__aeabi_fmul+0x14c>
 8000de8:	024b      	lsls	r3, r1, #9
 8000dea:	bf18      	it	ne
 8000dec:	4608      	movne	r0, r1
 8000dee:	d108      	bne.n	8000e02 <__aeabi_fmul+0x15e>
 8000df0:	ea80 0001 	eor.w	r0, r0, r1
 8000df4:	f000 4000 	and.w	r0, r0, #2147483648	; 0x80000000
 8000df8:	f040 40fe 	orr.w	r0, r0, #2130706432	; 0x7f000000
 8000dfc:	f440 0000 	orr.w	r0, r0, #8388608	; 0x800000
 8000e00:	4770      	bx	lr
 8000e02:	f040 40fe 	orr.w	r0, r0, #2130706432	; 0x7f000000
 8000e06:	f440 0040 	orr.w	r0, r0, #12582912	; 0xc00000
 8000e0a:	4770      	bx	lr

08000e0c <__aeabi_fdiv>:
 8000e0c:	f04f 0cff 	mov.w	ip, #255	; 0xff
 8000e10:	ea1c 52d0 	ands.w	r2, ip, r0, lsr #23
 8000e14:	bf1e      	ittt	ne
 8000e16:	ea1c 53d1 	andsne.w	r3, ip, r1, lsr #23
 8000e1a:	ea92 0f0c 	teqne	r2, ip
 8000e1e:	ea93 0f0c 	teqne	r3, ip
 8000e22:	d069      	beq.n	8000ef8 <__aeabi_fdiv+0xec>
 8000e24:	eba2 0203 	sub.w	r2, r2, r3
 8000e28:	ea80 0c01 	eor.w	ip, r0, r1
 8000e2c:	0249      	lsls	r1, r1, #9
 8000e2e:	ea4f 2040 	mov.w	r0, r0, lsl #9
 8000e32:	d037      	beq.n	8000ea4 <__aeabi_fdiv+0x98>
 8000e34:	f04f 5380 	mov.w	r3, #268435456	; 0x10000000
 8000e38:	ea43 1111 	orr.w	r1, r3, r1, lsr #4
 8000e3c:	ea43 1310 	orr.w	r3, r3, r0, lsr #4
 8000e40:	f00c 4000 	and.w	r0, ip, #2147483648	; 0x80000000
 8000e44:	428b      	cmp	r3, r1
 8000e46:	bf38      	it	cc
 8000e48:	005b      	lslcc	r3, r3, #1
 8000e4a:	f142 027d 	adc.w	r2, r2, #125	; 0x7d
 8000e4e:	f44f 0c00 	mov.w	ip, #8388608	; 0x800000
 8000e52:	428b      	cmp	r3, r1
 8000e54:	bf24      	itt	cs
 8000e56:	1a5b      	subcs	r3, r3, r1
 8000e58:	ea40 000c 	orrcs.w	r0, r0, ip
 8000e5c:	ebb3 0f51 	cmp.w	r3, r1, lsr #1
 8000e60:	bf24      	itt	cs
 8000e62:	eba3 0351 	subcs.w	r3, r3, r1, lsr #1
 8000e66:	ea40 005c 	orrcs.w	r0, r0, ip, lsr #1
 8000e6a:	ebb3 0f91 	cmp.w	r3, r1, lsr #2
 8000e6e:	bf24      	itt	cs
 8000e70:	eba3 0391 	subcs.w	r3, r3, r1, lsr #2
 8000e74:	ea40 009c 	orrcs.w	r0, r0, ip, lsr #2
 8000e78:	ebb3 0fd1 	cmp.w	r3, r1, lsr #3
 8000e7c:	bf24      	itt	cs
 8000e7e:	eba3 03d1 	subcs.w	r3, r3, r1, lsr #3
 8000e82:	ea40 00dc 	orrcs.w	r0, r0, ip, lsr #3
 8000e86:	011b      	lsls	r3, r3, #4
 8000e88:	bf18      	it	ne
 8000e8a:	ea5f 1c1c 	movsne.w	ip, ip, lsr #4
 8000e8e:	d1e0      	bne.n	8000e52 <__aeabi_fdiv+0x46>
 8000e90:	2afd      	cmp	r2, #253	; 0xfd
 8000e92:	f63f af50 	bhi.w	8000d36 <__aeabi_fmul+0x92>
 8000e96:	428b      	cmp	r3, r1
 8000e98:	eb40 50c2 	adc.w	r0, r0, r2, lsl #23
 8000e9c:	bf08      	it	eq
 8000e9e:	f020 0001 	biceq.w	r0, r0, #1
 8000ea2:	4770      	bx	lr
 8000ea4:	f00c 4c00 	and.w	ip, ip, #2147483648	; 0x80000000
 8000ea8:	ea4c 2050 	orr.w	r0, ip, r0, lsr #9
 8000eac:	327f      	adds	r2, #127	; 0x7f
 8000eae:	bfc2      	ittt	gt
 8000eb0:	f1d2 03ff 	rsbsgt	r3, r2, #255	; 0xff
 8000eb4:	ea40 50c2 	orrgt.w	r0, r0, r2, lsl #23
 8000eb8:	4770      	bxgt	lr
 8000eba:	f440 0000 	orr.w	r0, r0, #8388608	; 0x800000
 8000ebe:	f04f 0300 	mov.w	r3, #0
 8000ec2:	3a01      	subs	r2, #1
 8000ec4:	e737      	b.n	8000d36 <__aeabi_fmul+0x92>
 8000ec6:	f092 0f00 	teq	r2, #0
 8000eca:	f000 4c00 	and.w	ip, r0, #2147483648	; 0x80000000
 8000ece:	bf02      	ittt	eq
 8000ed0:	0040      	lsleq	r0, r0, #1
 8000ed2:	f410 0f00 	tsteq.w	r0, #8388608	; 0x800000
 8000ed6:	3a01      	subeq	r2, #1
 8000ed8:	d0f9      	beq.n	8000ece <__aeabi_fdiv+0xc2>
 8000eda:	ea40 000c 	orr.w	r0, r0, ip
 8000ede:	f093 0f00 	teq	r3, #0
 8000ee2:	f001 4c00 	and.w	ip, r1, #2147483648	; 0x80000000
 8000ee6:	bf02      	ittt	eq
 8000ee8:	0049      	lsleq	r1, r1, #1
 8000eea:	f411 0f00 	tsteq.w	r1, #8388608	; 0x800000
 8000eee:	3b01      	subeq	r3, #1
 8000ef0:	d0f9      	beq.n	8000ee6 <__aeabi_fdiv+0xda>
 8000ef2:	ea41 010c 	orr.w	r1, r1, ip
 8000ef6:	e795      	b.n	8000e24 <__aeabi_fdiv+0x18>
 8000ef8:	ea0c 53d1 	and.w	r3, ip, r1, lsr #23
 8000efc:	ea92 0f0c 	teq	r2, ip
 8000f00:	d108      	bne.n	8000f14 <__aeabi_fdiv+0x108>
 8000f02:	0242      	lsls	r2, r0, #9
 8000f04:	f47f af7d 	bne.w	8000e02 <__aeabi_fmul+0x15e>
 8000f08:	ea93 0f0c 	teq	r3, ip
 8000f0c:	f47f af70 	bne.w	8000df0 <__aeabi_fmul+0x14c>
 8000f10:	4608      	mov	r0, r1
 8000f12:	e776      	b.n	8000e02 <__aeabi_fmul+0x15e>
 8000f14:	ea93 0f0c 	teq	r3, ip
 8000f18:	d104      	bne.n	8000f24 <__aeabi_fdiv+0x118>
 8000f1a:	024b      	lsls	r3, r1, #9
 8000f1c:	f43f af4c 	beq.w	8000db8 <__aeabi_fmul+0x114>
 8000f20:	4608      	mov	r0, r1
 8000f22:	e76e      	b.n	8000e02 <__aeabi_fmul+0x15e>
 8000f24:	f030 4c00 	bics.w	ip, r0, #2147483648	; 0x80000000
 8000f28:	bf18      	it	ne
 8000f2a:	f031 4c00 	bicsne.w	ip, r1, #2147483648	; 0x80000000
 8000f2e:	d1ca      	bne.n	8000ec6 <__aeabi_fdiv+0xba>
 8000f30:	f030 4200 	bics.w	r2, r0, #2147483648	; 0x80000000
 8000f34:	f47f af5c 	bne.w	8000df0 <__aeabi_fmul+0x14c>
 8000f38:	f031 4300 	bics.w	r3, r1, #2147483648	; 0x80000000
 8000f3c:	f47f af3c 	bne.w	8000db8 <__aeabi_fmul+0x114>
 8000f40:	e75f      	b.n	8000e02 <__aeabi_fmul+0x15e>
 8000f42:	bf00      	nop

08000f44 <__gesf2>:
 8000f44:	f04f 3cff 	mov.w	ip, #4294967295
 8000f48:	e006      	b.n	8000f58 <__cmpsf2+0x4>
 8000f4a:	bf00      	nop

08000f4c <__lesf2>:
 8000f4c:	f04f 0c01 	mov.w	ip, #1
 8000f50:	e002      	b.n	8000f58 <__cmpsf2+0x4>
 8000f52:	bf00      	nop

08000f54 <__cmpsf2>:
 8000f54:	f04f 0c01 	mov.w	ip, #1
 8000f58:	f84d cd04 	str.w	ip, [sp, #-4]!
 8000f5c:	ea4f 0240 	mov.w	r2, r0, lsl #1
 8000f60:	ea4f 0341 	mov.w	r3, r1, lsl #1
 8000f64:	ea7f 6c22 	mvns.w	ip, r2, asr #24
 8000f68:	bf18      	it	ne
 8000f6a:	ea7f 6c23 	mvnsne.w	ip, r3, asr #24
 8000f6e:	d011      	beq.n	8000f94 <__cmpsf2+0x40>
 8000f70:	b001      	add	sp, #4
 8000f72:	ea52 0c53 	orrs.w	ip, r2, r3, lsr #1
 8000f76:	bf18      	it	ne
 8000f78:	ea90 0f01 	teqne	r0, r1
 8000f7c:	bf58      	it	pl
 8000f7e:	ebb2 0003 	subspl.w	r0, r2, r3
 8000f82:	bf88      	it	hi
 8000f84:	17c8      	asrhi	r0, r1, #31
 8000f86:	bf38      	it	cc
 8000f88:	ea6f 70e1 	mvncc.w	r0, r1, asr #31
 8000f8c:	bf18      	it	ne
 8000f8e:	f040 0001 	orrne.w	r0, r0, #1
 8000f92:	4770      	bx	lr
 8000f94:	ea7f 6c22 	mvns.w	ip, r2, asr #24
 8000f98:	d102      	bne.n	8000fa0 <__cmpsf2+0x4c>
 8000f9a:	ea5f 2c40 	movs.w	ip, r0, lsl #9
 8000f9e:	d105      	bne.n	8000fac <__cmpsf2+0x58>
 8000fa0:	ea7f 6c23 	mvns.w	ip, r3, asr #24
 8000fa4:	d1e4      	bne.n	8000f70 <__cmpsf2+0x1c>
 8000fa6:	ea5f 2c41 	movs.w	ip, r1, lsl #9
 8000faa:	d0e1      	beq.n	8000f70 <__cmpsf2+0x1c>
 8000fac:	f85d 0b04 	ldr.w	r0, [sp], #4
 8000fb0:	4770      	bx	lr
 8000fb2:	bf00      	nop

08000fb4 <__aeabi_cfrcmple>:
 8000fb4:	4684      	mov	ip, r0
 8000fb6:	4608      	mov	r0, r1
 8000fb8:	4661      	mov	r1, ip
 8000fba:	e7ff      	b.n	8000fbc <__aeabi_cfcmpeq>

08000fbc <__aeabi_cfcmpeq>:
 8000fbc:	b50f      	push	{r0, r1, r2, r3, lr}
 8000fbe:	f7ff ffc9 	bl	8000f54 <__cmpsf2>
 8000fc2:	2800      	cmp	r0, #0
 8000fc4:	bf48      	it	mi
 8000fc6:	f110 0f00 	cmnmi.w	r0, #0
 8000fca:	bd0f      	pop	{r0, r1, r2, r3, pc}

08000fcc <__aeabi_fcmpeq>:
 8000fcc:	f84d ed08 	str.w	lr, [sp, #-8]!
 8000fd0:	f7ff fff4 	bl	8000fbc <__aeabi_cfcmpeq>
 8000fd4:	bf0c      	ite	eq
 8000fd6:	2001      	moveq	r0, #1
 8000fd8:	2000      	movne	r0, #0
 8000fda:	f85d fb08 	ldr.w	pc, [sp], #8
 8000fde:	bf00      	nop

08000fe0 <__aeabi_fcmplt>:
 8000fe0:	f84d ed08 	str.w	lr, [sp, #-8]!
 8000fe4:	f7ff ffea 	bl	8000fbc <__aeabi_cfcmpeq>
 8000fe8:	bf34      	ite	cc
 8000fea:	2001      	movcc	r0, #1
 8000fec:	2000      	movcs	r0, #0
 8000fee:	f85d fb08 	ldr.w	pc, [sp], #8
 8000ff2:	bf00      	nop

08000ff4 <__aeabi_fcmple>:
 8000ff4:	f84d ed08 	str.w	lr, [sp, #-8]!
 8000ff8:	f7ff ffe0 	bl	8000fbc <__aeabi_cfcmpeq>
 8000ffc:	bf94      	ite	ls
 8000ffe:	2001      	movls	r0, #1
 8001000:	2000      	movhi	r0, #0
 8001002:	f85d fb08 	ldr.w	pc, [sp], #8
 8001006:	bf00      	nop

08001008 <__aeabi_fcmpge>:
 8001008:	f84d ed08 	str.w	lr, [sp, #-8]!
 800100c:	f7ff ffd2 	bl	8000fb4 <__aeabi_cfrcmple>
 8001010:	bf94      	ite	ls
 8001012:	2001      	movls	r0, #1
 8001014:	2000      	movhi	r0, #0
 8001016:	f85d fb08 	ldr.w	pc, [sp], #8
 800101a:	bf00      	nop

0800101c <__aeabi_fcmpgt>:
 800101c:	f84d ed08 	str.w	lr, [sp, #-8]!
 8001020:	f7ff ffc8 	bl	8000fb4 <__aeabi_cfrcmple>
 8001024:	bf34      	ite	cc
 8001026:	2001      	movcc	r0, #1
 8001028:	2000      	movcs	r0, #0
 800102a:	f85d fb08 	ldr.w	pc, [sp], #8
 800102e:	bf00      	nop

08001030 <__aeabi_f2uiz>:
 8001030:	0042      	lsls	r2, r0, #1
 8001032:	d20e      	bcs.n	8001052 <__aeabi_f2uiz+0x22>
 8001034:	f1b2 4ffe 	cmp.w	r2, #2130706432	; 0x7f000000
 8001038:	d30b      	bcc.n	8001052 <__aeabi_f2uiz+0x22>
 800103a:	f04f 039e 	mov.w	r3, #158	; 0x9e
 800103e:	ebb3 6212 	subs.w	r2, r3, r2, lsr #24
 8001042:	d409      	bmi.n	8001058 <__aeabi_f2uiz+0x28>
 8001044:	ea4f 2300 	mov.w	r3, r0, lsl #8
 8001048:	f043 4300 	orr.w	r3, r3, #2147483648	; 0x80000000
 800104c:	fa23 f002 	lsr.w	r0, r3, r2
 8001050:	4770      	bx	lr
 8001052:	f04f 0000 	mov.w	r0, #0
 8001056:	4770      	bx	lr
 8001058:	f112 0f61 	cmn.w	r2, #97	; 0x61
 800105c:	d101      	bne.n	8001062 <__aeabi_f2uiz+0x32>
 800105e:	0242      	lsls	r2, r0, #9
 8001060:	d102      	bne.n	8001068 <__aeabi_f2uiz+0x38>
 8001062:	f04f 30ff 	mov.w	r0, #4294967295
 8001066:	4770      	bx	lr
 8001068:	f04f 0000 	mov.w	r0, #0
 800106c:	4770      	bx	lr
 800106e:	bf00      	nop

08001070 <LL_TIM_CC_EnableChannel>:
  *         @arg @ref LL_TIM_CHANNEL_CH3N
  *         @arg @ref LL_TIM_CHANNEL_CH4
  * @retval None
  */
__STATIC_INLINE void LL_TIM_CC_EnableChannel(TIM_TypeDef *TIMx, uint32_t Channels)
{
 8001070:	b480      	push	{r7}
 8001072:	b083      	sub	sp, #12
 8001074:	af00      	add	r7, sp, #0
 8001076:	6078      	str	r0, [r7, #4]
 8001078:	6039      	str	r1, [r7, #0]
  SET_BIT(TIMx->CCER, Channels);
 800107a:	687b      	ldr	r3, [r7, #4]
 800107c:	6a1a      	ldr	r2, [r3, #32]
 800107e:	683b      	ldr	r3, [r7, #0]
 8001080:	431a      	orrs	r2, r3
 8001082:	687b      	ldr	r3, [r7, #4]
 8001084:	621a      	str	r2, [r3, #32]
}
 8001086:	bf00      	nop
 8001088:	370c      	adds	r7, #12
 800108a:	46bd      	mov	sp, r7
 800108c:	bc80      	pop	{r7}
 800108e:	4770      	bx	lr

08001090 <LL_TIM_OC_SetCompareCH1>:
  * @param  TIMx Timer instance
  * @param  CompareValue between Min_Data=0 and Max_Data=65535
  * @retval None
  */
__STATIC_INLINE void LL_TIM_OC_SetCompareCH1(TIM_TypeDef *TIMx, uint32_t CompareValue)
{
 8001090:	b480      	push	{r7}
 8001092:	b083      	sub	sp, #12
 8001094:	af00      	add	r7, sp, #0
 8001096:	6078      	str	r0, [r7, #4]
 8001098:	6039      	str	r1, [r7, #0]
  WRITE_REG(TIMx->CCR1, CompareValue);
 800109a:	687b      	ldr	r3, [r7, #4]
 800109c:	683a      	ldr	r2, [r7, #0]
 800109e:	635a      	str	r2, [r3, #52]	; 0x34
}
 80010a0:	bf00      	nop
 80010a2:	370c      	adds	r7, #12
 80010a4:	46bd      	mov	sp, r7
 80010a6:	bc80      	pop	{r7}
 80010a8:	4770      	bx	lr

080010aa <LL_TIM_OC_SetCompareCH3>:
  * @param  TIMx Timer instance
  * @param  CompareValue between Min_Data=0 and Max_Data=65535
  * @retval None
  */
__STATIC_INLINE void LL_TIM_OC_SetCompareCH3(TIM_TypeDef *TIMx, uint32_t CompareValue)
{
 80010aa:	b480      	push	{r7}
 80010ac:	b083      	sub	sp, #12
 80010ae:	af00      	add	r7, sp, #0
 80010b0:	6078      	str	r0, [r7, #4]
 80010b2:	6039      	str	r1, [r7, #0]
  WRITE_REG(TIMx->CCR3, CompareValue);
 80010b4:	687b      	ldr	r3, [r7, #4]
 80010b6:	683a      	ldr	r2, [r7, #0]
 80010b8:	63da      	str	r2, [r3, #60]	; 0x3c
}
 80010ba:	bf00      	nop
 80010bc:	370c      	adds	r7, #12
 80010be:	46bd      	mov	sp, r7
 80010c0:	bc80      	pop	{r7}
 80010c2:	4770      	bx	lr

080010c4 <LL_GPIO_SetOutputPin>:
  *         @arg @ref LL_GPIO_PIN_15
  *         @arg @ref LL_GPIO_PIN_ALL
  * @retval None
  */
__STATIC_INLINE void LL_GPIO_SetOutputPin(GPIO_TypeDef *GPIOx, uint32_t PinMask)
{
 80010c4:	b480      	push	{r7}
 80010c6:	b083      	sub	sp, #12
 80010c8:	af00      	add	r7, sp, #0
 80010ca:	6078      	str	r0, [r7, #4]
 80010cc:	6039      	str	r1, [r7, #0]
  WRITE_REG(GPIOx->BSRR, (PinMask >> GPIO_PIN_MASK_POS) & 0x0000FFFFU);
 80010ce:	683b      	ldr	r3, [r7, #0]
 80010d0:	0a1b      	lsrs	r3, r3, #8
 80010d2:	b29a      	uxth	r2, r3
 80010d4:	687b      	ldr	r3, [r7, #4]
 80010d6:	611a      	str	r2, [r3, #16]
}
 80010d8:	bf00      	nop
 80010da:	370c      	adds	r7, #12
 80010dc:	46bd      	mov	sp, r7
 80010de:	bc80      	pop	{r7}
 80010e0:	4770      	bx	lr

080010e2 <LL_GPIO_ResetOutputPin>:
  *         @arg @ref LL_GPIO_PIN_15
  *         @arg @ref LL_GPIO_PIN_ALL
  * @retval None
  */
__STATIC_INLINE void LL_GPIO_ResetOutputPin(GPIO_TypeDef *GPIOx, uint32_t PinMask)
{
 80010e2:	b480      	push	{r7}
 80010e4:	b083      	sub	sp, #12
 80010e6:	af00      	add	r7, sp, #0
 80010e8:	6078      	str	r0, [r7, #4]
 80010ea:	6039      	str	r1, [r7, #0]
  WRITE_REG(GPIOx->BRR, (PinMask >> GPIO_PIN_MASK_POS) & 0x0000FFFFU);
 80010ec:	683b      	ldr	r3, [r7, #0]
 80010ee:	0a1b      	lsrs	r3, r3, #8
 80010f0:	b29a      	uxth	r2, r3
 80010f2:	687b      	ldr	r3, [r7, #4]
 80010f4:	615a      	str	r2, [r3, #20]
}
 80010f6:	bf00      	nop
 80010f8:	370c      	adds	r7, #12
 80010fa:	46bd      	mov	sp, r7
 80010fc:	bc80      	pop	{r7}
 80010fe:	4770      	bx	lr

08001100 <MotorL_EnablePWM>:
 *      Author: vanti
 */
#include "MotorControl.h"

void MotorL_EnablePWM(void)
{
 8001100:	b580      	push	{r7, lr}
 8001102:	af00      	add	r7, sp, #0
	LL_TIM_CC_EnableChannel(TIM1, LL_TIM_CHANNEL_CH1);
 8001104:	2101      	movs	r1, #1
 8001106:	4802      	ldr	r0, [pc, #8]	; (8001110 <MotorL_EnablePWM+0x10>)
 8001108:	f7ff ffb2 	bl	8001070 <LL_TIM_CC_EnableChannel>
}
 800110c:	bf00      	nop
 800110e:	bd80      	pop	{r7, pc}
 8001110:	40012c00 	.word	0x40012c00

08001114 <MotorR_EnablePWM>:
{
	LL_TIM_CC_DisableChannel(TIM1, LL_TIM_CHANNEL_CH1);
}

void MotorR_EnablePWM(void)
{
 8001114:	b580      	push	{r7, lr}
 8001116:	af00      	add	r7, sp, #0
	LL_TIM_CC_EnableChannel(TIM1, LL_TIM_CHANNEL_CH3);
 8001118:	f44f 7180 	mov.w	r1, #256	; 0x100
 800111c:	4802      	ldr	r0, [pc, #8]	; (8001128 <MotorR_EnablePWM+0x14>)
 800111e:	f7ff ffa7 	bl	8001070 <LL_TIM_CC_EnableChannel>
}
 8001122:	bf00      	nop
 8001124:	bd80      	pop	{r7, pc}
 8001126:	bf00      	nop
 8001128:	40012c00 	.word	0x40012c00

0800112c <MotorL_SetPWM>:
{
	LL_TIM_CC_EnableChannel(TIM1, LL_TIM_CHANNEL_CH1);
}

void MotorL_SetPWM(int32_t PWMVal) // PWM Val between 0-7200
{
 800112c:	b580      	push	{r7, lr}
 800112e:	b082      	sub	sp, #8
 8001130:	af00      	add	r7, sp, #0
 8001132:	6078      	str	r0, [r7, #4]
	if (PWMVal >= 7200)
 8001134:	687b      	ldr	r3, [r7, #4]
 8001136:	f5b3 5fe1 	cmp.w	r3, #7200	; 0x1c20
 800113a:	db03      	blt.n	8001144 <MotorL_SetPWM+0x18>
	{
		PWMVal = 7200;
 800113c:	f44f 53e1 	mov.w	r3, #7200	; 0x1c20
 8001140:	607b      	str	r3, [r7, #4]
 8001142:	e005      	b.n	8001150 <MotorL_SetPWM+0x24>
	}
	else if (PWMVal <= -7200)
 8001144:	687b      	ldr	r3, [r7, #4]
 8001146:	f513 5fe1 	cmn.w	r3, #7200	; 0x1c20
 800114a:	dc01      	bgt.n	8001150 <MotorL_SetPWM+0x24>
	{
		PWMVal = -7200;
 800114c:	4b0f      	ldr	r3, [pc, #60]	; (800118c <MotorL_SetPWM+0x60>)
 800114e:	607b      	str	r3, [r7, #4]
	}
	if (PWMVal >= 0)
 8001150:	687b      	ldr	r3, [r7, #4]
 8001152:	2b00      	cmp	r3, #0
 8001154:	db0a      	blt.n	800116c <MotorL_SetPWM+0x40>
	{
		LL_TIM_OC_SetCompareCH1(TIM1, (uint16_t)PWMVal);
 8001156:	687b      	ldr	r3, [r7, #4]
 8001158:	b29b      	uxth	r3, r3
 800115a:	4619      	mov	r1, r3
 800115c:	480c      	ldr	r0, [pc, #48]	; (8001190 <MotorL_SetPWM+0x64>)
 800115e:	f7ff ff97 	bl	8001090 <LL_TIM_OC_SetCompareCH1>
		LL_GPIO_ResetOutputPin(GPIOB, LL_GPIO_PIN_15);
 8001162:	490c      	ldr	r1, [pc, #48]	; (8001194 <MotorL_SetPWM+0x68>)
 8001164:	480c      	ldr	r0, [pc, #48]	; (8001198 <MotorL_SetPWM+0x6c>)
 8001166:	f7ff ffbc 	bl	80010e2 <LL_GPIO_ResetOutputPin>
	else
	{
		LL_TIM_OC_SetCompareCH1(TIM1, 7200 + PWMVal);
		LL_GPIO_SetOutputPin(GPIOB, LL_GPIO_PIN_15);
	}
}
 800116a:	e00a      	b.n	8001182 <MotorL_SetPWM+0x56>
		LL_TIM_OC_SetCompareCH1(TIM1, 7200 + PWMVal);
 800116c:	687b      	ldr	r3, [r7, #4]
 800116e:	f503 53e1 	add.w	r3, r3, #7200	; 0x1c20
 8001172:	4619      	mov	r1, r3
 8001174:	4806      	ldr	r0, [pc, #24]	; (8001190 <MotorL_SetPWM+0x64>)
 8001176:	f7ff ff8b 	bl	8001090 <LL_TIM_OC_SetCompareCH1>
		LL_GPIO_SetOutputPin(GPIOB, LL_GPIO_PIN_15);
 800117a:	4906      	ldr	r1, [pc, #24]	; (8001194 <MotorL_SetPWM+0x68>)
 800117c:	4806      	ldr	r0, [pc, #24]	; (8001198 <MotorL_SetPWM+0x6c>)
 800117e:	f7ff ffa1 	bl	80010c4 <LL_GPIO_SetOutputPin>
}
 8001182:	bf00      	nop
 8001184:	3708      	adds	r7, #8
 8001186:	46bd      	mov	sp, r7
 8001188:	bd80      	pop	{r7, pc}
 800118a:	bf00      	nop
 800118c:	ffffe3e0 	.word	0xffffe3e0
 8001190:	40012c00 	.word	0x40012c00
 8001194:	04800080 	.word	0x04800080
 8001198:	40010c00 	.word	0x40010c00

0800119c <MotorR_SetPWM>:
void MotorR_SetPWM(int32_t PWMVal) // PWM Val between 0-7200
{
 800119c:	b580      	push	{r7, lr}
 800119e:	b082      	sub	sp, #8
 80011a0:	af00      	add	r7, sp, #0
 80011a2:	6078      	str	r0, [r7, #4]
	if (PWMVal >= 7200)
 80011a4:	687b      	ldr	r3, [r7, #4]
 80011a6:	f5b3 5fe1 	cmp.w	r3, #7200	; 0x1c20
 80011aa:	db03      	blt.n	80011b4 <MotorR_SetPWM+0x18>
	{
		PWMVal = 7200;
 80011ac:	f44f 53e1 	mov.w	r3, #7200	; 0x1c20
 80011b0:	607b      	str	r3, [r7, #4]
 80011b2:	e005      	b.n	80011c0 <MotorR_SetPWM+0x24>
	}
	else if (PWMVal <= -7200)
 80011b4:	687b      	ldr	r3, [r7, #4]
 80011b6:	f513 5fe1 	cmn.w	r3, #7200	; 0x1c20
 80011ba:	dc01      	bgt.n	80011c0 <MotorR_SetPWM+0x24>
	{
		PWMVal = -7200;
 80011bc:	4b0f      	ldr	r3, [pc, #60]	; (80011fc <MotorR_SetPWM+0x60>)
 80011be:	607b      	str	r3, [r7, #4]
	}
	if (PWMVal >= 0)
 80011c0:	687b      	ldr	r3, [r7, #4]
 80011c2:	2b00      	cmp	r3, #0
 80011c4:	db0a      	blt.n	80011dc <MotorR_SetPWM+0x40>
	{
		LL_TIM_OC_SetCompareCH3(TIM1, (uint16_t)PWMVal);
 80011c6:	687b      	ldr	r3, [r7, #4]
 80011c8:	b29b      	uxth	r3, r3
 80011ca:	4619      	mov	r1, r3
 80011cc:	480c      	ldr	r0, [pc, #48]	; (8001200 <MotorR_SetPWM+0x64>)
 80011ce:	f7ff ff6c 	bl	80010aa <LL_TIM_OC_SetCompareCH3>
		LL_GPIO_ResetOutputPin(GPIOA, LL_GPIO_PIN_9);
 80011d2:	490c      	ldr	r1, [pc, #48]	; (8001204 <MotorR_SetPWM+0x68>)
 80011d4:	480c      	ldr	r0, [pc, #48]	; (8001208 <MotorR_SetPWM+0x6c>)
 80011d6:	f7ff ff84 	bl	80010e2 <LL_GPIO_ResetOutputPin>
	else
	{
		LL_TIM_OC_SetCompareCH3(TIM1, 7200 + PWMVal);
		LL_GPIO_SetOutputPin(GPIOA, LL_GPIO_PIN_9);
	}
}
 80011da:	e00a      	b.n	80011f2 <MotorR_SetPWM+0x56>
		LL_TIM_OC_SetCompareCH3(TIM1, 7200 + PWMVal);
 80011dc:	687b      	ldr	r3, [r7, #4]
 80011de:	f503 53e1 	add.w	r3, r3, #7200	; 0x1c20
 80011e2:	4619      	mov	r1, r3
 80011e4:	4806      	ldr	r0, [pc, #24]	; (8001200 <MotorR_SetPWM+0x64>)
 80011e6:	f7ff ff60 	bl	80010aa <LL_TIM_OC_SetCompareCH3>
		LL_GPIO_SetOutputPin(GPIOA, LL_GPIO_PIN_9);
 80011ea:	4906      	ldr	r1, [pc, #24]	; (8001204 <MotorR_SetPWM+0x68>)
 80011ec:	4806      	ldr	r0, [pc, #24]	; (8001208 <MotorR_SetPWM+0x6c>)
 80011ee:	f7ff ff69 	bl	80010c4 <LL_GPIO_SetOutputPin>
}
 80011f2:	bf00      	nop
 80011f4:	3708      	adds	r7, #8
 80011f6:	46bd      	mov	sp, r7
 80011f8:	bd80      	pop	{r7, pc}
 80011fa:	bf00      	nop
 80011fc:	ffffe3e0 	.word	0xffffe3e0
 8001200:	40012c00 	.word	0x40012c00
 8001204:	04020002 	.word	0x04020002
 8001208:	40010800 	.word	0x40010800

0800120c <Servo_SetAngle>:
{
	LL_TIM_OC_SetCompareCH1(TIM1, 7200);
	LL_GPIO_SetOutputPin(GPIOA, LL_GPIO_PIN_9);
}
void Servo_SetAngle(float ServoAngle)
{
 800120c:	b580      	push	{r7, lr}
 800120e:	b082      	sub	sp, #8
 8001210:	af00      	add	r7, sp, #0
 8001212:	6078      	str	r0, [r7, #4]

	if (ServoAngle > 90)
 8001214:	4916      	ldr	r1, [pc, #88]	; (8001270 <Servo_SetAngle+0x64>)
 8001216:	6878      	ldr	r0, [r7, #4]
 8001218:	f7ff ff00 	bl	800101c <__aeabi_fcmpgt>
 800121c:	4603      	mov	r3, r0
 800121e:	2b00      	cmp	r3, #0
 8001220:	d002      	beq.n	8001228 <Servo_SetAngle+0x1c>
		ServoAngle = 90;
 8001222:	4b13      	ldr	r3, [pc, #76]	; (8001270 <Servo_SetAngle+0x64>)
 8001224:	607b      	str	r3, [r7, #4]
 8001226:	e008      	b.n	800123a <Servo_SetAngle+0x2e>
	else if (ServoAngle < -90)
 8001228:	4912      	ldr	r1, [pc, #72]	; (8001274 <Servo_SetAngle+0x68>)
 800122a:	6878      	ldr	r0, [r7, #4]
 800122c:	f7ff fed8 	bl	8000fe0 <__aeabi_fcmplt>
 8001230:	4603      	mov	r3, r0
 8001232:	2b00      	cmp	r3, #0
 8001234:	d001      	beq.n	800123a <Servo_SetAngle+0x2e>
		ServoAngle = -90;
 8001236:	4b0f      	ldr	r3, [pc, #60]	; (8001274 <Servo_SetAngle+0x68>)
 8001238:	607b      	str	r3, [r7, #4]
	//	uint16_t ServoCPR = 540 + ServoAngle*2;
	LL_TIM_OC_SetCompareCH1(TIM4, 4600 + ServoAngle * 50 / 3);
 800123a:	490f      	ldr	r1, [pc, #60]	; (8001278 <Servo_SetAngle+0x6c>)
 800123c:	6878      	ldr	r0, [r7, #4]
 800123e:	f7ff fd31 	bl	8000ca4 <__aeabi_fmul>
 8001242:	4603      	mov	r3, r0
 8001244:	490d      	ldr	r1, [pc, #52]	; (800127c <Servo_SetAngle+0x70>)
 8001246:	4618      	mov	r0, r3
 8001248:	f7ff fde0 	bl	8000e0c <__aeabi_fdiv>
 800124c:	4603      	mov	r3, r0
 800124e:	490c      	ldr	r1, [pc, #48]	; (8001280 <Servo_SetAngle+0x74>)
 8001250:	4618      	mov	r0, r3
 8001252:	f7ff fc1f 	bl	8000a94 <__addsf3>
 8001256:	4603      	mov	r3, r0
 8001258:	4618      	mov	r0, r3
 800125a:	f7ff fee9 	bl	8001030 <__aeabi_f2uiz>
 800125e:	4603      	mov	r3, r0
 8001260:	4619      	mov	r1, r3
 8001262:	4808      	ldr	r0, [pc, #32]	; (8001284 <Servo_SetAngle+0x78>)
 8001264:	f7ff ff14 	bl	8001090 <LL_TIM_OC_SetCompareCH1>
}
 8001268:	bf00      	nop
 800126a:	3708      	adds	r7, #8
 800126c:	46bd      	mov	sp, r7
 800126e:	bd80      	pop	{r7, pc}
 8001270:	42b40000 	.word	0x42b40000
 8001274:	c2b40000 	.word	0xc2b40000
 8001278:	42480000 	.word	0x42480000
 800127c:	40400000 	.word	0x40400000
 8001280:	458fc000 	.word	0x458fc000
 8001284:	40000800 	.word	0x40000800

08001288 <__NVIC_SetPriorityGrouping>:
           In case of a conflict between priority grouping and available
           priority bits (__NVIC_PRIO_BITS), the smallest possible priority group is set.
  \param [in]      PriorityGroup  Priority grouping field.
 */
__STATIC_INLINE void __NVIC_SetPriorityGrouping(uint32_t PriorityGroup)
{
 8001288:	b480      	push	{r7}
 800128a:	b085      	sub	sp, #20
 800128c:	af00      	add	r7, sp, #0
 800128e:	6078      	str	r0, [r7, #4]
  uint32_t reg_value;
  uint32_t PriorityGroupTmp = (PriorityGroup & (uint32_t)0x07UL);             /* only values 0..7 are used          */
 8001290:	687b      	ldr	r3, [r7, #4]
 8001292:	f003 0307 	and.w	r3, r3, #7
 8001296:	60fb      	str	r3, [r7, #12]

  reg_value  =  SCB->AIRCR;                                                   /* read old register configuration    */
 8001298:	4b0c      	ldr	r3, [pc, #48]	; (80012cc <__NVIC_SetPriorityGrouping+0x44>)
 800129a:	68db      	ldr	r3, [r3, #12]
 800129c:	60bb      	str	r3, [r7, #8]
  reg_value &= ~((uint32_t)(SCB_AIRCR_VECTKEY_Msk | SCB_AIRCR_PRIGROUP_Msk)); /* clear bits to change               */
 800129e:	68ba      	ldr	r2, [r7, #8]
 80012a0:	f64f 03ff 	movw	r3, #63743	; 0xf8ff
 80012a4:	4013      	ands	r3, r2
 80012a6:	60bb      	str	r3, [r7, #8]
  reg_value  =  (reg_value                                   |
                ((uint32_t)0x5FAUL << SCB_AIRCR_VECTKEY_Pos) |
                (PriorityGroupTmp << SCB_AIRCR_PRIGROUP_Pos) );               /* Insert write key and priority group */
 80012a8:	68fb      	ldr	r3, [r7, #12]
 80012aa:	021a      	lsls	r2, r3, #8
                ((uint32_t)0x5FAUL << SCB_AIRCR_VECTKEY_Pos) |
 80012ac:	68bb      	ldr	r3, [r7, #8]
 80012ae:	4313      	orrs	r3, r2
  reg_value  =  (reg_value                                   |
 80012b0:	f043 63bf 	orr.w	r3, r3, #100139008	; 0x5f80000
 80012b4:	f443 3300 	orr.w	r3, r3, #131072	; 0x20000
 80012b8:	60bb      	str	r3, [r7, #8]
  SCB->AIRCR =  reg_value;
 80012ba:	4a04      	ldr	r2, [pc, #16]	; (80012cc <__NVIC_SetPriorityGrouping+0x44>)
 80012bc:	68bb      	ldr	r3, [r7, #8]
 80012be:	60d3      	str	r3, [r2, #12]
}
 80012c0:	bf00      	nop
 80012c2:	3714      	adds	r7, #20
 80012c4:	46bd      	mov	sp, r7
 80012c6:	bc80      	pop	{r7}
 80012c8:	4770      	bx	lr
 80012ca:	bf00      	nop
 80012cc:	e000ed00 	.word	0xe000ed00

080012d0 <__NVIC_GetPriorityGrouping>:
  \brief   Get Priority Grouping
  \details Reads the priority grouping field from the NVIC Interrupt Controller.
  \return                Priority grouping field (SCB->AIRCR [10:8] PRIGROUP field).
 */
__STATIC_INLINE uint32_t __NVIC_GetPriorityGrouping(void)
{
 80012d0:	b480      	push	{r7}
 80012d2:	af00      	add	r7, sp, #0
  return ((uint32_t)((SCB->AIRCR & SCB_AIRCR_PRIGROUP_Msk) >> SCB_AIRCR_PRIGROUP_Pos));
 80012d4:	4b04      	ldr	r3, [pc, #16]	; (80012e8 <__NVIC_GetPriorityGrouping+0x18>)
 80012d6:	68db      	ldr	r3, [r3, #12]
 80012d8:	0a1b      	lsrs	r3, r3, #8
 80012da:	f003 0307 	and.w	r3, r3, #7
}
 80012de:	4618      	mov	r0, r3
 80012e0:	46bd      	mov	sp, r7
 80012e2:	bc80      	pop	{r7}
 80012e4:	4770      	bx	lr
 80012e6:	bf00      	nop
 80012e8:	e000ed00 	.word	0xe000ed00

080012ec <__NVIC_EnableIRQ>:
  \details Enables a device specific interrupt in the NVIC interrupt controller.
  \param [in]      IRQn  Device specific interrupt number.
  \note    IRQn must not be negative.
 */
__STATIC_INLINE void __NVIC_EnableIRQ(IRQn_Type IRQn)
{
 80012ec:	b480      	push	{r7}
 80012ee:	b083      	sub	sp, #12
 80012f0:	af00      	add	r7, sp, #0
 80012f2:	4603      	mov	r3, r0
 80012f4:	71fb      	strb	r3, [r7, #7]
  if ((int32_t)(IRQn) >= 0)
 80012f6:	f997 3007 	ldrsb.w	r3, [r7, #7]
 80012fa:	2b00      	cmp	r3, #0
 80012fc:	db0b      	blt.n	8001316 <__NVIC_EnableIRQ+0x2a>
  {
    NVIC->ISER[(((uint32_t)IRQn) >> 5UL)] = (uint32_t)(1UL << (((uint32_t)IRQn) & 0x1FUL));
 80012fe:	79fb      	ldrb	r3, [r7, #7]
 8001300:	f003 021f 	and.w	r2, r3, #31
 8001304:	4906      	ldr	r1, [pc, #24]	; (8001320 <__NVIC_EnableIRQ+0x34>)
 8001306:	f997 3007 	ldrsb.w	r3, [r7, #7]
 800130a:	095b      	lsrs	r3, r3, #5
 800130c:	2001      	movs	r0, #1
 800130e:	fa00 f202 	lsl.w	r2, r0, r2
 8001312:	f841 2023 	str.w	r2, [r1, r3, lsl #2]
  }
}
 8001316:	bf00      	nop
 8001318:	370c      	adds	r7, #12
 800131a:	46bd      	mov	sp, r7
 800131c:	bc80      	pop	{r7}
 800131e:	4770      	bx	lr
 8001320:	e000e100 	.word	0xe000e100

08001324 <__NVIC_SetPriority>:
  \param [in]      IRQn  Interrupt number.
  \param [in]  priority  Priority to set.
  \note    The priority cannot be set for every processor exception.
 */
__STATIC_INLINE void __NVIC_SetPriority(IRQn_Type IRQn, uint32_t priority)
{
 8001324:	b480      	push	{r7}
 8001326:	b083      	sub	sp, #12
 8001328:	af00      	add	r7, sp, #0
 800132a:	4603      	mov	r3, r0
 800132c:	6039      	str	r1, [r7, #0]
 800132e:	71fb      	strb	r3, [r7, #7]
  if ((int32_t)(IRQn) >= 0)
 8001330:	f997 3007 	ldrsb.w	r3, [r7, #7]
 8001334:	2b00      	cmp	r3, #0
 8001336:	db0a      	blt.n	800134e <__NVIC_SetPriority+0x2a>
  {
    NVIC->IP[((uint32_t)IRQn)]               = (uint8_t)((priority << (8U - __NVIC_PRIO_BITS)) & (uint32_t)0xFFUL);
 8001338:	683b      	ldr	r3, [r7, #0]
 800133a:	b2da      	uxtb	r2, r3
 800133c:	490c      	ldr	r1, [pc, #48]	; (8001370 <__NVIC_SetPriority+0x4c>)
 800133e:	f997 3007 	ldrsb.w	r3, [r7, #7]
 8001342:	0112      	lsls	r2, r2, #4
 8001344:	b2d2      	uxtb	r2, r2
 8001346:	440b      	add	r3, r1
 8001348:	f883 2300 	strb.w	r2, [r3, #768]	; 0x300
  }
  else
  {
    SCB->SHP[(((uint32_t)IRQn) & 0xFUL)-4UL] = (uint8_t)((priority << (8U - __NVIC_PRIO_BITS)) & (uint32_t)0xFFUL);
  }
}
 800134c:	e00a      	b.n	8001364 <__NVIC_SetPriority+0x40>
    SCB->SHP[(((uint32_t)IRQn) & 0xFUL)-4UL] = (uint8_t)((priority << (8U - __NVIC_PRIO_BITS)) & (uint32_t)0xFFUL);
 800134e:	683b      	ldr	r3, [r7, #0]
 8001350:	b2da      	uxtb	r2, r3
 8001352:	4908      	ldr	r1, [pc, #32]	; (8001374 <__NVIC_SetPriority+0x50>)
 8001354:	79fb      	ldrb	r3, [r7, #7]
 8001356:	f003 030f 	and.w	r3, r3, #15
 800135a:	3b04      	subs	r3, #4
 800135c:	0112      	lsls	r2, r2, #4
 800135e:	b2d2      	uxtb	r2, r2
 8001360:	440b      	add	r3, r1
 8001362:	761a      	strb	r2, [r3, #24]
}
 8001364:	bf00      	nop
 8001366:	370c      	adds	r7, #12
 8001368:	46bd      	mov	sp, r7
 800136a:	bc80      	pop	{r7}
 800136c:	4770      	bx	lr
 800136e:	bf00      	nop
 8001370:	e000e100 	.word	0xe000e100
 8001374:	e000ed00 	.word	0xe000ed00

08001378 <NVIC_EncodePriority>:
  \param [in]   PreemptPriority  Preemptive priority value (starting from 0).
  \param [in]       SubPriority  Subpriority value (starting from 0).
  \return                        Encoded priority. Value can be used in the function \ref NVIC_SetPriority().
 */
__STATIC_INLINE uint32_t NVIC_EncodePriority (uint32_t PriorityGroup, uint32_t PreemptPriority, uint32_t SubPriority)
{
 8001378:	b480      	push	{r7}
 800137a:	b089      	sub	sp, #36	; 0x24
 800137c:	af00      	add	r7, sp, #0
 800137e:	60f8      	str	r0, [r7, #12]
 8001380:	60b9      	str	r1, [r7, #8]
 8001382:	607a      	str	r2, [r7, #4]
  uint32_t PriorityGroupTmp = (PriorityGroup & (uint32_t)0x07UL);   /* only values 0..7 are used          */
 8001384:	68fb      	ldr	r3, [r7, #12]
 8001386:	f003 0307 	and.w	r3, r3, #7
 800138a:	61fb      	str	r3, [r7, #28]
  uint32_t PreemptPriorityBits;
  uint32_t SubPriorityBits;

  PreemptPriorityBits = ((7UL - PriorityGroupTmp) > (uint32_t)(__NVIC_PRIO_BITS)) ? (uint32_t)(__NVIC_PRIO_BITS) : (uint32_t)(7UL - PriorityGroupTmp);
 800138c:	69fb      	ldr	r3, [r7, #28]
 800138e:	f1c3 0307 	rsb	r3, r3, #7
 8001392:	2b04      	cmp	r3, #4
 8001394:	bf28      	it	cs
 8001396:	2304      	movcs	r3, #4
 8001398:	61bb      	str	r3, [r7, #24]
  SubPriorityBits     = ((PriorityGroupTmp + (uint32_t)(__NVIC_PRIO_BITS)) < (uint32_t)7UL) ? (uint32_t)0UL : (uint32_t)((PriorityGroupTmp - 7UL) + (uint32_t)(__NVIC_PRIO_BITS));
 800139a:	69fb      	ldr	r3, [r7, #28]
 800139c:	3304      	adds	r3, #4
 800139e:	2b06      	cmp	r3, #6
 80013a0:	d902      	bls.n	80013a8 <NVIC_EncodePriority+0x30>
 80013a2:	69fb      	ldr	r3, [r7, #28]
 80013a4:	3b03      	subs	r3, #3
 80013a6:	e000      	b.n	80013aa <NVIC_EncodePriority+0x32>
 80013a8:	2300      	movs	r3, #0
 80013aa:	617b      	str	r3, [r7, #20]

  return (
           ((PreemptPriority & (uint32_t)((1UL << (PreemptPriorityBits)) - 1UL)) << SubPriorityBits) |
 80013ac:	f04f 32ff 	mov.w	r2, #4294967295
 80013b0:	69bb      	ldr	r3, [r7, #24]
 80013b2:	fa02 f303 	lsl.w	r3, r2, r3
 80013b6:	43da      	mvns	r2, r3
 80013b8:	68bb      	ldr	r3, [r7, #8]
 80013ba:	401a      	ands	r2, r3
 80013bc:	697b      	ldr	r3, [r7, #20]
 80013be:	409a      	lsls	r2, r3
           ((SubPriority     & (uint32_t)((1UL << (SubPriorityBits    )) - 1UL)))
 80013c0:	f04f 31ff 	mov.w	r1, #4294967295
 80013c4:	697b      	ldr	r3, [r7, #20]
 80013c6:	fa01 f303 	lsl.w	r3, r1, r3
 80013ca:	43d9      	mvns	r1, r3
 80013cc:	687b      	ldr	r3, [r7, #4]
 80013ce:	400b      	ands	r3, r1
           ((PreemptPriority & (uint32_t)((1UL << (PreemptPriorityBits)) - 1UL)) << SubPriorityBits) |
 80013d0:	4313      	orrs	r3, r2
         );
}
 80013d2:	4618      	mov	r0, r3
 80013d4:	3724      	adds	r7, #36	; 0x24
 80013d6:	46bd      	mov	sp, r7
 80013d8:	bc80      	pop	{r7}
 80013da:	4770      	bx	lr

080013dc <LL_ADC_REG_SetSequencerRanks>:
  *         
  *         (1) On STM32F1, parameter available only on ADC instance: ADC1.
  * @retval None
  */
__STATIC_INLINE void LL_ADC_REG_SetSequencerRanks(ADC_TypeDef *ADCx, uint32_t Rank, uint32_t Channel)
{
 80013dc:	b490      	push	{r4, r7}
 80013de:	b086      	sub	sp, #24
 80013e0:	af00      	add	r7, sp, #0
 80013e2:	60f8      	str	r0, [r7, #12]
 80013e4:	60b9      	str	r1, [r7, #8]
 80013e6:	607a      	str	r2, [r7, #4]
  /* Set bits with content of parameter "Channel" with bits position          */
  /* in register and register position depending on parameter "Rank".         */
  /* Parameters "Rank" and "Channel" are used with masks because containing   */
  /* other bits reserved for other purpose.                                   */
  register __IO uint32_t *preg = __ADC_PTR_REG_OFFSET(ADCx->SQR1, __ADC_MASK_SHIFT(Rank, ADC_REG_SQRX_REGOFFSET_MASK));
 80013e8:	68fb      	ldr	r3, [r7, #12]
 80013ea:	332c      	adds	r3, #44	; 0x2c
 80013ec:	4619      	mov	r1, r3
 80013ee:	68bb      	ldr	r3, [r7, #8]
 80013f0:	f403 7340 	and.w	r3, r3, #768	; 0x300
 80013f4:	f44f 7240 	mov.w	r2, #768	; 0x300
 80013f8:	617a      	str	r2, [r7, #20]
  uint32_t result;

#if ((defined (__ARM_ARCH_7M__      ) && (__ARM_ARCH_7M__      == 1)) || \
     (defined (__ARM_ARCH_7EM__     ) && (__ARM_ARCH_7EM__     == 1)) || \
     (defined (__ARM_ARCH_8M_MAIN__ ) && (__ARM_ARCH_8M_MAIN__ == 1))    )
   __ASM volatile ("rbit %0, %1" : "=r" (result) : "r" (value) );
 80013fa:	697a      	ldr	r2, [r7, #20]
 80013fc:	fa92 f2a2 	rbit	r2, r2
 8001400:	613a      	str	r2, [r7, #16]
    result |= value & 1U;
    s--;
  }
  result <<= s;                        /* shift when v's highest bits are zero */
#endif
  return result;
 8001402:	693a      	ldr	r2, [r7, #16]
 8001404:	fab2 f282 	clz	r2, r2
 8001408:	b2d2      	uxtb	r2, r2
 800140a:	40d3      	lsrs	r3, r2
 800140c:	009b      	lsls	r3, r3, #2
 800140e:	440b      	add	r3, r1
 8001410:	461c      	mov	r4, r3
  
  MODIFY_REG(*preg,
 8001412:	6822      	ldr	r2, [r4, #0]
 8001414:	68bb      	ldr	r3, [r7, #8]
 8001416:	f003 031f 	and.w	r3, r3, #31
 800141a:	211f      	movs	r1, #31
 800141c:	fa01 f303 	lsl.w	r3, r1, r3
 8001420:	43db      	mvns	r3, r3
 8001422:	401a      	ands	r2, r3
 8001424:	687b      	ldr	r3, [r7, #4]
 8001426:	f003 011f 	and.w	r1, r3, #31
 800142a:	68bb      	ldr	r3, [r7, #8]
 800142c:	f003 031f 	and.w	r3, r3, #31
 8001430:	fa01 f303 	lsl.w	r3, r1, r3
 8001434:	4313      	orrs	r3, r2
 8001436:	6023      	str	r3, [r4, #0]
             ADC_CHANNEL_ID_NUMBER_MASK << (Rank & ADC_REG_RANK_ID_SQRX_MASK),
             (Channel & ADC_CHANNEL_ID_NUMBER_MASK) << (Rank & ADC_REG_RANK_ID_SQRX_MASK));
}
 8001438:	bf00      	nop
 800143a:	3718      	adds	r7, #24
 800143c:	46bd      	mov	sp, r7
 800143e:	bc90      	pop	{r4, r7}
 8001440:	4770      	bx	lr

08001442 <LL_ADC_REG_SetDMATransfer>:
  *         @arg @ref LL_ADC_REG_DMA_TRANSFER_NONE
  *         @arg @ref LL_ADC_REG_DMA_TRANSFER_UNLIMITED
  * @retval None
  */
__STATIC_INLINE void LL_ADC_REG_SetDMATransfer(ADC_TypeDef *ADCx, uint32_t DMATransfer)
{
 8001442:	b480      	push	{r7}
 8001444:	b083      	sub	sp, #12
 8001446:	af00      	add	r7, sp, #0
 8001448:	6078      	str	r0, [r7, #4]
 800144a:	6039      	str	r1, [r7, #0]
  MODIFY_REG(ADCx->CR2, ADC_CR2_DMA, DMATransfer);
 800144c:	687b      	ldr	r3, [r7, #4]
 800144e:	689b      	ldr	r3, [r3, #8]
 8001450:	f423 7280 	bic.w	r2, r3, #256	; 0x100
 8001454:	683b      	ldr	r3, [r7, #0]
 8001456:	431a      	orrs	r2, r3
 8001458:	687b      	ldr	r3, [r7, #4]
 800145a:	609a      	str	r2, [r3, #8]
}
 800145c:	bf00      	nop
 800145e:	370c      	adds	r7, #12
 8001460:	46bd      	mov	sp, r7
 8001462:	bc80      	pop	{r7}
 8001464:	4770      	bx	lr

08001466 <LL_ADC_SetChannelSamplingTime>:
  *         @arg @ref LL_ADC_SAMPLINGTIME_71CYCLES_5
  *         @arg @ref LL_ADC_SAMPLINGTIME_239CYCLES_5
  * @retval None
  */
__STATIC_INLINE void LL_ADC_SetChannelSamplingTime(ADC_TypeDef *ADCx, uint32_t Channel, uint32_t SamplingTime)
{
 8001466:	b490      	push	{r4, r7}
 8001468:	b08a      	sub	sp, #40	; 0x28
 800146a:	af00      	add	r7, sp, #0
 800146c:	60f8      	str	r0, [r7, #12]
 800146e:	60b9      	str	r1, [r7, #8]
 8001470:	607a      	str	r2, [r7, #4]
  /* Set bits with content of parameter "SamplingTime" with bits position     */
  /* in register and register position depending on parameter "Channel".      */
  /* Parameter "Channel" is used with masks because containing                */
  /* other bits reserved for other purpose.                                   */
  register __IO uint32_t *preg = __ADC_PTR_REG_OFFSET(ADCx->SMPR1, __ADC_MASK_SHIFT(Channel, ADC_CHANNEL_SMPRX_REGOFFSET_MASK));
 8001472:	68fb      	ldr	r3, [r7, #12]
 8001474:	330c      	adds	r3, #12
 8001476:	4619      	mov	r1, r3
 8001478:	68bb      	ldr	r3, [r7, #8]
 800147a:	f003 7300 	and.w	r3, r3, #33554432	; 0x2000000
 800147e:	f04f 7200 	mov.w	r2, #33554432	; 0x2000000
 8001482:	617a      	str	r2, [r7, #20]
   __ASM volatile ("rbit %0, %1" : "=r" (result) : "r" (value) );
 8001484:	697a      	ldr	r2, [r7, #20]
 8001486:	fa92 f2a2 	rbit	r2, r2
 800148a:	613a      	str	r2, [r7, #16]
  return result;
 800148c:	693a      	ldr	r2, [r7, #16]
 800148e:	fab2 f282 	clz	r2, r2
 8001492:	b2d2      	uxtb	r2, r2
 8001494:	40d3      	lsrs	r3, r2
 8001496:	009b      	lsls	r3, r3, #2
 8001498:	440b      	add	r3, r1
 800149a:	461c      	mov	r4, r3
  
  MODIFY_REG(*preg,
 800149c:	6822      	ldr	r2, [r4, #0]
 800149e:	68bb      	ldr	r3, [r7, #8]
 80014a0:	f003 73f8 	and.w	r3, r3, #32505856	; 0x1f00000
 80014a4:	f04f 71f8 	mov.w	r1, #32505856	; 0x1f00000
 80014a8:	61f9      	str	r1, [r7, #28]
   __ASM volatile ("rbit %0, %1" : "=r" (result) : "r" (value) );
 80014aa:	69f9      	ldr	r1, [r7, #28]
 80014ac:	fa91 f1a1 	rbit	r1, r1
 80014b0:	61b9      	str	r1, [r7, #24]
  return result;
 80014b2:	69b9      	ldr	r1, [r7, #24]
 80014b4:	fab1 f181 	clz	r1, r1
 80014b8:	b2c9      	uxtb	r1, r1
 80014ba:	40cb      	lsrs	r3, r1
 80014bc:	2107      	movs	r1, #7
 80014be:	fa01 f303 	lsl.w	r3, r1, r3
 80014c2:	43db      	mvns	r3, r3
 80014c4:	401a      	ands	r2, r3
 80014c6:	68bb      	ldr	r3, [r7, #8]
 80014c8:	f003 73f8 	and.w	r3, r3, #32505856	; 0x1f00000
 80014cc:	f04f 71f8 	mov.w	r1, #32505856	; 0x1f00000
 80014d0:	6279      	str	r1, [r7, #36]	; 0x24
   __ASM volatile ("rbit %0, %1" : "=r" (result) : "r" (value) );
 80014d2:	6a79      	ldr	r1, [r7, #36]	; 0x24
 80014d4:	fa91 f1a1 	rbit	r1, r1
 80014d8:	6239      	str	r1, [r7, #32]
  return result;
 80014da:	6a39      	ldr	r1, [r7, #32]
 80014dc:	fab1 f181 	clz	r1, r1
 80014e0:	b2c9      	uxtb	r1, r1
 80014e2:	40cb      	lsrs	r3, r1
 80014e4:	6879      	ldr	r1, [r7, #4]
 80014e6:	fa01 f303 	lsl.w	r3, r1, r3
 80014ea:	4313      	orrs	r3, r2
 80014ec:	6023      	str	r3, [r4, #0]
             ADC_SMPR2_SMP0 << __ADC_MASK_SHIFT(Channel, ADC_CHANNEL_SMPx_BITOFFSET_MASK),
             SamplingTime   << __ADC_MASK_SHIFT(Channel, ADC_CHANNEL_SMPx_BITOFFSET_MASK));
}
 80014ee:	bf00      	nop
 80014f0:	3728      	adds	r7, #40	; 0x28
 80014f2:	46bd      	mov	sp, r7
 80014f4:	bc90      	pop	{r4, r7}
 80014f6:	4770      	bx	lr

080014f8 <LL_ADC_Enable>:
  * @rmtoll CR2      ADON           LL_ADC_Enable
  * @param  ADCx ADC instance
  * @retval None
  */
__STATIC_INLINE void LL_ADC_Enable(ADC_TypeDef *ADCx)
{
 80014f8:	b480      	push	{r7}
 80014fa:	b083      	sub	sp, #12
 80014fc:	af00      	add	r7, sp, #0
 80014fe:	6078      	str	r0, [r7, #4]
  SET_BIT(ADCx->CR2, ADC_CR2_ADON);
 8001500:	687b      	ldr	r3, [r7, #4]
 8001502:	689b      	ldr	r3, [r3, #8]
 8001504:	f043 0201 	orr.w	r2, r3, #1
 8001508:	687b      	ldr	r3, [r7, #4]
 800150a:	609a      	str	r2, [r3, #8]
}
 800150c:	bf00      	nop
 800150e:	370c      	adds	r7, #12
 8001510:	46bd      	mov	sp, r7
 8001512:	bc80      	pop	{r7}
 8001514:	4770      	bx	lr

08001516 <LL_ADC_StartCalibration>:
  * @rmtoll CR2      CAL            LL_ADC_StartCalibration
  * @param  ADCx ADC instance
  * @retval None
  */
__STATIC_INLINE void LL_ADC_StartCalibration(ADC_TypeDef *ADCx)
{
 8001516:	b480      	push	{r7}
 8001518:	b083      	sub	sp, #12
 800151a:	af00      	add	r7, sp, #0
 800151c:	6078      	str	r0, [r7, #4]
  SET_BIT(ADCx->CR2, ADC_CR2_CAL);
 800151e:	687b      	ldr	r3, [r7, #4]
 8001520:	689b      	ldr	r3, [r3, #8]
 8001522:	f043 0204 	orr.w	r2, r3, #4
 8001526:	687b      	ldr	r3, [r7, #4]
 8001528:	609a      	str	r2, [r3, #8]
}
 800152a:	bf00      	nop
 800152c:	370c      	adds	r7, #12
 800152e:	46bd      	mov	sp, r7
 8001530:	bc80      	pop	{r7}
 8001532:	4770      	bx	lr

08001534 <LL_ADC_IsCalibrationOnGoing>:
  * @rmtoll CR2      CAL            LL_ADC_IsCalibrationOnGoing
  * @param  ADCx ADC instance
  * @retval 0: calibration complete, 1: calibration in progress.
  */
__STATIC_INLINE uint32_t LL_ADC_IsCalibrationOnGoing(ADC_TypeDef *ADCx)
{
 8001534:	b480      	push	{r7}
 8001536:	b083      	sub	sp, #12
 8001538:	af00      	add	r7, sp, #0
 800153a:	6078      	str	r0, [r7, #4]
  return (READ_BIT(ADCx->CR2, ADC_CR2_CAL) == (ADC_CR2_CAL));
 800153c:	687b      	ldr	r3, [r7, #4]
 800153e:	689b      	ldr	r3, [r3, #8]
 8001540:	f003 0304 	and.w	r3, r3, #4
 8001544:	2b04      	cmp	r3, #4
 8001546:	bf0c      	ite	eq
 8001548:	2301      	moveq	r3, #1
 800154a:	2300      	movne	r3, #0
 800154c:	b2db      	uxtb	r3, r3
}
 800154e:	4618      	mov	r0, r3
 8001550:	370c      	adds	r7, #12
 8001552:	46bd      	mov	sp, r7
 8001554:	bc80      	pop	{r7}
 8001556:	4770      	bx	lr

08001558 <LL_ADC_REG_StartConversionSWStart>:
  * @rmtoll CR2      SWSTART        LL_ADC_REG_StartConversionSWStart
  * @param  ADCx ADC instance
  * @retval None
  */
__STATIC_INLINE void LL_ADC_REG_StartConversionSWStart(ADC_TypeDef *ADCx)
{
 8001558:	b480      	push	{r7}
 800155a:	b083      	sub	sp, #12
 800155c:	af00      	add	r7, sp, #0
 800155e:	6078      	str	r0, [r7, #4]
  SET_BIT(ADCx->CR2, (ADC_CR2_SWSTART | ADC_CR2_EXTTRIG));
 8001560:	687b      	ldr	r3, [r7, #4]
 8001562:	689b      	ldr	r3, [r3, #8]
 8001564:	f443 02a0 	orr.w	r2, r3, #5242880	; 0x500000
 8001568:	687b      	ldr	r3, [r7, #4]
 800156a:	609a      	str	r2, [r3, #8]
}
 800156c:	bf00      	nop
 800156e:	370c      	adds	r7, #12
 8001570:	46bd      	mov	sp, r7
 8001572:	bc80      	pop	{r7}
 8001574:	4770      	bx	lr
	...

08001578 <LL_DMA_EnableChannel>:
  *         @arg @ref LL_DMA_CHANNEL_6
  *         @arg @ref LL_DMA_CHANNEL_7
  * @retval None
  */
__STATIC_INLINE void LL_DMA_EnableChannel(DMA_TypeDef *DMAx, uint32_t Channel)
{
 8001578:	b480      	push	{r7}
 800157a:	b083      	sub	sp, #12
 800157c:	af00      	add	r7, sp, #0
 800157e:	6078      	str	r0, [r7, #4]
 8001580:	6039      	str	r1, [r7, #0]
  SET_BIT(((DMA_Channel_TypeDef *)((uint32_t)((uint32_t)DMAx + CHANNEL_OFFSET_TAB[Channel - 1U])))->CCR, DMA_CCR_EN);
 8001582:	683b      	ldr	r3, [r7, #0]
 8001584:	3b01      	subs	r3, #1
 8001586:	4a0a      	ldr	r2, [pc, #40]	; (80015b0 <LL_DMA_EnableChannel+0x38>)
 8001588:	5cd3      	ldrb	r3, [r2, r3]
 800158a:	461a      	mov	r2, r3
 800158c:	687b      	ldr	r3, [r7, #4]
 800158e:	4413      	add	r3, r2
 8001590:	681b      	ldr	r3, [r3, #0]
 8001592:	683a      	ldr	r2, [r7, #0]
 8001594:	3a01      	subs	r2, #1
 8001596:	4906      	ldr	r1, [pc, #24]	; (80015b0 <LL_DMA_EnableChannel+0x38>)
 8001598:	5c8a      	ldrb	r2, [r1, r2]
 800159a:	4611      	mov	r1, r2
 800159c:	687a      	ldr	r2, [r7, #4]
 800159e:	440a      	add	r2, r1
 80015a0:	f043 0301 	orr.w	r3, r3, #1
 80015a4:	6013      	str	r3, [r2, #0]
}
 80015a6:	bf00      	nop
 80015a8:	370c      	adds	r7, #12
 80015aa:	46bd      	mov	sp, r7
 80015ac:	bc80      	pop	{r7}
 80015ae:	4770      	bx	lr
 80015b0:	08007608 	.word	0x08007608

080015b4 <LL_DMA_SetDataTransferDirection>:
  *         @arg @ref LL_DMA_DIRECTION_MEMORY_TO_PERIPH
  *         @arg @ref LL_DMA_DIRECTION_MEMORY_TO_MEMORY
  * @retval None
  */
__STATIC_INLINE void LL_DMA_SetDataTransferDirection(DMA_TypeDef *DMAx, uint32_t Channel, uint32_t Direction)
{
 80015b4:	b480      	push	{r7}
 80015b6:	b085      	sub	sp, #20
 80015b8:	af00      	add	r7, sp, #0
 80015ba:	60f8      	str	r0, [r7, #12]
 80015bc:	60b9      	str	r1, [r7, #8]
 80015be:	607a      	str	r2, [r7, #4]
  MODIFY_REG(((DMA_Channel_TypeDef *)((uint32_t)((uint32_t)DMAx + CHANNEL_OFFSET_TAB[Channel - 1U])))->CCR,
 80015c0:	68bb      	ldr	r3, [r7, #8]
 80015c2:	3b01      	subs	r3, #1
 80015c4:	4a0c      	ldr	r2, [pc, #48]	; (80015f8 <LL_DMA_SetDataTransferDirection+0x44>)
 80015c6:	5cd3      	ldrb	r3, [r2, r3]
 80015c8:	461a      	mov	r2, r3
 80015ca:	68fb      	ldr	r3, [r7, #12]
 80015cc:	4413      	add	r3, r2
 80015ce:	681b      	ldr	r3, [r3, #0]
 80015d0:	f423 4380 	bic.w	r3, r3, #16384	; 0x4000
 80015d4:	f023 0310 	bic.w	r3, r3, #16
 80015d8:	68ba      	ldr	r2, [r7, #8]
 80015da:	3a01      	subs	r2, #1
 80015dc:	4906      	ldr	r1, [pc, #24]	; (80015f8 <LL_DMA_SetDataTransferDirection+0x44>)
 80015de:	5c8a      	ldrb	r2, [r1, r2]
 80015e0:	4611      	mov	r1, r2
 80015e2:	68fa      	ldr	r2, [r7, #12]
 80015e4:	440a      	add	r2, r1
 80015e6:	4611      	mov	r1, r2
 80015e8:	687a      	ldr	r2, [r7, #4]
 80015ea:	4313      	orrs	r3, r2
 80015ec:	600b      	str	r3, [r1, #0]
             DMA_CCR_DIR | DMA_CCR_MEM2MEM, Direction);
}
 80015ee:	bf00      	nop
 80015f0:	3714      	adds	r7, #20
 80015f2:	46bd      	mov	sp, r7
 80015f4:	bc80      	pop	{r7}
 80015f6:	4770      	bx	lr
 80015f8:	08007608 	.word	0x08007608

080015fc <LL_DMA_SetMode>:
  *         @arg @ref LL_DMA_MODE_NORMAL
  *         @arg @ref LL_DMA_MODE_CIRCULAR
  * @retval None
  */
__STATIC_INLINE void LL_DMA_SetMode(DMA_TypeDef *DMAx, uint32_t Channel, uint32_t Mode)
{
 80015fc:	b480      	push	{r7}
 80015fe:	b085      	sub	sp, #20
 8001600:	af00      	add	r7, sp, #0
 8001602:	60f8      	str	r0, [r7, #12]
 8001604:	60b9      	str	r1, [r7, #8]
 8001606:	607a      	str	r2, [r7, #4]
  MODIFY_REG(((DMA_Channel_TypeDef *)((uint32_t)((uint32_t)DMAx + CHANNEL_OFFSET_TAB[Channel - 1U])))->CCR, DMA_CCR_CIRC,
 8001608:	68bb      	ldr	r3, [r7, #8]
 800160a:	3b01      	subs	r3, #1
 800160c:	4a0b      	ldr	r2, [pc, #44]	; (800163c <LL_DMA_SetMode+0x40>)
 800160e:	5cd3      	ldrb	r3, [r2, r3]
 8001610:	461a      	mov	r2, r3
 8001612:	68fb      	ldr	r3, [r7, #12]
 8001614:	4413      	add	r3, r2
 8001616:	681b      	ldr	r3, [r3, #0]
 8001618:	f023 0220 	bic.w	r2, r3, #32
 800161c:	68bb      	ldr	r3, [r7, #8]
 800161e:	3b01      	subs	r3, #1
 8001620:	4906      	ldr	r1, [pc, #24]	; (800163c <LL_DMA_SetMode+0x40>)
 8001622:	5ccb      	ldrb	r3, [r1, r3]
 8001624:	4619      	mov	r1, r3
 8001626:	68fb      	ldr	r3, [r7, #12]
 8001628:	440b      	add	r3, r1
 800162a:	4619      	mov	r1, r3
 800162c:	687b      	ldr	r3, [r7, #4]
 800162e:	4313      	orrs	r3, r2
 8001630:	600b      	str	r3, [r1, #0]
             Mode);
}
 8001632:	bf00      	nop
 8001634:	3714      	adds	r7, #20
 8001636:	46bd      	mov	sp, r7
 8001638:	bc80      	pop	{r7}
 800163a:	4770      	bx	lr
 800163c:	08007608 	.word	0x08007608

08001640 <LL_DMA_SetPeriphIncMode>:
  *         @arg @ref LL_DMA_PERIPH_INCREMENT
  *         @arg @ref LL_DMA_PERIPH_NOINCREMENT
  * @retval None
  */
__STATIC_INLINE void LL_DMA_SetPeriphIncMode(DMA_TypeDef *DMAx, uint32_t Channel, uint32_t PeriphOrM2MSrcIncMode)
{
 8001640:	b480      	push	{r7}
 8001642:	b085      	sub	sp, #20
 8001644:	af00      	add	r7, sp, #0
 8001646:	60f8      	str	r0, [r7, #12]
 8001648:	60b9      	str	r1, [r7, #8]
 800164a:	607a      	str	r2, [r7, #4]
  MODIFY_REG(((DMA_Channel_TypeDef *)((uint32_t)((uint32_t)DMAx + CHANNEL_OFFSET_TAB[Channel - 1U])))->CCR, DMA_CCR_PINC,
 800164c:	68bb      	ldr	r3, [r7, #8]
 800164e:	3b01      	subs	r3, #1
 8001650:	4a0b      	ldr	r2, [pc, #44]	; (8001680 <LL_DMA_SetPeriphIncMode+0x40>)
 8001652:	5cd3      	ldrb	r3, [r2, r3]
 8001654:	461a      	mov	r2, r3
 8001656:	68fb      	ldr	r3, [r7, #12]
 8001658:	4413      	add	r3, r2
 800165a:	681b      	ldr	r3, [r3, #0]
 800165c:	f023 0240 	bic.w	r2, r3, #64	; 0x40
 8001660:	68bb      	ldr	r3, [r7, #8]
 8001662:	3b01      	subs	r3, #1
 8001664:	4906      	ldr	r1, [pc, #24]	; (8001680 <LL_DMA_SetPeriphIncMode+0x40>)
 8001666:	5ccb      	ldrb	r3, [r1, r3]
 8001668:	4619      	mov	r1, r3
 800166a:	68fb      	ldr	r3, [r7, #12]
 800166c:	440b      	add	r3, r1
 800166e:	4619      	mov	r1, r3
 8001670:	687b      	ldr	r3, [r7, #4]
 8001672:	4313      	orrs	r3, r2
 8001674:	600b      	str	r3, [r1, #0]
             PeriphOrM2MSrcIncMode);
}
 8001676:	bf00      	nop
 8001678:	3714      	adds	r7, #20
 800167a:	46bd      	mov	sp, r7
 800167c:	bc80      	pop	{r7}
 800167e:	4770      	bx	lr
 8001680:	08007608 	.word	0x08007608

08001684 <LL_DMA_SetMemoryIncMode>:
  *         @arg @ref LL_DMA_MEMORY_INCREMENT
  *         @arg @ref LL_DMA_MEMORY_NOINCREMENT
  * @retval None
  */
__STATIC_INLINE void LL_DMA_SetMemoryIncMode(DMA_TypeDef *DMAx, uint32_t Channel, uint32_t MemoryOrM2MDstIncMode)
{
 8001684:	b480      	push	{r7}
 8001686:	b085      	sub	sp, #20
 8001688:	af00      	add	r7, sp, #0
 800168a:	60f8      	str	r0, [r7, #12]
 800168c:	60b9      	str	r1, [r7, #8]
 800168e:	607a      	str	r2, [r7, #4]
  MODIFY_REG(((DMA_Channel_TypeDef *)((uint32_t)((uint32_t)DMAx + CHANNEL_OFFSET_TAB[Channel - 1U])))->CCR, DMA_CCR_MINC,
 8001690:	68bb      	ldr	r3, [r7, #8]
 8001692:	3b01      	subs	r3, #1
 8001694:	4a0b      	ldr	r2, [pc, #44]	; (80016c4 <LL_DMA_SetMemoryIncMode+0x40>)
 8001696:	5cd3      	ldrb	r3, [r2, r3]
 8001698:	461a      	mov	r2, r3
 800169a:	68fb      	ldr	r3, [r7, #12]
 800169c:	4413      	add	r3, r2
 800169e:	681b      	ldr	r3, [r3, #0]
 80016a0:	f023 0280 	bic.w	r2, r3, #128	; 0x80
 80016a4:	68bb      	ldr	r3, [r7, #8]
 80016a6:	3b01      	subs	r3, #1
 80016a8:	4906      	ldr	r1, [pc, #24]	; (80016c4 <LL_DMA_SetMemoryIncMode+0x40>)
 80016aa:	5ccb      	ldrb	r3, [r1, r3]
 80016ac:	4619      	mov	r1, r3
 80016ae:	68fb      	ldr	r3, [r7, #12]
 80016b0:	440b      	add	r3, r1
 80016b2:	4619      	mov	r1, r3
 80016b4:	687b      	ldr	r3, [r7, #4]
 80016b6:	4313      	orrs	r3, r2
 80016b8:	600b      	str	r3, [r1, #0]
             MemoryOrM2MDstIncMode);
}
 80016ba:	bf00      	nop
 80016bc:	3714      	adds	r7, #20
 80016be:	46bd      	mov	sp, r7
 80016c0:	bc80      	pop	{r7}
 80016c2:	4770      	bx	lr
 80016c4:	08007608 	.word	0x08007608

080016c8 <LL_DMA_SetPeriphSize>:
  *         @arg @ref LL_DMA_PDATAALIGN_HALFWORD
  *         @arg @ref LL_DMA_PDATAALIGN_WORD
  * @retval None
  */
__STATIC_INLINE void LL_DMA_SetPeriphSize(DMA_TypeDef *DMAx, uint32_t Channel, uint32_t PeriphOrM2MSrcDataSize)
{
 80016c8:	b480      	push	{r7}
 80016ca:	b085      	sub	sp, #20
 80016cc:	af00      	add	r7, sp, #0
 80016ce:	60f8      	str	r0, [r7, #12]
 80016d0:	60b9      	str	r1, [r7, #8]
 80016d2:	607a      	str	r2, [r7, #4]
  MODIFY_REG(((DMA_Channel_TypeDef *)((uint32_t)((uint32_t)DMAx + CHANNEL_OFFSET_TAB[Channel - 1U])))->CCR, DMA_CCR_PSIZE,
 80016d4:	68bb      	ldr	r3, [r7, #8]
 80016d6:	3b01      	subs	r3, #1
 80016d8:	4a0b      	ldr	r2, [pc, #44]	; (8001708 <LL_DMA_SetPeriphSize+0x40>)
 80016da:	5cd3      	ldrb	r3, [r2, r3]
 80016dc:	461a      	mov	r2, r3
 80016de:	68fb      	ldr	r3, [r7, #12]
 80016e0:	4413      	add	r3, r2
 80016e2:	681b      	ldr	r3, [r3, #0]
 80016e4:	f423 7240 	bic.w	r2, r3, #768	; 0x300
 80016e8:	68bb      	ldr	r3, [r7, #8]
 80016ea:	3b01      	subs	r3, #1
 80016ec:	4906      	ldr	r1, [pc, #24]	; (8001708 <LL_DMA_SetPeriphSize+0x40>)
 80016ee:	5ccb      	ldrb	r3, [r1, r3]
 80016f0:	4619      	mov	r1, r3
 80016f2:	68fb      	ldr	r3, [r7, #12]
 80016f4:	440b      	add	r3, r1
 80016f6:	4619      	mov	r1, r3
 80016f8:	687b      	ldr	r3, [r7, #4]
 80016fa:	4313      	orrs	r3, r2
 80016fc:	600b      	str	r3, [r1, #0]
             PeriphOrM2MSrcDataSize);
}
 80016fe:	bf00      	nop
 8001700:	3714      	adds	r7, #20
 8001702:	46bd      	mov	sp, r7
 8001704:	bc80      	pop	{r7}
 8001706:	4770      	bx	lr
 8001708:	08007608 	.word	0x08007608

0800170c <LL_DMA_SetMemorySize>:
  *         @arg @ref LL_DMA_MDATAALIGN_HALFWORD
  *         @arg @ref LL_DMA_MDATAALIGN_WORD
  * @retval None
  */
__STATIC_INLINE void LL_DMA_SetMemorySize(DMA_TypeDef *DMAx, uint32_t Channel, uint32_t MemoryOrM2MDstDataSize)
{
 800170c:	b480      	push	{r7}
 800170e:	b085      	sub	sp, #20
 8001710:	af00      	add	r7, sp, #0
 8001712:	60f8      	str	r0, [r7, #12]
 8001714:	60b9      	str	r1, [r7, #8]
 8001716:	607a      	str	r2, [r7, #4]
  MODIFY_REG(((DMA_Channel_TypeDef *)((uint32_t)((uint32_t)DMAx + CHANNEL_OFFSET_TAB[Channel - 1U])))->CCR, DMA_CCR_MSIZE,
 8001718:	68bb      	ldr	r3, [r7, #8]
 800171a:	3b01      	subs	r3, #1
 800171c:	4a0b      	ldr	r2, [pc, #44]	; (800174c <LL_DMA_SetMemorySize+0x40>)
 800171e:	5cd3      	ldrb	r3, [r2, r3]
 8001720:	461a      	mov	r2, r3
 8001722:	68fb      	ldr	r3, [r7, #12]
 8001724:	4413      	add	r3, r2
 8001726:	681b      	ldr	r3, [r3, #0]
 8001728:	f423 6240 	bic.w	r2, r3, #3072	; 0xc00
 800172c:	68bb      	ldr	r3, [r7, #8]
 800172e:	3b01      	subs	r3, #1
 8001730:	4906      	ldr	r1, [pc, #24]	; (800174c <LL_DMA_SetMemorySize+0x40>)
 8001732:	5ccb      	ldrb	r3, [r1, r3]
 8001734:	4619      	mov	r1, r3
 8001736:	68fb      	ldr	r3, [r7, #12]
 8001738:	440b      	add	r3, r1
 800173a:	4619      	mov	r1, r3
 800173c:	687b      	ldr	r3, [r7, #4]
 800173e:	4313      	orrs	r3, r2
 8001740:	600b      	str	r3, [r1, #0]
             MemoryOrM2MDstDataSize);
}
 8001742:	bf00      	nop
 8001744:	3714      	adds	r7, #20
 8001746:	46bd      	mov	sp, r7
 8001748:	bc80      	pop	{r7}
 800174a:	4770      	bx	lr
 800174c:	08007608 	.word	0x08007608

08001750 <LL_DMA_SetChannelPriorityLevel>:
  *         @arg @ref LL_DMA_PRIORITY_HIGH
  *         @arg @ref LL_DMA_PRIORITY_VERYHIGH
  * @retval None
  */
__STATIC_INLINE void LL_DMA_SetChannelPriorityLevel(DMA_TypeDef *DMAx, uint32_t Channel, uint32_t Priority)
{
 8001750:	b480      	push	{r7}
 8001752:	b085      	sub	sp, #20
 8001754:	af00      	add	r7, sp, #0
 8001756:	60f8      	str	r0, [r7, #12]
 8001758:	60b9      	str	r1, [r7, #8]
 800175a:	607a      	str	r2, [r7, #4]
  MODIFY_REG(((DMA_Channel_TypeDef *)((uint32_t)((uint32_t)DMAx + CHANNEL_OFFSET_TAB[Channel - 1U])))->CCR, DMA_CCR_PL,
 800175c:	68bb      	ldr	r3, [r7, #8]
 800175e:	3b01      	subs	r3, #1
 8001760:	4a0b      	ldr	r2, [pc, #44]	; (8001790 <LL_DMA_SetChannelPriorityLevel+0x40>)
 8001762:	5cd3      	ldrb	r3, [r2, r3]
 8001764:	461a      	mov	r2, r3
 8001766:	68fb      	ldr	r3, [r7, #12]
 8001768:	4413      	add	r3, r2
 800176a:	681b      	ldr	r3, [r3, #0]
 800176c:	f423 5240 	bic.w	r2, r3, #12288	; 0x3000
 8001770:	68bb      	ldr	r3, [r7, #8]
 8001772:	3b01      	subs	r3, #1
 8001774:	4906      	ldr	r1, [pc, #24]	; (8001790 <LL_DMA_SetChannelPriorityLevel+0x40>)
 8001776:	5ccb      	ldrb	r3, [r1, r3]
 8001778:	4619      	mov	r1, r3
 800177a:	68fb      	ldr	r3, [r7, #12]
 800177c:	440b      	add	r3, r1
 800177e:	4619      	mov	r1, r3
 8001780:	687b      	ldr	r3, [r7, #4]
 8001782:	4313      	orrs	r3, r2
 8001784:	600b      	str	r3, [r1, #0]
             Priority);
}
 8001786:	bf00      	nop
 8001788:	3714      	adds	r7, #20
 800178a:	46bd      	mov	sp, r7
 800178c:	bc80      	pop	{r7}
 800178e:	4770      	bx	lr
 8001790:	08007608 	.word	0x08007608

08001794 <LL_DMA_SetDataLength>:
  *         @arg @ref LL_DMA_CHANNEL_7
  * @param  NbData Between Min_Data = 0 and Max_Data = 0x0000FFFF
  * @retval None
  */
__STATIC_INLINE void LL_DMA_SetDataLength(DMA_TypeDef *DMAx, uint32_t Channel, uint32_t NbData)
{
 8001794:	b480      	push	{r7}
 8001796:	b085      	sub	sp, #20
 8001798:	af00      	add	r7, sp, #0
 800179a:	60f8      	str	r0, [r7, #12]
 800179c:	60b9      	str	r1, [r7, #8]
 800179e:	607a      	str	r2, [r7, #4]
  MODIFY_REG(((DMA_Channel_TypeDef *)((uint32_t)((uint32_t)DMAx + CHANNEL_OFFSET_TAB[Channel - 1U])))->CNDTR,
 80017a0:	68bb      	ldr	r3, [r7, #8]
 80017a2:	3b01      	subs	r3, #1
 80017a4:	4a0b      	ldr	r2, [pc, #44]	; (80017d4 <LL_DMA_SetDataLength+0x40>)
 80017a6:	5cd3      	ldrb	r3, [r2, r3]
 80017a8:	461a      	mov	r2, r3
 80017aa:	68fb      	ldr	r3, [r7, #12]
 80017ac:	4413      	add	r3, r2
 80017ae:	685b      	ldr	r3, [r3, #4]
 80017b0:	0c1b      	lsrs	r3, r3, #16
 80017b2:	041b      	lsls	r3, r3, #16
 80017b4:	68ba      	ldr	r2, [r7, #8]
 80017b6:	3a01      	subs	r2, #1
 80017b8:	4906      	ldr	r1, [pc, #24]	; (80017d4 <LL_DMA_SetDataLength+0x40>)
 80017ba:	5c8a      	ldrb	r2, [r1, r2]
 80017bc:	4611      	mov	r1, r2
 80017be:	68fa      	ldr	r2, [r7, #12]
 80017c0:	440a      	add	r2, r1
 80017c2:	4611      	mov	r1, r2
 80017c4:	687a      	ldr	r2, [r7, #4]
 80017c6:	4313      	orrs	r3, r2
 80017c8:	604b      	str	r3, [r1, #4]
             DMA_CNDTR_NDT, NbData);
}
 80017ca:	bf00      	nop
 80017cc:	3714      	adds	r7, #20
 80017ce:	46bd      	mov	sp, r7
 80017d0:	bc80      	pop	{r7}
 80017d2:	4770      	bx	lr
 80017d4:	08007608 	.word	0x08007608

080017d8 <LL_DMA_SetMemoryAddress>:
  *         @arg @ref LL_DMA_CHANNEL_7
  * @param  MemoryAddress Between Min_Data = 0 and Max_Data = 0xFFFFFFFF
  * @retval None
  */
__STATIC_INLINE void LL_DMA_SetMemoryAddress(DMA_TypeDef *DMAx, uint32_t Channel, uint32_t MemoryAddress)
{
 80017d8:	b480      	push	{r7}
 80017da:	b085      	sub	sp, #20
 80017dc:	af00      	add	r7, sp, #0
 80017de:	60f8      	str	r0, [r7, #12]
 80017e0:	60b9      	str	r1, [r7, #8]
 80017e2:	607a      	str	r2, [r7, #4]
  WRITE_REG(((DMA_Channel_TypeDef *)((uint32_t)((uint32_t)DMAx + CHANNEL_OFFSET_TAB[Channel - 1U])))->CMAR, MemoryAddress);
 80017e4:	68bb      	ldr	r3, [r7, #8]
 80017e6:	3b01      	subs	r3, #1
 80017e8:	4a06      	ldr	r2, [pc, #24]	; (8001804 <LL_DMA_SetMemoryAddress+0x2c>)
 80017ea:	5cd3      	ldrb	r3, [r2, r3]
 80017ec:	461a      	mov	r2, r3
 80017ee:	68fb      	ldr	r3, [r7, #12]
 80017f0:	4413      	add	r3, r2
 80017f2:	461a      	mov	r2, r3
 80017f4:	687b      	ldr	r3, [r7, #4]
 80017f6:	60d3      	str	r3, [r2, #12]
}
 80017f8:	bf00      	nop
 80017fa:	3714      	adds	r7, #20
 80017fc:	46bd      	mov	sp, r7
 80017fe:	bc80      	pop	{r7}
 8001800:	4770      	bx	lr
 8001802:	bf00      	nop
 8001804:	08007608 	.word	0x08007608

08001808 <LL_DMA_SetPeriphAddress>:
  *         @arg @ref LL_DMA_CHANNEL_7
  * @param  PeriphAddress Between Min_Data = 0 and Max_Data = 0xFFFFFFFF
  * @retval None
  */
__STATIC_INLINE void LL_DMA_SetPeriphAddress(DMA_TypeDef *DMAx, uint32_t Channel, uint32_t PeriphAddress)
{
 8001808:	b480      	push	{r7}
 800180a:	b085      	sub	sp, #20
 800180c:	af00      	add	r7, sp, #0
 800180e:	60f8      	str	r0, [r7, #12]
 8001810:	60b9      	str	r1, [r7, #8]
 8001812:	607a      	str	r2, [r7, #4]
  WRITE_REG(((DMA_Channel_TypeDef *)((uint32_t)((uint32_t)DMAx + CHANNEL_OFFSET_TAB[Channel - 1U])))->CPAR, PeriphAddress);
 8001814:	68bb      	ldr	r3, [r7, #8]
 8001816:	3b01      	subs	r3, #1
 8001818:	4a06      	ldr	r2, [pc, #24]	; (8001834 <LL_DMA_SetPeriphAddress+0x2c>)
 800181a:	5cd3      	ldrb	r3, [r2, r3]
 800181c:	461a      	mov	r2, r3
 800181e:	68fb      	ldr	r3, [r7, #12]
 8001820:	4413      	add	r3, r2
 8001822:	461a      	mov	r2, r3
 8001824:	687b      	ldr	r3, [r7, #4]
 8001826:	6093      	str	r3, [r2, #8]
}
 8001828:	bf00      	nop
 800182a:	3714      	adds	r7, #20
 800182c:	46bd      	mov	sp, r7
 800182e:	bc80      	pop	{r7}
 8001830:	4770      	bx	lr
 8001832:	bf00      	nop
 8001834:	08007608 	.word	0x08007608

08001838 <LL_I2C_Enable>:
  * @rmtoll CR1          PE            LL_I2C_Enable
  * @param  I2Cx I2C Instance.
  * @retval None
  */
__STATIC_INLINE void LL_I2C_Enable(I2C_TypeDef *I2Cx)
{
 8001838:	b480      	push	{r7}
 800183a:	b083      	sub	sp, #12
 800183c:	af00      	add	r7, sp, #0
 800183e:	6078      	str	r0, [r7, #4]
  SET_BIT(I2Cx->CR1, I2C_CR1_PE);
 8001840:	687b      	ldr	r3, [r7, #4]
 8001842:	681b      	ldr	r3, [r3, #0]
 8001844:	f043 0201 	orr.w	r2, r3, #1
 8001848:	687b      	ldr	r3, [r7, #4]
 800184a:	601a      	str	r2, [r3, #0]
}
 800184c:	bf00      	nop
 800184e:	370c      	adds	r7, #12
 8001850:	46bd      	mov	sp, r7
 8001852:	bc80      	pop	{r7}
 8001854:	4770      	bx	lr

08001856 <LL_I2C_EnableClockStretching>:
  * @rmtoll CR1          NOSTRETCH     LL_I2C_EnableClockStretching
  * @param  I2Cx I2C Instance.
  * @retval None
  */
__STATIC_INLINE void LL_I2C_EnableClockStretching(I2C_TypeDef *I2Cx)
{
 8001856:	b480      	push	{r7}
 8001858:	b083      	sub	sp, #12
 800185a:	af00      	add	r7, sp, #0
 800185c:	6078      	str	r0, [r7, #4]
  CLEAR_BIT(I2Cx->CR1, I2C_CR1_NOSTRETCH);
 800185e:	687b      	ldr	r3, [r7, #4]
 8001860:	681b      	ldr	r3, [r3, #0]
 8001862:	f023 0280 	bic.w	r2, r3, #128	; 0x80
 8001866:	687b      	ldr	r3, [r7, #4]
 8001868:	601a      	str	r2, [r3, #0]
}
 800186a:	bf00      	nop
 800186c:	370c      	adds	r7, #12
 800186e:	46bd      	mov	sp, r7
 8001870:	bc80      	pop	{r7}
 8001872:	4770      	bx	lr

08001874 <LL_I2C_DisableGeneralCall>:
  * @rmtoll CR1          ENGC          LL_I2C_DisableGeneralCall
  * @param  I2Cx I2C Instance.
  * @retval None
  */
__STATIC_INLINE void LL_I2C_DisableGeneralCall(I2C_TypeDef *I2Cx)
{
 8001874:	b480      	push	{r7}
 8001876:	b083      	sub	sp, #12
 8001878:	af00      	add	r7, sp, #0
 800187a:	6078      	str	r0, [r7, #4]
  CLEAR_BIT(I2Cx->CR1, I2C_CR1_ENGC);
 800187c:	687b      	ldr	r3, [r7, #4]
 800187e:	681b      	ldr	r3, [r3, #0]
 8001880:	f023 0240 	bic.w	r2, r3, #64	; 0x40
 8001884:	687b      	ldr	r3, [r7, #4]
 8001886:	601a      	str	r2, [r3, #0]
}
 8001888:	bf00      	nop
 800188a:	370c      	adds	r7, #12
 800188c:	46bd      	mov	sp, r7
 800188e:	bc80      	pop	{r7}
 8001890:	4770      	bx	lr

08001892 <LL_I2C_SetOwnAddress2>:
  * @param  I2Cx I2C Instance.
  * @param  OwnAddress2 This parameter must be a value between Min_Data=0 and Max_Data=0x7F.
  * @retval None
  */
__STATIC_INLINE void LL_I2C_SetOwnAddress2(I2C_TypeDef *I2Cx, uint32_t OwnAddress2)
{
 8001892:	b480      	push	{r7}
 8001894:	b083      	sub	sp, #12
 8001896:	af00      	add	r7, sp, #0
 8001898:	6078      	str	r0, [r7, #4]
 800189a:	6039      	str	r1, [r7, #0]
  MODIFY_REG(I2Cx->OAR2, I2C_OAR2_ADD2, OwnAddress2);
 800189c:	687b      	ldr	r3, [r7, #4]
 800189e:	68db      	ldr	r3, [r3, #12]
 80018a0:	f023 02fe 	bic.w	r2, r3, #254	; 0xfe
 80018a4:	683b      	ldr	r3, [r7, #0]
 80018a6:	431a      	orrs	r2, r3
 80018a8:	687b      	ldr	r3, [r7, #4]
 80018aa:	60da      	str	r2, [r3, #12]
}
 80018ac:	bf00      	nop
 80018ae:	370c      	adds	r7, #12
 80018b0:	46bd      	mov	sp, r7
 80018b2:	bc80      	pop	{r7}
 80018b4:	4770      	bx	lr

080018b6 <LL_I2C_DisableOwnAddress2>:
  * @rmtoll OAR2         ENDUAL        LL_I2C_DisableOwnAddress2
  * @param  I2Cx I2C Instance.
  * @retval None
  */
__STATIC_INLINE void LL_I2C_DisableOwnAddress2(I2C_TypeDef *I2Cx)
{
 80018b6:	b480      	push	{r7}
 80018b8:	b083      	sub	sp, #12
 80018ba:	af00      	add	r7, sp, #0
 80018bc:	6078      	str	r0, [r7, #4]
  CLEAR_BIT(I2Cx->OAR2, I2C_OAR2_ENDUAL);
 80018be:	687b      	ldr	r3, [r7, #4]
 80018c0:	68db      	ldr	r3, [r3, #12]
 80018c2:	f023 0201 	bic.w	r2, r3, #1
 80018c6:	687b      	ldr	r3, [r7, #4]
 80018c8:	60da      	str	r2, [r3, #12]
}
 80018ca:	bf00      	nop
 80018cc:	370c      	adds	r7, #12
 80018ce:	46bd      	mov	sp, r7
 80018d0:	bc80      	pop	{r7}
 80018d2:	4770      	bx	lr

080018d4 <LL_RCC_HSE_Enable>:
  * @brief  Enable HSE crystal oscillator (HSE ON)
  * @rmtoll CR           HSEON         LL_RCC_HSE_Enable
  * @retval None
  */
__STATIC_INLINE void LL_RCC_HSE_Enable(void)
{
 80018d4:	b480      	push	{r7}
 80018d6:	af00      	add	r7, sp, #0
  SET_BIT(RCC->CR, RCC_CR_HSEON);
 80018d8:	4b04      	ldr	r3, [pc, #16]	; (80018ec <LL_RCC_HSE_Enable+0x18>)
 80018da:	681b      	ldr	r3, [r3, #0]
 80018dc:	4a03      	ldr	r2, [pc, #12]	; (80018ec <LL_RCC_HSE_Enable+0x18>)
 80018de:	f443 3380 	orr.w	r3, r3, #65536	; 0x10000
 80018e2:	6013      	str	r3, [r2, #0]
}
 80018e4:	bf00      	nop
 80018e6:	46bd      	mov	sp, r7
 80018e8:	bc80      	pop	{r7}
 80018ea:	4770      	bx	lr
 80018ec:	40021000 	.word	0x40021000

080018f0 <LL_RCC_HSE_IsReady>:
  * @brief  Check if HSE oscillator Ready
  * @rmtoll CR           HSERDY        LL_RCC_HSE_IsReady
  * @retval State of bit (1 or 0).
  */
__STATIC_INLINE uint32_t LL_RCC_HSE_IsReady(void)
{
 80018f0:	b480      	push	{r7}
 80018f2:	af00      	add	r7, sp, #0
  return (READ_BIT(RCC->CR, RCC_CR_HSERDY) == (RCC_CR_HSERDY));
 80018f4:	4b06      	ldr	r3, [pc, #24]	; (8001910 <LL_RCC_HSE_IsReady+0x20>)
 80018f6:	681b      	ldr	r3, [r3, #0]
 80018f8:	f403 3300 	and.w	r3, r3, #131072	; 0x20000
 80018fc:	f5b3 3f00 	cmp.w	r3, #131072	; 0x20000
 8001900:	bf0c      	ite	eq
 8001902:	2301      	moveq	r3, #1
 8001904:	2300      	movne	r3, #0
 8001906:	b2db      	uxtb	r3, r3
}
 8001908:	4618      	mov	r0, r3
 800190a:	46bd      	mov	sp, r7
 800190c:	bc80      	pop	{r7}
 800190e:	4770      	bx	lr
 8001910:	40021000 	.word	0x40021000

08001914 <LL_RCC_SetSysClkSource>:
  *         @arg @ref LL_RCC_SYS_CLKSOURCE_HSE
  *         @arg @ref LL_RCC_SYS_CLKSOURCE_PLL
  * @retval None
  */
__STATIC_INLINE void LL_RCC_SetSysClkSource(uint32_t Source)
{
 8001914:	b480      	push	{r7}
 8001916:	b083      	sub	sp, #12
 8001918:	af00      	add	r7, sp, #0
 800191a:	6078      	str	r0, [r7, #4]
  MODIFY_REG(RCC->CFGR, RCC_CFGR_SW, Source);
 800191c:	4b06      	ldr	r3, [pc, #24]	; (8001938 <LL_RCC_SetSysClkSource+0x24>)
 800191e:	685b      	ldr	r3, [r3, #4]
 8001920:	f023 0203 	bic.w	r2, r3, #3
 8001924:	4904      	ldr	r1, [pc, #16]	; (8001938 <LL_RCC_SetSysClkSource+0x24>)
 8001926:	687b      	ldr	r3, [r7, #4]
 8001928:	4313      	orrs	r3, r2
 800192a:	604b      	str	r3, [r1, #4]
}
 800192c:	bf00      	nop
 800192e:	370c      	adds	r7, #12
 8001930:	46bd      	mov	sp, r7
 8001932:	bc80      	pop	{r7}
 8001934:	4770      	bx	lr
 8001936:	bf00      	nop
 8001938:	40021000 	.word	0x40021000

0800193c <LL_RCC_GetSysClkSource>:
  *         @arg @ref LL_RCC_SYS_CLKSOURCE_STATUS_HSI
  *         @arg @ref LL_RCC_SYS_CLKSOURCE_STATUS_HSE
  *         @arg @ref LL_RCC_SYS_CLKSOURCE_STATUS_PLL
  */
__STATIC_INLINE uint32_t LL_RCC_GetSysClkSource(void)
{
 800193c:	b480      	push	{r7}
 800193e:	af00      	add	r7, sp, #0
  return (uint32_t)(READ_BIT(RCC->CFGR, RCC_CFGR_SWS));
 8001940:	4b03      	ldr	r3, [pc, #12]	; (8001950 <LL_RCC_GetSysClkSource+0x14>)
 8001942:	685b      	ldr	r3, [r3, #4]
 8001944:	f003 030c 	and.w	r3, r3, #12
}
 8001948:	4618      	mov	r0, r3
 800194a:	46bd      	mov	sp, r7
 800194c:	bc80      	pop	{r7}
 800194e:	4770      	bx	lr
 8001950:	40021000 	.word	0x40021000

08001954 <LL_RCC_SetAHBPrescaler>:
  *         @arg @ref LL_RCC_SYSCLK_DIV_256
  *         @arg @ref LL_RCC_SYSCLK_DIV_512
  * @retval None
  */
__STATIC_INLINE void LL_RCC_SetAHBPrescaler(uint32_t Prescaler)
{
 8001954:	b480      	push	{r7}
 8001956:	b083      	sub	sp, #12
 8001958:	af00      	add	r7, sp, #0
 800195a:	6078      	str	r0, [r7, #4]
  MODIFY_REG(RCC->CFGR, RCC_CFGR_HPRE, Prescaler);
 800195c:	4b06      	ldr	r3, [pc, #24]	; (8001978 <LL_RCC_SetAHBPrescaler+0x24>)
 800195e:	685b      	ldr	r3, [r3, #4]
 8001960:	f023 02f0 	bic.w	r2, r3, #240	; 0xf0
 8001964:	4904      	ldr	r1, [pc, #16]	; (8001978 <LL_RCC_SetAHBPrescaler+0x24>)
 8001966:	687b      	ldr	r3, [r7, #4]
 8001968:	4313      	orrs	r3, r2
 800196a:	604b      	str	r3, [r1, #4]
}
 800196c:	bf00      	nop
 800196e:	370c      	adds	r7, #12
 8001970:	46bd      	mov	sp, r7
 8001972:	bc80      	pop	{r7}
 8001974:	4770      	bx	lr
 8001976:	bf00      	nop
 8001978:	40021000 	.word	0x40021000

0800197c <LL_RCC_SetAPB1Prescaler>:
  *         @arg @ref LL_RCC_APB1_DIV_8
  *         @arg @ref LL_RCC_APB1_DIV_16
  * @retval None
  */
__STATIC_INLINE void LL_RCC_SetAPB1Prescaler(uint32_t Prescaler)
{
 800197c:	b480      	push	{r7}
 800197e:	b083      	sub	sp, #12
 8001980:	af00      	add	r7, sp, #0
 8001982:	6078      	str	r0, [r7, #4]
  MODIFY_REG(RCC->CFGR, RCC_CFGR_PPRE1, Prescaler);
 8001984:	4b06      	ldr	r3, [pc, #24]	; (80019a0 <LL_RCC_SetAPB1Prescaler+0x24>)
 8001986:	685b      	ldr	r3, [r3, #4]
 8001988:	f423 62e0 	bic.w	r2, r3, #1792	; 0x700
 800198c:	4904      	ldr	r1, [pc, #16]	; (80019a0 <LL_RCC_SetAPB1Prescaler+0x24>)
 800198e:	687b      	ldr	r3, [r7, #4]
 8001990:	4313      	orrs	r3, r2
 8001992:	604b      	str	r3, [r1, #4]
}
 8001994:	bf00      	nop
 8001996:	370c      	adds	r7, #12
 8001998:	46bd      	mov	sp, r7
 800199a:	bc80      	pop	{r7}
 800199c:	4770      	bx	lr
 800199e:	bf00      	nop
 80019a0:	40021000 	.word	0x40021000

080019a4 <LL_RCC_SetAPB2Prescaler>:
  *         @arg @ref LL_RCC_APB2_DIV_8
  *         @arg @ref LL_RCC_APB2_DIV_16
  * @retval None
  */
__STATIC_INLINE void LL_RCC_SetAPB2Prescaler(uint32_t Prescaler)
{
 80019a4:	b480      	push	{r7}
 80019a6:	b083      	sub	sp, #12
 80019a8:	af00      	add	r7, sp, #0
 80019aa:	6078      	str	r0, [r7, #4]
  MODIFY_REG(RCC->CFGR, RCC_CFGR_PPRE2, Prescaler);
 80019ac:	4b06      	ldr	r3, [pc, #24]	; (80019c8 <LL_RCC_SetAPB2Prescaler+0x24>)
 80019ae:	685b      	ldr	r3, [r3, #4]
 80019b0:	f423 5260 	bic.w	r2, r3, #14336	; 0x3800
 80019b4:	4904      	ldr	r1, [pc, #16]	; (80019c8 <LL_RCC_SetAPB2Prescaler+0x24>)
 80019b6:	687b      	ldr	r3, [r7, #4]
 80019b8:	4313      	orrs	r3, r2
 80019ba:	604b      	str	r3, [r1, #4]
}
 80019bc:	bf00      	nop
 80019be:	370c      	adds	r7, #12
 80019c0:	46bd      	mov	sp, r7
 80019c2:	bc80      	pop	{r7}
 80019c4:	4770      	bx	lr
 80019c6:	bf00      	nop
 80019c8:	40021000 	.word	0x40021000

080019cc <LL_RCC_SetADCClockSource>:
  *         @arg @ref LL_RCC_ADC_CLKSRC_PCLK2_DIV_6
  *         @arg @ref LL_RCC_ADC_CLKSRC_PCLK2_DIV_8
  * @retval None
  */
__STATIC_INLINE void LL_RCC_SetADCClockSource(uint32_t ADCxSource)
{
 80019cc:	b480      	push	{r7}
 80019ce:	b083      	sub	sp, #12
 80019d0:	af00      	add	r7, sp, #0
 80019d2:	6078      	str	r0, [r7, #4]
  MODIFY_REG(RCC->CFGR, RCC_CFGR_ADCPRE, ADCxSource);
 80019d4:	4b06      	ldr	r3, [pc, #24]	; (80019f0 <LL_RCC_SetADCClockSource+0x24>)
 80019d6:	685b      	ldr	r3, [r3, #4]
 80019d8:	f423 4240 	bic.w	r2, r3, #49152	; 0xc000
 80019dc:	4904      	ldr	r1, [pc, #16]	; (80019f0 <LL_RCC_SetADCClockSource+0x24>)
 80019de:	687b      	ldr	r3, [r7, #4]
 80019e0:	4313      	orrs	r3, r2
 80019e2:	604b      	str	r3, [r1, #4]
}
 80019e4:	bf00      	nop
 80019e6:	370c      	adds	r7, #12
 80019e8:	46bd      	mov	sp, r7
 80019ea:	bc80      	pop	{r7}
 80019ec:	4770      	bx	lr
 80019ee:	bf00      	nop
 80019f0:	40021000 	.word	0x40021000

080019f4 <LL_RCC_PLL_Enable>:
  * @brief  Enable PLL
  * @rmtoll CR           PLLON         LL_RCC_PLL_Enable
  * @retval None
  */
__STATIC_INLINE void LL_RCC_PLL_Enable(void)
{
 80019f4:	b480      	push	{r7}
 80019f6:	af00      	add	r7, sp, #0
  SET_BIT(RCC->CR, RCC_CR_PLLON);
 80019f8:	4b04      	ldr	r3, [pc, #16]	; (8001a0c <LL_RCC_PLL_Enable+0x18>)
 80019fa:	681b      	ldr	r3, [r3, #0]
 80019fc:	4a03      	ldr	r2, [pc, #12]	; (8001a0c <LL_RCC_PLL_Enable+0x18>)
 80019fe:	f043 7380 	orr.w	r3, r3, #16777216	; 0x1000000
 8001a02:	6013      	str	r3, [r2, #0]
}
 8001a04:	bf00      	nop
 8001a06:	46bd      	mov	sp, r7
 8001a08:	bc80      	pop	{r7}
 8001a0a:	4770      	bx	lr
 8001a0c:	40021000 	.word	0x40021000

08001a10 <LL_RCC_PLL_IsReady>:
  * @brief  Check if PLL Ready
  * @rmtoll CR           PLLRDY        LL_RCC_PLL_IsReady
  * @retval State of bit (1 or 0).
  */
__STATIC_INLINE uint32_t LL_RCC_PLL_IsReady(void)
{
 8001a10:	b480      	push	{r7}
 8001a12:	af00      	add	r7, sp, #0
  return (READ_BIT(RCC->CR, RCC_CR_PLLRDY) == (RCC_CR_PLLRDY));
 8001a14:	4b06      	ldr	r3, [pc, #24]	; (8001a30 <LL_RCC_PLL_IsReady+0x20>)
 8001a16:	681b      	ldr	r3, [r3, #0]
 8001a18:	f003 7300 	and.w	r3, r3, #33554432	; 0x2000000
 8001a1c:	f1b3 7f00 	cmp.w	r3, #33554432	; 0x2000000
 8001a20:	bf0c      	ite	eq
 8001a22:	2301      	moveq	r3, #1
 8001a24:	2300      	movne	r3, #0
 8001a26:	b2db      	uxtb	r3, r3
}
 8001a28:	4618      	mov	r0, r3
 8001a2a:	46bd      	mov	sp, r7
 8001a2c:	bc80      	pop	{r7}
 8001a2e:	4770      	bx	lr
 8001a30:	40021000 	.word	0x40021000

08001a34 <LL_RCC_PLL_ConfigDomain_SYS>:
  *
  *         (*) value not defined in all devices
  * @retval None
  */
__STATIC_INLINE void LL_RCC_PLL_ConfigDomain_SYS(uint32_t Source, uint32_t PLLMul)
{
 8001a34:	b480      	push	{r7}
 8001a36:	b083      	sub	sp, #12
 8001a38:	af00      	add	r7, sp, #0
 8001a3a:	6078      	str	r0, [r7, #4]
 8001a3c:	6039      	str	r1, [r7, #0]
  MODIFY_REG(RCC->CFGR, RCC_CFGR_PLLSRC | RCC_CFGR_PLLXTPRE | RCC_CFGR_PLLMULL,
 8001a3e:	4b08      	ldr	r3, [pc, #32]	; (8001a60 <LL_RCC_PLL_ConfigDomain_SYS+0x2c>)
 8001a40:	685b      	ldr	r3, [r3, #4]
 8001a42:	f423 127c 	bic.w	r2, r3, #4128768	; 0x3f0000
 8001a46:	687b      	ldr	r3, [r7, #4]
 8001a48:	f403 3140 	and.w	r1, r3, #196608	; 0x30000
 8001a4c:	683b      	ldr	r3, [r7, #0]
 8001a4e:	430b      	orrs	r3, r1
 8001a50:	4903      	ldr	r1, [pc, #12]	; (8001a60 <LL_RCC_PLL_ConfigDomain_SYS+0x2c>)
 8001a52:	4313      	orrs	r3, r2
 8001a54:	604b      	str	r3, [r1, #4]
             (Source & RCC_CFGR2_PREDIV1) | ((Source & (RCC_CFGR2_PREDIV1SRC << 4U)) >> 4U));
#else
  MODIFY_REG(RCC->CFGR2, RCC_CFGR2_PREDIV1, (Source & RCC_CFGR2_PREDIV1));
#endif /*RCC_CFGR2_PREDIV1SRC*/
#endif /*RCC_CFGR2_PREDIV1*/
}
 8001a56:	bf00      	nop
 8001a58:	370c      	adds	r7, #12
 8001a5a:	46bd      	mov	sp, r7
 8001a5c:	bc80      	pop	{r7}
 8001a5e:	4770      	bx	lr
 8001a60:	40021000 	.word	0x40021000

08001a64 <LL_AHB1_GRP1_EnableClock>:
  *
  *         (*) value not defined in all devices.
  * @retval None
*/
__STATIC_INLINE void LL_AHB1_GRP1_EnableClock(uint32_t Periphs)
{
 8001a64:	b480      	push	{r7}
 8001a66:	b085      	sub	sp, #20
 8001a68:	af00      	add	r7, sp, #0
 8001a6a:	6078      	str	r0, [r7, #4]
  __IO uint32_t tmpreg;
  SET_BIT(RCC->AHBENR, Periphs);
 8001a6c:	4b08      	ldr	r3, [pc, #32]	; (8001a90 <LL_AHB1_GRP1_EnableClock+0x2c>)
 8001a6e:	695a      	ldr	r2, [r3, #20]
 8001a70:	4907      	ldr	r1, [pc, #28]	; (8001a90 <LL_AHB1_GRP1_EnableClock+0x2c>)
 8001a72:	687b      	ldr	r3, [r7, #4]
 8001a74:	4313      	orrs	r3, r2
 8001a76:	614b      	str	r3, [r1, #20]
  /* Delay after an RCC peripheral clock enabling */
  tmpreg = READ_BIT(RCC->AHBENR, Periphs);
 8001a78:	4b05      	ldr	r3, [pc, #20]	; (8001a90 <LL_AHB1_GRP1_EnableClock+0x2c>)
 8001a7a:	695a      	ldr	r2, [r3, #20]
 8001a7c:	687b      	ldr	r3, [r7, #4]
 8001a7e:	4013      	ands	r3, r2
 8001a80:	60fb      	str	r3, [r7, #12]
  (void)tmpreg;
 8001a82:	68fb      	ldr	r3, [r7, #12]
}
 8001a84:	bf00      	nop
 8001a86:	3714      	adds	r7, #20
 8001a88:	46bd      	mov	sp, r7
 8001a8a:	bc80      	pop	{r7}
 8001a8c:	4770      	bx	lr
 8001a8e:	bf00      	nop
 8001a90:	40021000 	.word	0x40021000

08001a94 <LL_APB1_GRP1_EnableClock>:
  *
  *         (*) value not defined in all devices.
  * @retval None
*/
__STATIC_INLINE void LL_APB1_GRP1_EnableClock(uint32_t Periphs)
{
 8001a94:	b480      	push	{r7}
 8001a96:	b085      	sub	sp, #20
 8001a98:	af00      	add	r7, sp, #0
 8001a9a:	6078      	str	r0, [r7, #4]
  __IO uint32_t tmpreg;
  SET_BIT(RCC->APB1ENR, Periphs);
 8001a9c:	4b08      	ldr	r3, [pc, #32]	; (8001ac0 <LL_APB1_GRP1_EnableClock+0x2c>)
 8001a9e:	69da      	ldr	r2, [r3, #28]
 8001aa0:	4907      	ldr	r1, [pc, #28]	; (8001ac0 <LL_APB1_GRP1_EnableClock+0x2c>)
 8001aa2:	687b      	ldr	r3, [r7, #4]
 8001aa4:	4313      	orrs	r3, r2
 8001aa6:	61cb      	str	r3, [r1, #28]
  /* Delay after an RCC peripheral clock enabling */
  tmpreg = READ_BIT(RCC->APB1ENR, Periphs);
 8001aa8:	4b05      	ldr	r3, [pc, #20]	; (8001ac0 <LL_APB1_GRP1_EnableClock+0x2c>)
 8001aaa:	69da      	ldr	r2, [r3, #28]
 8001aac:	687b      	ldr	r3, [r7, #4]
 8001aae:	4013      	ands	r3, r2
 8001ab0:	60fb      	str	r3, [r7, #12]
  (void)tmpreg;
 8001ab2:	68fb      	ldr	r3, [r7, #12]
}
 8001ab4:	bf00      	nop
 8001ab6:	3714      	adds	r7, #20
 8001ab8:	46bd      	mov	sp, r7
 8001aba:	bc80      	pop	{r7}
 8001abc:	4770      	bx	lr
 8001abe:	bf00      	nop
 8001ac0:	40021000 	.word	0x40021000

08001ac4 <LL_APB2_GRP1_EnableClock>:
  *
  *         (*) value not defined in all devices.
  * @retval None
*/
__STATIC_INLINE void LL_APB2_GRP1_EnableClock(uint32_t Periphs)
{
 8001ac4:	b480      	push	{r7}
 8001ac6:	b085      	sub	sp, #20
 8001ac8:	af00      	add	r7, sp, #0
 8001aca:	6078      	str	r0, [r7, #4]
  __IO uint32_t tmpreg;
  SET_BIT(RCC->APB2ENR, Periphs);
 8001acc:	4b08      	ldr	r3, [pc, #32]	; (8001af0 <LL_APB2_GRP1_EnableClock+0x2c>)
 8001ace:	699a      	ldr	r2, [r3, #24]
 8001ad0:	4907      	ldr	r1, [pc, #28]	; (8001af0 <LL_APB2_GRP1_EnableClock+0x2c>)
 8001ad2:	687b      	ldr	r3, [r7, #4]
 8001ad4:	4313      	orrs	r3, r2
 8001ad6:	618b      	str	r3, [r1, #24]
  /* Delay after an RCC peripheral clock enabling */
  tmpreg = READ_BIT(RCC->APB2ENR, Periphs);
 8001ad8:	4b05      	ldr	r3, [pc, #20]	; (8001af0 <LL_APB2_GRP1_EnableClock+0x2c>)
 8001ada:	699a      	ldr	r2, [r3, #24]
 8001adc:	687b      	ldr	r3, [r7, #4]
 8001ade:	4013      	ands	r3, r2
 8001ae0:	60fb      	str	r3, [r7, #12]
  (void)tmpreg;
 8001ae2:	68fb      	ldr	r3, [r7, #12]
}
 8001ae4:	bf00      	nop
 8001ae6:	3714      	adds	r7, #20
 8001ae8:	46bd      	mov	sp, r7
 8001aea:	bc80      	pop	{r7}
 8001aec:	4770      	bx	lr
 8001aee:	bf00      	nop
 8001af0:	40021000 	.word	0x40021000

08001af4 <LL_FLASH_SetLatency>:
  *         @arg @ref LL_FLASH_LATENCY_1
  *         @arg @ref LL_FLASH_LATENCY_2
  * @retval None
  */
__STATIC_INLINE void LL_FLASH_SetLatency(uint32_t Latency)
{
 8001af4:	b480      	push	{r7}
 8001af6:	b083      	sub	sp, #12
 8001af8:	af00      	add	r7, sp, #0
 8001afa:	6078      	str	r0, [r7, #4]
  MODIFY_REG(FLASH->ACR, FLASH_ACR_LATENCY, Latency);
 8001afc:	4b06      	ldr	r3, [pc, #24]	; (8001b18 <LL_FLASH_SetLatency+0x24>)
 8001afe:	681b      	ldr	r3, [r3, #0]
 8001b00:	f023 0207 	bic.w	r2, r3, #7
 8001b04:	4904      	ldr	r1, [pc, #16]	; (8001b18 <LL_FLASH_SetLatency+0x24>)
 8001b06:	687b      	ldr	r3, [r7, #4]
 8001b08:	4313      	orrs	r3, r2
 8001b0a:	600b      	str	r3, [r1, #0]
}
 8001b0c:	bf00      	nop
 8001b0e:	370c      	adds	r7, #12
 8001b10:	46bd      	mov	sp, r7
 8001b12:	bc80      	pop	{r7}
 8001b14:	4770      	bx	lr
 8001b16:	bf00      	nop
 8001b18:	40022000 	.word	0x40022000

08001b1c <LL_FLASH_GetLatency>:
  *         @arg @ref LL_FLASH_LATENCY_0
  *         @arg @ref LL_FLASH_LATENCY_1
  *         @arg @ref LL_FLASH_LATENCY_2
  */
__STATIC_INLINE uint32_t LL_FLASH_GetLatency(void)
{
 8001b1c:	b480      	push	{r7}
 8001b1e:	af00      	add	r7, sp, #0
  return (uint32_t)(READ_BIT(FLASH->ACR, FLASH_ACR_LATENCY));
 8001b20:	4b03      	ldr	r3, [pc, #12]	; (8001b30 <LL_FLASH_GetLatency+0x14>)
 8001b22:	681b      	ldr	r3, [r3, #0]
 8001b24:	f003 0307 	and.w	r3, r3, #7
}
 8001b28:	4618      	mov	r0, r3
 8001b2a:	46bd      	mov	sp, r7
 8001b2c:	bc80      	pop	{r7}
 8001b2e:	4770      	bx	lr
 8001b30:	40022000 	.word	0x40022000

08001b34 <LL_TIM_EnableCounter>:
{
 8001b34:	b480      	push	{r7}
 8001b36:	b083      	sub	sp, #12
 8001b38:	af00      	add	r7, sp, #0
 8001b3a:	6078      	str	r0, [r7, #4]
  SET_BIT(TIMx->CR1, TIM_CR1_CEN);
 8001b3c:	687b      	ldr	r3, [r7, #4]
 8001b3e:	681b      	ldr	r3, [r3, #0]
 8001b40:	f043 0201 	orr.w	r2, r3, #1
 8001b44:	687b      	ldr	r3, [r7, #4]
 8001b46:	601a      	str	r2, [r3, #0]
}
 8001b48:	bf00      	nop
 8001b4a:	370c      	adds	r7, #12
 8001b4c:	46bd      	mov	sp, r7
 8001b4e:	bc80      	pop	{r7}
 8001b50:	4770      	bx	lr

08001b52 <LL_TIM_DisableARRPreload>:
{
 8001b52:	b480      	push	{r7}
 8001b54:	b083      	sub	sp, #12
 8001b56:	af00      	add	r7, sp, #0
 8001b58:	6078      	str	r0, [r7, #4]
  CLEAR_BIT(TIMx->CR1, TIM_CR1_ARPE);
 8001b5a:	687b      	ldr	r3, [r7, #4]
 8001b5c:	681b      	ldr	r3, [r3, #0]
 8001b5e:	f023 0280 	bic.w	r2, r3, #128	; 0x80
 8001b62:	687b      	ldr	r3, [r7, #4]
 8001b64:	601a      	str	r2, [r3, #0]
}
 8001b66:	bf00      	nop
 8001b68:	370c      	adds	r7, #12
 8001b6a:	46bd      	mov	sp, r7
 8001b6c:	bc80      	pop	{r7}
 8001b6e:	4770      	bx	lr

08001b70 <LL_TIM_SetCounter>:
{
 8001b70:	b480      	push	{r7}
 8001b72:	b083      	sub	sp, #12
 8001b74:	af00      	add	r7, sp, #0
 8001b76:	6078      	str	r0, [r7, #4]
 8001b78:	6039      	str	r1, [r7, #0]
  WRITE_REG(TIMx->CNT, Counter);
 8001b7a:	687b      	ldr	r3, [r7, #4]
 8001b7c:	683a      	ldr	r2, [r7, #0]
 8001b7e:	625a      	str	r2, [r3, #36]	; 0x24
}
 8001b80:	bf00      	nop
 8001b82:	370c      	adds	r7, #12
 8001b84:	46bd      	mov	sp, r7
 8001b86:	bc80      	pop	{r7}
 8001b88:	4770      	bx	lr
	...

08001b8c <LL_TIM_OC_DisableFast>:
{
 8001b8c:	b4b0      	push	{r4, r5, r7}
 8001b8e:	b083      	sub	sp, #12
 8001b90:	af00      	add	r7, sp, #0
 8001b92:	6078      	str	r0, [r7, #4]
 8001b94:	6039      	str	r1, [r7, #0]
  register uint8_t iChannel = TIM_GET_CHANNEL_INDEX(Channel);
 8001b96:	683b      	ldr	r3, [r7, #0]
 8001b98:	2b01      	cmp	r3, #1
 8001b9a:	d01c      	beq.n	8001bd6 <LL_TIM_OC_DisableFast+0x4a>
 8001b9c:	683b      	ldr	r3, [r7, #0]
 8001b9e:	2b04      	cmp	r3, #4
 8001ba0:	d017      	beq.n	8001bd2 <LL_TIM_OC_DisableFast+0x46>
 8001ba2:	683b      	ldr	r3, [r7, #0]
 8001ba4:	2b10      	cmp	r3, #16
 8001ba6:	d012      	beq.n	8001bce <LL_TIM_OC_DisableFast+0x42>
 8001ba8:	683b      	ldr	r3, [r7, #0]
 8001baa:	2b40      	cmp	r3, #64	; 0x40
 8001bac:	d00d      	beq.n	8001bca <LL_TIM_OC_DisableFast+0x3e>
 8001bae:	683b      	ldr	r3, [r7, #0]
 8001bb0:	f5b3 7f80 	cmp.w	r3, #256	; 0x100
 8001bb4:	d007      	beq.n	8001bc6 <LL_TIM_OC_DisableFast+0x3a>
 8001bb6:	683b      	ldr	r3, [r7, #0]
 8001bb8:	f5b3 6f80 	cmp.w	r3, #1024	; 0x400
 8001bbc:	d101      	bne.n	8001bc2 <LL_TIM_OC_DisableFast+0x36>
 8001bbe:	2305      	movs	r3, #5
 8001bc0:	e00a      	b.n	8001bd8 <LL_TIM_OC_DisableFast+0x4c>
 8001bc2:	2306      	movs	r3, #6
 8001bc4:	e008      	b.n	8001bd8 <LL_TIM_OC_DisableFast+0x4c>
 8001bc6:	2304      	movs	r3, #4
 8001bc8:	e006      	b.n	8001bd8 <LL_TIM_OC_DisableFast+0x4c>
 8001bca:	2303      	movs	r3, #3
 8001bcc:	e004      	b.n	8001bd8 <LL_TIM_OC_DisableFast+0x4c>
 8001bce:	2302      	movs	r3, #2
 8001bd0:	e002      	b.n	8001bd8 <LL_TIM_OC_DisableFast+0x4c>
 8001bd2:	2301      	movs	r3, #1
 8001bd4:	e000      	b.n	8001bd8 <LL_TIM_OC_DisableFast+0x4c>
 8001bd6:	2300      	movs	r3, #0
 8001bd8:	461d      	mov	r5, r3
  register __IO uint32_t *pReg = (__IO uint32_t *)((uint32_t)((uint32_t)(&TIMx->CCMR1) + OFFSET_TAB_CCMRx[iChannel]));
 8001bda:	687b      	ldr	r3, [r7, #4]
 8001bdc:	3318      	adds	r3, #24
 8001bde:	461a      	mov	r2, r3
 8001be0:	4629      	mov	r1, r5
 8001be2:	4b09      	ldr	r3, [pc, #36]	; (8001c08 <LL_TIM_OC_DisableFast+0x7c>)
 8001be4:	5c5b      	ldrb	r3, [r3, r1]
 8001be6:	4413      	add	r3, r2
 8001be8:	461c      	mov	r4, r3
  CLEAR_BIT(*pReg, (TIM_CCMR1_OC1FE << SHIFT_TAB_OCxx[iChannel]));
 8001bea:	6822      	ldr	r2, [r4, #0]
 8001bec:	4629      	mov	r1, r5
 8001bee:	4b07      	ldr	r3, [pc, #28]	; (8001c0c <LL_TIM_OC_DisableFast+0x80>)
 8001bf0:	5c5b      	ldrb	r3, [r3, r1]
 8001bf2:	4619      	mov	r1, r3
 8001bf4:	2304      	movs	r3, #4
 8001bf6:	408b      	lsls	r3, r1
 8001bf8:	43db      	mvns	r3, r3
 8001bfa:	4013      	ands	r3, r2
 8001bfc:	6023      	str	r3, [r4, #0]
}
 8001bfe:	bf00      	nop
 8001c00:	370c      	adds	r7, #12
 8001c02:	46bd      	mov	sp, r7
 8001c04:	bcb0      	pop	{r4, r5, r7}
 8001c06:	4770      	bx	lr
 8001c08:	08007610 	.word	0x08007610
 8001c0c:	08007618 	.word	0x08007618

08001c10 <LL_TIM_OC_EnablePreload>:
{
 8001c10:	b4b0      	push	{r4, r5, r7}
 8001c12:	b083      	sub	sp, #12
 8001c14:	af00      	add	r7, sp, #0
 8001c16:	6078      	str	r0, [r7, #4]
 8001c18:	6039      	str	r1, [r7, #0]
  register uint8_t iChannel = TIM_GET_CHANNEL_INDEX(Channel);
 8001c1a:	683b      	ldr	r3, [r7, #0]
 8001c1c:	2b01      	cmp	r3, #1
 8001c1e:	d01c      	beq.n	8001c5a <LL_TIM_OC_EnablePreload+0x4a>
 8001c20:	683b      	ldr	r3, [r7, #0]
 8001c22:	2b04      	cmp	r3, #4
 8001c24:	d017      	beq.n	8001c56 <LL_TIM_OC_EnablePreload+0x46>
 8001c26:	683b      	ldr	r3, [r7, #0]
 8001c28:	2b10      	cmp	r3, #16
 8001c2a:	d012      	beq.n	8001c52 <LL_TIM_OC_EnablePreload+0x42>
 8001c2c:	683b      	ldr	r3, [r7, #0]
 8001c2e:	2b40      	cmp	r3, #64	; 0x40
 8001c30:	d00d      	beq.n	8001c4e <LL_TIM_OC_EnablePreload+0x3e>
 8001c32:	683b      	ldr	r3, [r7, #0]
 8001c34:	f5b3 7f80 	cmp.w	r3, #256	; 0x100
 8001c38:	d007      	beq.n	8001c4a <LL_TIM_OC_EnablePreload+0x3a>
 8001c3a:	683b      	ldr	r3, [r7, #0]
 8001c3c:	f5b3 6f80 	cmp.w	r3, #1024	; 0x400
 8001c40:	d101      	bne.n	8001c46 <LL_TIM_OC_EnablePreload+0x36>
 8001c42:	2305      	movs	r3, #5
 8001c44:	e00a      	b.n	8001c5c <LL_TIM_OC_EnablePreload+0x4c>
 8001c46:	2306      	movs	r3, #6
 8001c48:	e008      	b.n	8001c5c <LL_TIM_OC_EnablePreload+0x4c>
 8001c4a:	2304      	movs	r3, #4
 8001c4c:	e006      	b.n	8001c5c <LL_TIM_OC_EnablePreload+0x4c>
 8001c4e:	2303      	movs	r3, #3
 8001c50:	e004      	b.n	8001c5c <LL_TIM_OC_EnablePreload+0x4c>
 8001c52:	2302      	movs	r3, #2
 8001c54:	e002      	b.n	8001c5c <LL_TIM_OC_EnablePreload+0x4c>
 8001c56:	2301      	movs	r3, #1
 8001c58:	e000      	b.n	8001c5c <LL_TIM_OC_EnablePreload+0x4c>
 8001c5a:	2300      	movs	r3, #0
 8001c5c:	461d      	mov	r5, r3
  register __IO uint32_t *pReg = (__IO uint32_t *)((uint32_t)((uint32_t)(&TIMx->CCMR1) + OFFSET_TAB_CCMRx[iChannel]));
 8001c5e:	687b      	ldr	r3, [r7, #4]
 8001c60:	3318      	adds	r3, #24
 8001c62:	461a      	mov	r2, r3
 8001c64:	4629      	mov	r1, r5
 8001c66:	4b09      	ldr	r3, [pc, #36]	; (8001c8c <LL_TIM_OC_EnablePreload+0x7c>)
 8001c68:	5c5b      	ldrb	r3, [r3, r1]
 8001c6a:	4413      	add	r3, r2
 8001c6c:	461c      	mov	r4, r3
  SET_BIT(*pReg, (TIM_CCMR1_OC1PE << SHIFT_TAB_OCxx[iChannel]));
 8001c6e:	6822      	ldr	r2, [r4, #0]
 8001c70:	4629      	mov	r1, r5
 8001c72:	4b07      	ldr	r3, [pc, #28]	; (8001c90 <LL_TIM_OC_EnablePreload+0x80>)
 8001c74:	5c5b      	ldrb	r3, [r3, r1]
 8001c76:	4619      	mov	r1, r3
 8001c78:	2308      	movs	r3, #8
 8001c7a:	408b      	lsls	r3, r1
 8001c7c:	4313      	orrs	r3, r2
 8001c7e:	6023      	str	r3, [r4, #0]
}
 8001c80:	bf00      	nop
 8001c82:	370c      	adds	r7, #12
 8001c84:	46bd      	mov	sp, r7
 8001c86:	bcb0      	pop	{r4, r5, r7}
 8001c88:	4770      	bx	lr
 8001c8a:	bf00      	nop
 8001c8c:	08007610 	.word	0x08007610
 8001c90:	08007618 	.word	0x08007618

08001c94 <LL_TIM_OC_DisablePreload>:
{
 8001c94:	b4b0      	push	{r4, r5, r7}
 8001c96:	b083      	sub	sp, #12
 8001c98:	af00      	add	r7, sp, #0
 8001c9a:	6078      	str	r0, [r7, #4]
 8001c9c:	6039      	str	r1, [r7, #0]
  register uint8_t iChannel = TIM_GET_CHANNEL_INDEX(Channel);
 8001c9e:	683b      	ldr	r3, [r7, #0]
 8001ca0:	2b01      	cmp	r3, #1
 8001ca2:	d01c      	beq.n	8001cde <LL_TIM_OC_DisablePreload+0x4a>
 8001ca4:	683b      	ldr	r3, [r7, #0]
 8001ca6:	2b04      	cmp	r3, #4
 8001ca8:	d017      	beq.n	8001cda <LL_TIM_OC_DisablePreload+0x46>
 8001caa:	683b      	ldr	r3, [r7, #0]
 8001cac:	2b10      	cmp	r3, #16
 8001cae:	d012      	beq.n	8001cd6 <LL_TIM_OC_DisablePreload+0x42>
 8001cb0:	683b      	ldr	r3, [r7, #0]
 8001cb2:	2b40      	cmp	r3, #64	; 0x40
 8001cb4:	d00d      	beq.n	8001cd2 <LL_TIM_OC_DisablePreload+0x3e>
 8001cb6:	683b      	ldr	r3, [r7, #0]
 8001cb8:	f5b3 7f80 	cmp.w	r3, #256	; 0x100
 8001cbc:	d007      	beq.n	8001cce <LL_TIM_OC_DisablePreload+0x3a>
 8001cbe:	683b      	ldr	r3, [r7, #0]
 8001cc0:	f5b3 6f80 	cmp.w	r3, #1024	; 0x400
 8001cc4:	d101      	bne.n	8001cca <LL_TIM_OC_DisablePreload+0x36>
 8001cc6:	2305      	movs	r3, #5
 8001cc8:	e00a      	b.n	8001ce0 <LL_TIM_OC_DisablePreload+0x4c>
 8001cca:	2306      	movs	r3, #6
 8001ccc:	e008      	b.n	8001ce0 <LL_TIM_OC_DisablePreload+0x4c>
 8001cce:	2304      	movs	r3, #4
 8001cd0:	e006      	b.n	8001ce0 <LL_TIM_OC_DisablePreload+0x4c>
 8001cd2:	2303      	movs	r3, #3
 8001cd4:	e004      	b.n	8001ce0 <LL_TIM_OC_DisablePreload+0x4c>
 8001cd6:	2302      	movs	r3, #2
 8001cd8:	e002      	b.n	8001ce0 <LL_TIM_OC_DisablePreload+0x4c>
 8001cda:	2301      	movs	r3, #1
 8001cdc:	e000      	b.n	8001ce0 <LL_TIM_OC_DisablePreload+0x4c>
 8001cde:	2300      	movs	r3, #0
 8001ce0:	461d      	mov	r5, r3
  register __IO uint32_t *pReg = (__IO uint32_t *)((uint32_t)((uint32_t)(&TIMx->CCMR1) + OFFSET_TAB_CCMRx[iChannel]));
 8001ce2:	687b      	ldr	r3, [r7, #4]
 8001ce4:	3318      	adds	r3, #24
 8001ce6:	461a      	mov	r2, r3
 8001ce8:	4629      	mov	r1, r5
 8001cea:	4b09      	ldr	r3, [pc, #36]	; (8001d10 <LL_TIM_OC_DisablePreload+0x7c>)
 8001cec:	5c5b      	ldrb	r3, [r3, r1]
 8001cee:	4413      	add	r3, r2
 8001cf0:	461c      	mov	r4, r3
  CLEAR_BIT(*pReg, (TIM_CCMR1_OC1PE << SHIFT_TAB_OCxx[iChannel]));
 8001cf2:	6822      	ldr	r2, [r4, #0]
 8001cf4:	4629      	mov	r1, r5
 8001cf6:	4b07      	ldr	r3, [pc, #28]	; (8001d14 <LL_TIM_OC_DisablePreload+0x80>)
 8001cf8:	5c5b      	ldrb	r3, [r3, r1]
 8001cfa:	4619      	mov	r1, r3
 8001cfc:	2308      	movs	r3, #8
 8001cfe:	408b      	lsls	r3, r1
 8001d00:	43db      	mvns	r3, r3
 8001d02:	4013      	ands	r3, r2
 8001d04:	6023      	str	r3, [r4, #0]
}
 8001d06:	bf00      	nop
 8001d08:	370c      	adds	r7, #12
 8001d0a:	46bd      	mov	sp, r7
 8001d0c:	bcb0      	pop	{r4, r5, r7}
 8001d0e:	4770      	bx	lr
 8001d10:	08007610 	.word	0x08007610
 8001d14:	08007618 	.word	0x08007618

08001d18 <LL_TIM_IC_SetActiveInput>:
  *         @arg @ref LL_TIM_ACTIVEINPUT_INDIRECTTI
  *         @arg @ref LL_TIM_ACTIVEINPUT_TRC
  * @retval None
  */
__STATIC_INLINE void LL_TIM_IC_SetActiveInput(TIM_TypeDef *TIMx, uint32_t Channel, uint32_t ICActiveInput)
{
 8001d18:	b4b0      	push	{r4, r5, r7}
 8001d1a:	b085      	sub	sp, #20
 8001d1c:	af00      	add	r7, sp, #0
 8001d1e:	60f8      	str	r0, [r7, #12]
 8001d20:	60b9      	str	r1, [r7, #8]
 8001d22:	607a      	str	r2, [r7, #4]
  register uint8_t iChannel = TIM_GET_CHANNEL_INDEX(Channel);
 8001d24:	68bb      	ldr	r3, [r7, #8]
 8001d26:	2b01      	cmp	r3, #1
 8001d28:	d01c      	beq.n	8001d64 <LL_TIM_IC_SetActiveInput+0x4c>
 8001d2a:	68bb      	ldr	r3, [r7, #8]
 8001d2c:	2b04      	cmp	r3, #4
 8001d2e:	d017      	beq.n	8001d60 <LL_TIM_IC_SetActiveInput+0x48>
 8001d30:	68bb      	ldr	r3, [r7, #8]
 8001d32:	2b10      	cmp	r3, #16
 8001d34:	d012      	beq.n	8001d5c <LL_TIM_IC_SetActiveInput+0x44>
 8001d36:	68bb      	ldr	r3, [r7, #8]
 8001d38:	2b40      	cmp	r3, #64	; 0x40
 8001d3a:	d00d      	beq.n	8001d58 <LL_TIM_IC_SetActiveInput+0x40>
 8001d3c:	68bb      	ldr	r3, [r7, #8]
 8001d3e:	f5b3 7f80 	cmp.w	r3, #256	; 0x100
 8001d42:	d007      	beq.n	8001d54 <LL_TIM_IC_SetActiveInput+0x3c>
 8001d44:	68bb      	ldr	r3, [r7, #8]
 8001d46:	f5b3 6f80 	cmp.w	r3, #1024	; 0x400
 8001d4a:	d101      	bne.n	8001d50 <LL_TIM_IC_SetActiveInput+0x38>
 8001d4c:	2305      	movs	r3, #5
 8001d4e:	e00a      	b.n	8001d66 <LL_TIM_IC_SetActiveInput+0x4e>
 8001d50:	2306      	movs	r3, #6
 8001d52:	e008      	b.n	8001d66 <LL_TIM_IC_SetActiveInput+0x4e>
 8001d54:	2304      	movs	r3, #4
 8001d56:	e006      	b.n	8001d66 <LL_TIM_IC_SetActiveInput+0x4e>
 8001d58:	2303      	movs	r3, #3
 8001d5a:	e004      	b.n	8001d66 <LL_TIM_IC_SetActiveInput+0x4e>
 8001d5c:	2302      	movs	r3, #2
 8001d5e:	e002      	b.n	8001d66 <LL_TIM_IC_SetActiveInput+0x4e>
 8001d60:	2301      	movs	r3, #1
 8001d62:	e000      	b.n	8001d66 <LL_TIM_IC_SetActiveInput+0x4e>
 8001d64:	2300      	movs	r3, #0
 8001d66:	461d      	mov	r5, r3
  register __IO uint32_t *pReg = (__IO uint32_t *)((uint32_t)((uint32_t)(&TIMx->CCMR1) + OFFSET_TAB_CCMRx[iChannel]));
 8001d68:	68fb      	ldr	r3, [r7, #12]
 8001d6a:	3318      	adds	r3, #24
 8001d6c:	461a      	mov	r2, r3
 8001d6e:	4629      	mov	r1, r5
 8001d70:	4b0c      	ldr	r3, [pc, #48]	; (8001da4 <LL_TIM_IC_SetActiveInput+0x8c>)
 8001d72:	5c5b      	ldrb	r3, [r3, r1]
 8001d74:	4413      	add	r3, r2
 8001d76:	461c      	mov	r4, r3
  MODIFY_REG(*pReg, ((TIM_CCMR1_CC1S) << SHIFT_TAB_ICxx[iChannel]), (ICActiveInput >> 16U) << SHIFT_TAB_ICxx[iChannel]);
 8001d78:	6822      	ldr	r2, [r4, #0]
 8001d7a:	4629      	mov	r1, r5
 8001d7c:	4b0a      	ldr	r3, [pc, #40]	; (8001da8 <LL_TIM_IC_SetActiveInput+0x90>)
 8001d7e:	5c5b      	ldrb	r3, [r3, r1]
 8001d80:	4619      	mov	r1, r3
 8001d82:	2303      	movs	r3, #3
 8001d84:	408b      	lsls	r3, r1
 8001d86:	43db      	mvns	r3, r3
 8001d88:	401a      	ands	r2, r3
 8001d8a:	687b      	ldr	r3, [r7, #4]
 8001d8c:	0c1b      	lsrs	r3, r3, #16
 8001d8e:	4628      	mov	r0, r5
 8001d90:	4905      	ldr	r1, [pc, #20]	; (8001da8 <LL_TIM_IC_SetActiveInput+0x90>)
 8001d92:	5c09      	ldrb	r1, [r1, r0]
 8001d94:	408b      	lsls	r3, r1
 8001d96:	4313      	orrs	r3, r2
 8001d98:	6023      	str	r3, [r4, #0]
}
 8001d9a:	bf00      	nop
 8001d9c:	3714      	adds	r7, #20
 8001d9e:	46bd      	mov	sp, r7
 8001da0:	bcb0      	pop	{r4, r5, r7}
 8001da2:	4770      	bx	lr
 8001da4:	08007610 	.word	0x08007610
 8001da8:	08007620 	.word	0x08007620

08001dac <LL_TIM_IC_SetPrescaler>:
  *         @arg @ref LL_TIM_ICPSC_DIV4
  *         @arg @ref LL_TIM_ICPSC_DIV8
  * @retval None
  */
__STATIC_INLINE void LL_TIM_IC_SetPrescaler(TIM_TypeDef *TIMx, uint32_t Channel, uint32_t ICPrescaler)
{
 8001dac:	b4b0      	push	{r4, r5, r7}
 8001dae:	b085      	sub	sp, #20
 8001db0:	af00      	add	r7, sp, #0
 8001db2:	60f8      	str	r0, [r7, #12]
 8001db4:	60b9      	str	r1, [r7, #8]
 8001db6:	607a      	str	r2, [r7, #4]
  register uint8_t iChannel = TIM_GET_CHANNEL_INDEX(Channel);
 8001db8:	68bb      	ldr	r3, [r7, #8]
 8001dba:	2b01      	cmp	r3, #1
 8001dbc:	d01c      	beq.n	8001df8 <LL_TIM_IC_SetPrescaler+0x4c>
 8001dbe:	68bb      	ldr	r3, [r7, #8]
 8001dc0:	2b04      	cmp	r3, #4
 8001dc2:	d017      	beq.n	8001df4 <LL_TIM_IC_SetPrescaler+0x48>
 8001dc4:	68bb      	ldr	r3, [r7, #8]
 8001dc6:	2b10      	cmp	r3, #16
 8001dc8:	d012      	beq.n	8001df0 <LL_TIM_IC_SetPrescaler+0x44>
 8001dca:	68bb      	ldr	r3, [r7, #8]
 8001dcc:	2b40      	cmp	r3, #64	; 0x40
 8001dce:	d00d      	beq.n	8001dec <LL_TIM_IC_SetPrescaler+0x40>
 8001dd0:	68bb      	ldr	r3, [r7, #8]
 8001dd2:	f5b3 7f80 	cmp.w	r3, #256	; 0x100
 8001dd6:	d007      	beq.n	8001de8 <LL_TIM_IC_SetPrescaler+0x3c>
 8001dd8:	68bb      	ldr	r3, [r7, #8]
 8001dda:	f5b3 6f80 	cmp.w	r3, #1024	; 0x400
 8001dde:	d101      	bne.n	8001de4 <LL_TIM_IC_SetPrescaler+0x38>
 8001de0:	2305      	movs	r3, #5
 8001de2:	e00a      	b.n	8001dfa <LL_TIM_IC_SetPrescaler+0x4e>
 8001de4:	2306      	movs	r3, #6
 8001de6:	e008      	b.n	8001dfa <LL_TIM_IC_SetPrescaler+0x4e>
 8001de8:	2304      	movs	r3, #4
 8001dea:	e006      	b.n	8001dfa <LL_TIM_IC_SetPrescaler+0x4e>
 8001dec:	2303      	movs	r3, #3
 8001dee:	e004      	b.n	8001dfa <LL_TIM_IC_SetPrescaler+0x4e>
 8001df0:	2302      	movs	r3, #2
 8001df2:	e002      	b.n	8001dfa <LL_TIM_IC_SetPrescaler+0x4e>
 8001df4:	2301      	movs	r3, #1
 8001df6:	e000      	b.n	8001dfa <LL_TIM_IC_SetPrescaler+0x4e>
 8001df8:	2300      	movs	r3, #0
 8001dfa:	461d      	mov	r5, r3
  register __IO uint32_t *pReg = (__IO uint32_t *)((uint32_t)((uint32_t)(&TIMx->CCMR1) + OFFSET_TAB_CCMRx[iChannel]));
 8001dfc:	68fb      	ldr	r3, [r7, #12]
 8001dfe:	3318      	adds	r3, #24
 8001e00:	461a      	mov	r2, r3
 8001e02:	4629      	mov	r1, r5
 8001e04:	4b0c      	ldr	r3, [pc, #48]	; (8001e38 <LL_TIM_IC_SetPrescaler+0x8c>)
 8001e06:	5c5b      	ldrb	r3, [r3, r1]
 8001e08:	4413      	add	r3, r2
 8001e0a:	461c      	mov	r4, r3
  MODIFY_REG(*pReg, ((TIM_CCMR1_IC1PSC) << SHIFT_TAB_ICxx[iChannel]), (ICPrescaler >> 16U) << SHIFT_TAB_ICxx[iChannel]);
 8001e0c:	6822      	ldr	r2, [r4, #0]
 8001e0e:	4629      	mov	r1, r5
 8001e10:	4b0a      	ldr	r3, [pc, #40]	; (8001e3c <LL_TIM_IC_SetPrescaler+0x90>)
 8001e12:	5c5b      	ldrb	r3, [r3, r1]
 8001e14:	4619      	mov	r1, r3
 8001e16:	230c      	movs	r3, #12
 8001e18:	408b      	lsls	r3, r1
 8001e1a:	43db      	mvns	r3, r3
 8001e1c:	401a      	ands	r2, r3
 8001e1e:	687b      	ldr	r3, [r7, #4]
 8001e20:	0c1b      	lsrs	r3, r3, #16
 8001e22:	4628      	mov	r0, r5
 8001e24:	4905      	ldr	r1, [pc, #20]	; (8001e3c <LL_TIM_IC_SetPrescaler+0x90>)
 8001e26:	5c09      	ldrb	r1, [r1, r0]
 8001e28:	408b      	lsls	r3, r1
 8001e2a:	4313      	orrs	r3, r2
 8001e2c:	6023      	str	r3, [r4, #0]
}
 8001e2e:	bf00      	nop
 8001e30:	3714      	adds	r7, #20
 8001e32:	46bd      	mov	sp, r7
 8001e34:	bcb0      	pop	{r4, r5, r7}
 8001e36:	4770      	bx	lr
 8001e38:	08007610 	.word	0x08007610
 8001e3c:	08007620 	.word	0x08007620

08001e40 <LL_TIM_IC_SetFilter>:
  *         @arg @ref LL_TIM_IC_FILTER_FDIV32_N6
  *         @arg @ref LL_TIM_IC_FILTER_FDIV32_N8
  * @retval None
  */
__STATIC_INLINE void LL_TIM_IC_SetFilter(TIM_TypeDef *TIMx, uint32_t Channel, uint32_t ICFilter)
{
 8001e40:	b4b0      	push	{r4, r5, r7}
 8001e42:	b085      	sub	sp, #20
 8001e44:	af00      	add	r7, sp, #0
 8001e46:	60f8      	str	r0, [r7, #12]
 8001e48:	60b9      	str	r1, [r7, #8]
 8001e4a:	607a      	str	r2, [r7, #4]
  register uint8_t iChannel = TIM_GET_CHANNEL_INDEX(Channel);
 8001e4c:	68bb      	ldr	r3, [r7, #8]
 8001e4e:	2b01      	cmp	r3, #1
 8001e50:	d01c      	beq.n	8001e8c <LL_TIM_IC_SetFilter+0x4c>
 8001e52:	68bb      	ldr	r3, [r7, #8]
 8001e54:	2b04      	cmp	r3, #4
 8001e56:	d017      	beq.n	8001e88 <LL_TIM_IC_SetFilter+0x48>
 8001e58:	68bb      	ldr	r3, [r7, #8]
 8001e5a:	2b10      	cmp	r3, #16
 8001e5c:	d012      	beq.n	8001e84 <LL_TIM_IC_SetFilter+0x44>
 8001e5e:	68bb      	ldr	r3, [r7, #8]
 8001e60:	2b40      	cmp	r3, #64	; 0x40
 8001e62:	d00d      	beq.n	8001e80 <LL_TIM_IC_SetFilter+0x40>
 8001e64:	68bb      	ldr	r3, [r7, #8]
 8001e66:	f5b3 7f80 	cmp.w	r3, #256	; 0x100
 8001e6a:	d007      	beq.n	8001e7c <LL_TIM_IC_SetFilter+0x3c>
 8001e6c:	68bb      	ldr	r3, [r7, #8]
 8001e6e:	f5b3 6f80 	cmp.w	r3, #1024	; 0x400
 8001e72:	d101      	bne.n	8001e78 <LL_TIM_IC_SetFilter+0x38>
 8001e74:	2305      	movs	r3, #5
 8001e76:	e00a      	b.n	8001e8e <LL_TIM_IC_SetFilter+0x4e>
 8001e78:	2306      	movs	r3, #6
 8001e7a:	e008      	b.n	8001e8e <LL_TIM_IC_SetFilter+0x4e>
 8001e7c:	2304      	movs	r3, #4
 8001e7e:	e006      	b.n	8001e8e <LL_TIM_IC_SetFilter+0x4e>
 8001e80:	2303      	movs	r3, #3
 8001e82:	e004      	b.n	8001e8e <LL_TIM_IC_SetFilter+0x4e>
 8001e84:	2302      	movs	r3, #2
 8001e86:	e002      	b.n	8001e8e <LL_TIM_IC_SetFilter+0x4e>
 8001e88:	2301      	movs	r3, #1
 8001e8a:	e000      	b.n	8001e8e <LL_TIM_IC_SetFilter+0x4e>
 8001e8c:	2300      	movs	r3, #0
 8001e8e:	461d      	mov	r5, r3
  register __IO uint32_t *pReg = (__IO uint32_t *)((uint32_t)((uint32_t)(&TIMx->CCMR1) + OFFSET_TAB_CCMRx[iChannel]));
 8001e90:	68fb      	ldr	r3, [r7, #12]
 8001e92:	3318      	adds	r3, #24
 8001e94:	461a      	mov	r2, r3
 8001e96:	4629      	mov	r1, r5
 8001e98:	4b0c      	ldr	r3, [pc, #48]	; (8001ecc <LL_TIM_IC_SetFilter+0x8c>)
 8001e9a:	5c5b      	ldrb	r3, [r3, r1]
 8001e9c:	4413      	add	r3, r2
 8001e9e:	461c      	mov	r4, r3
  MODIFY_REG(*pReg, ((TIM_CCMR1_IC1F) << SHIFT_TAB_ICxx[iChannel]), (ICFilter >> 16U) << SHIFT_TAB_ICxx[iChannel]);
 8001ea0:	6822      	ldr	r2, [r4, #0]
 8001ea2:	4629      	mov	r1, r5
 8001ea4:	4b0a      	ldr	r3, [pc, #40]	; (8001ed0 <LL_TIM_IC_SetFilter+0x90>)
 8001ea6:	5c5b      	ldrb	r3, [r3, r1]
 8001ea8:	4619      	mov	r1, r3
 8001eaa:	23f0      	movs	r3, #240	; 0xf0
 8001eac:	408b      	lsls	r3, r1
 8001eae:	43db      	mvns	r3, r3
 8001eb0:	401a      	ands	r2, r3
 8001eb2:	687b      	ldr	r3, [r7, #4]
 8001eb4:	0c1b      	lsrs	r3, r3, #16
 8001eb6:	4628      	mov	r0, r5
 8001eb8:	4905      	ldr	r1, [pc, #20]	; (8001ed0 <LL_TIM_IC_SetFilter+0x90>)
 8001eba:	5c09      	ldrb	r1, [r1, r0]
 8001ebc:	408b      	lsls	r3, r1
 8001ebe:	4313      	orrs	r3, r2
 8001ec0:	6023      	str	r3, [r4, #0]
}
 8001ec2:	bf00      	nop
 8001ec4:	3714      	adds	r7, #20
 8001ec6:	46bd      	mov	sp, r7
 8001ec8:	bcb0      	pop	{r4, r5, r7}
 8001eca:	4770      	bx	lr
 8001ecc:	08007610 	.word	0x08007610
 8001ed0:	08007620 	.word	0x08007620

08001ed4 <LL_TIM_IC_SetPolarity>:
  *         @arg @ref LL_TIM_IC_POLARITY_RISING
  *         @arg @ref LL_TIM_IC_POLARITY_FALLING
  * @retval None
  */
__STATIC_INLINE void LL_TIM_IC_SetPolarity(TIM_TypeDef *TIMx, uint32_t Channel, uint32_t ICPolarity)
{
 8001ed4:	b490      	push	{r4, r7}
 8001ed6:	b084      	sub	sp, #16
 8001ed8:	af00      	add	r7, sp, #0
 8001eda:	60f8      	str	r0, [r7, #12]
 8001edc:	60b9      	str	r1, [r7, #8]
 8001ede:	607a      	str	r2, [r7, #4]
  register uint8_t iChannel = TIM_GET_CHANNEL_INDEX(Channel);
 8001ee0:	68bb      	ldr	r3, [r7, #8]
 8001ee2:	2b01      	cmp	r3, #1
 8001ee4:	d01c      	beq.n	8001f20 <LL_TIM_IC_SetPolarity+0x4c>
 8001ee6:	68bb      	ldr	r3, [r7, #8]
 8001ee8:	2b04      	cmp	r3, #4
 8001eea:	d017      	beq.n	8001f1c <LL_TIM_IC_SetPolarity+0x48>
 8001eec:	68bb      	ldr	r3, [r7, #8]
 8001eee:	2b10      	cmp	r3, #16
 8001ef0:	d012      	beq.n	8001f18 <LL_TIM_IC_SetPolarity+0x44>
 8001ef2:	68bb      	ldr	r3, [r7, #8]
 8001ef4:	2b40      	cmp	r3, #64	; 0x40
 8001ef6:	d00d      	beq.n	8001f14 <LL_TIM_IC_SetPolarity+0x40>
 8001ef8:	68bb      	ldr	r3, [r7, #8]
 8001efa:	f5b3 7f80 	cmp.w	r3, #256	; 0x100
 8001efe:	d007      	beq.n	8001f10 <LL_TIM_IC_SetPolarity+0x3c>
 8001f00:	68bb      	ldr	r3, [r7, #8]
 8001f02:	f5b3 6f80 	cmp.w	r3, #1024	; 0x400
 8001f06:	d101      	bne.n	8001f0c <LL_TIM_IC_SetPolarity+0x38>
 8001f08:	2305      	movs	r3, #5
 8001f0a:	e00a      	b.n	8001f22 <LL_TIM_IC_SetPolarity+0x4e>
 8001f0c:	2306      	movs	r3, #6
 8001f0e:	e008      	b.n	8001f22 <LL_TIM_IC_SetPolarity+0x4e>
 8001f10:	2304      	movs	r3, #4
 8001f12:	e006      	b.n	8001f22 <LL_TIM_IC_SetPolarity+0x4e>
 8001f14:	2303      	movs	r3, #3
 8001f16:	e004      	b.n	8001f22 <LL_TIM_IC_SetPolarity+0x4e>
 8001f18:	2302      	movs	r3, #2
 8001f1a:	e002      	b.n	8001f22 <LL_TIM_IC_SetPolarity+0x4e>
 8001f1c:	2301      	movs	r3, #1
 8001f1e:	e000      	b.n	8001f22 <LL_TIM_IC_SetPolarity+0x4e>
 8001f20:	2300      	movs	r3, #0
 8001f22:	461c      	mov	r4, r3
  MODIFY_REG(TIMx->CCER, ((TIM_CCER_CC1NP | TIM_CCER_CC1P) << SHIFT_TAB_CCxP[iChannel]),
 8001f24:	68fb      	ldr	r3, [r7, #12]
 8001f26:	6a1a      	ldr	r2, [r3, #32]
 8001f28:	4621      	mov	r1, r4
 8001f2a:	4b0a      	ldr	r3, [pc, #40]	; (8001f54 <LL_TIM_IC_SetPolarity+0x80>)
 8001f2c:	5c5b      	ldrb	r3, [r3, r1]
 8001f2e:	4619      	mov	r1, r3
 8001f30:	230a      	movs	r3, #10
 8001f32:	408b      	lsls	r3, r1
 8001f34:	43db      	mvns	r3, r3
 8001f36:	401a      	ands	r2, r3
 8001f38:	4621      	mov	r1, r4
 8001f3a:	4b06      	ldr	r3, [pc, #24]	; (8001f54 <LL_TIM_IC_SetPolarity+0x80>)
 8001f3c:	5c5b      	ldrb	r3, [r3, r1]
 8001f3e:	4619      	mov	r1, r3
 8001f40:	687b      	ldr	r3, [r7, #4]
 8001f42:	408b      	lsls	r3, r1
 8001f44:	431a      	orrs	r2, r3
 8001f46:	68fb      	ldr	r3, [r7, #12]
 8001f48:	621a      	str	r2, [r3, #32]
             ICPolarity << SHIFT_TAB_CCxP[iChannel]);
}
 8001f4a:	bf00      	nop
 8001f4c:	3710      	adds	r7, #16
 8001f4e:	46bd      	mov	sp, r7
 8001f50:	bc90      	pop	{r4, r7}
 8001f52:	4770      	bx	lr
 8001f54:	08007628 	.word	0x08007628

08001f58 <LL_TIM_SetClockSource>:
  *         @arg @ref LL_TIM_CLOCKSOURCE_EXT_MODE1
  *         @arg @ref LL_TIM_CLOCKSOURCE_EXT_MODE2
  * @retval None
  */
__STATIC_INLINE void LL_TIM_SetClockSource(TIM_TypeDef *TIMx, uint32_t ClockSource)
{
 8001f58:	b480      	push	{r7}
 8001f5a:	b083      	sub	sp, #12
 8001f5c:	af00      	add	r7, sp, #0
 8001f5e:	6078      	str	r0, [r7, #4]
 8001f60:	6039      	str	r1, [r7, #0]
  MODIFY_REG(TIMx->SMCR, TIM_SMCR_SMS | TIM_SMCR_ECE, ClockSource);
 8001f62:	687b      	ldr	r3, [r7, #4]
 8001f64:	689b      	ldr	r3, [r3, #8]
 8001f66:	f423 4380 	bic.w	r3, r3, #16384	; 0x4000
 8001f6a:	f023 0307 	bic.w	r3, r3, #7
 8001f6e:	683a      	ldr	r2, [r7, #0]
 8001f70:	431a      	orrs	r2, r3
 8001f72:	687b      	ldr	r3, [r7, #4]
 8001f74:	609a      	str	r2, [r3, #8]
}
 8001f76:	bf00      	nop
 8001f78:	370c      	adds	r7, #12
 8001f7a:	46bd      	mov	sp, r7
 8001f7c:	bc80      	pop	{r7}
 8001f7e:	4770      	bx	lr

08001f80 <LL_TIM_SetEncoderMode>:
  *         @arg @ref LL_TIM_ENCODERMODE_X2_TI2
  *         @arg @ref LL_TIM_ENCODERMODE_X4_TI12
  * @retval None
  */
__STATIC_INLINE void LL_TIM_SetEncoderMode(TIM_TypeDef *TIMx, uint32_t EncoderMode)
{
 8001f80:	b480      	push	{r7}
 8001f82:	b083      	sub	sp, #12
 8001f84:	af00      	add	r7, sp, #0
 8001f86:	6078      	str	r0, [r7, #4]
 8001f88:	6039      	str	r1, [r7, #0]
  MODIFY_REG(TIMx->SMCR, TIM_SMCR_SMS, EncoderMode);
 8001f8a:	687b      	ldr	r3, [r7, #4]
 8001f8c:	689b      	ldr	r3, [r3, #8]
 8001f8e:	f023 0207 	bic.w	r2, r3, #7
 8001f92:	683b      	ldr	r3, [r7, #0]
 8001f94:	431a      	orrs	r2, r3
 8001f96:	687b      	ldr	r3, [r7, #4]
 8001f98:	609a      	str	r2, [r3, #8]
}
 8001f9a:	bf00      	nop
 8001f9c:	370c      	adds	r7, #12
 8001f9e:	46bd      	mov	sp, r7
 8001fa0:	bc80      	pop	{r7}
 8001fa2:	4770      	bx	lr

08001fa4 <LL_TIM_SetTriggerOutput>:
  *         @arg @ref LL_TIM_TRGO_OC3REF
  *         @arg @ref LL_TIM_TRGO_OC4REF
  * @retval None
  */
__STATIC_INLINE void LL_TIM_SetTriggerOutput(TIM_TypeDef *TIMx, uint32_t TimerSynchronization)
{
 8001fa4:	b480      	push	{r7}
 8001fa6:	b083      	sub	sp, #12
 8001fa8:	af00      	add	r7, sp, #0
 8001faa:	6078      	str	r0, [r7, #4]
 8001fac:	6039      	str	r1, [r7, #0]
  MODIFY_REG(TIMx->CR2, TIM_CR2_MMS, TimerSynchronization);
 8001fae:	687b      	ldr	r3, [r7, #4]
 8001fb0:	685b      	ldr	r3, [r3, #4]
 8001fb2:	f023 0270 	bic.w	r2, r3, #112	; 0x70
 8001fb6:	683b      	ldr	r3, [r7, #0]
 8001fb8:	431a      	orrs	r2, r3
 8001fba:	687b      	ldr	r3, [r7, #4]
 8001fbc:	605a      	str	r2, [r3, #4]
}
 8001fbe:	bf00      	nop
 8001fc0:	370c      	adds	r7, #12
 8001fc2:	46bd      	mov	sp, r7
 8001fc4:	bc80      	pop	{r7}
 8001fc6:	4770      	bx	lr

08001fc8 <LL_TIM_DisableMasterSlaveMode>:
  * @rmtoll SMCR         MSM           LL_TIM_DisableMasterSlaveMode
  * @param  TIMx Timer instance
  * @retval None
  */
__STATIC_INLINE void LL_TIM_DisableMasterSlaveMode(TIM_TypeDef *TIMx)
{
 8001fc8:	b480      	push	{r7}
 8001fca:	b083      	sub	sp, #12
 8001fcc:	af00      	add	r7, sp, #0
 8001fce:	6078      	str	r0, [r7, #4]
  CLEAR_BIT(TIMx->SMCR, TIM_SMCR_MSM);
 8001fd0:	687b      	ldr	r3, [r7, #4]
 8001fd2:	689b      	ldr	r3, [r3, #8]
 8001fd4:	f023 0280 	bic.w	r2, r3, #128	; 0x80
 8001fd8:	687b      	ldr	r3, [r7, #4]
 8001fda:	609a      	str	r2, [r3, #8]
}
 8001fdc:	bf00      	nop
 8001fde:	370c      	adds	r7, #12
 8001fe0:	46bd      	mov	sp, r7
 8001fe2:	bc80      	pop	{r7}
 8001fe4:	4770      	bx	lr

08001fe6 <LL_TIM_EnableAllOutputs>:
  * @rmtoll BDTR         MOE           LL_TIM_EnableAllOutputs
  * @param  TIMx Timer instance
  * @retval None
  */
__STATIC_INLINE void LL_TIM_EnableAllOutputs(TIM_TypeDef *TIMx)
{
 8001fe6:	b480      	push	{r7}
 8001fe8:	b083      	sub	sp, #12
 8001fea:	af00      	add	r7, sp, #0
 8001fec:	6078      	str	r0, [r7, #4]
  SET_BIT(TIMx->BDTR, TIM_BDTR_MOE);
 8001fee:	687b      	ldr	r3, [r7, #4]
 8001ff0:	6c5b      	ldr	r3, [r3, #68]	; 0x44
 8001ff2:	f443 4200 	orr.w	r2, r3, #32768	; 0x8000
 8001ff6:	687b      	ldr	r3, [r7, #4]
 8001ff8:	645a      	str	r2, [r3, #68]	; 0x44
}
 8001ffa:	bf00      	nop
 8001ffc:	370c      	adds	r7, #12
 8001ffe:	46bd      	mov	sp, r7
 8002000:	bc80      	pop	{r7}
 8002002:	4770      	bx	lr

08002004 <LL_TIM_ClearFlag_UPDATE>:
  * @rmtoll SR           UIF           LL_TIM_ClearFlag_UPDATE
  * @param  TIMx Timer instance
  * @retval None
  */
__STATIC_INLINE void LL_TIM_ClearFlag_UPDATE(TIM_TypeDef *TIMx)
{
 8002004:	b480      	push	{r7}
 8002006:	b083      	sub	sp, #12
 8002008:	af00      	add	r7, sp, #0
 800200a:	6078      	str	r0, [r7, #4]
  WRITE_REG(TIMx->SR, ~(TIM_SR_UIF));
 800200c:	687b      	ldr	r3, [r7, #4]
 800200e:	f06f 0201 	mvn.w	r2, #1
 8002012:	611a      	str	r2, [r3, #16]
}
 8002014:	bf00      	nop
 8002016:	370c      	adds	r7, #12
 8002018:	46bd      	mov	sp, r7
 800201a:	bc80      	pop	{r7}
 800201c:	4770      	bx	lr

0800201e <LL_TIM_ClearFlag_CC1>:
  * @rmtoll SR           CC1IF         LL_TIM_ClearFlag_CC1
  * @param  TIMx Timer instance
  * @retval None
  */
__STATIC_INLINE void LL_TIM_ClearFlag_CC1(TIM_TypeDef *TIMx)
{
 800201e:	b480      	push	{r7}
 8002020:	b083      	sub	sp, #12
 8002022:	af00      	add	r7, sp, #0
 8002024:	6078      	str	r0, [r7, #4]
  WRITE_REG(TIMx->SR, ~(TIM_SR_CC1IF));
 8002026:	687b      	ldr	r3, [r7, #4]
 8002028:	f06f 0202 	mvn.w	r2, #2
 800202c:	611a      	str	r2, [r3, #16]
}
 800202e:	bf00      	nop
 8002030:	370c      	adds	r7, #12
 8002032:	46bd      	mov	sp, r7
 8002034:	bc80      	pop	{r7}
 8002036:	4770      	bx	lr

08002038 <LL_TIM_ClearFlag_CC2>:
  * @rmtoll SR           CC2IF         LL_TIM_ClearFlag_CC2
  * @param  TIMx Timer instance
  * @retval None
  */
__STATIC_INLINE void LL_TIM_ClearFlag_CC2(TIM_TypeDef *TIMx)
{
 8002038:	b480      	push	{r7}
 800203a:	b083      	sub	sp, #12
 800203c:	af00      	add	r7, sp, #0
 800203e:	6078      	str	r0, [r7, #4]
  WRITE_REG(TIMx->SR, ~(TIM_SR_CC2IF));
 8002040:	687b      	ldr	r3, [r7, #4]
 8002042:	f06f 0204 	mvn.w	r2, #4
 8002046:	611a      	str	r2, [r3, #16]
}
 8002048:	bf00      	nop
 800204a:	370c      	adds	r7, #12
 800204c:	46bd      	mov	sp, r7
 800204e:	bc80      	pop	{r7}
 8002050:	4770      	bx	lr

08002052 <LL_TIM_EnableIT_UPDATE>:
  * @rmtoll DIER         UIE           LL_TIM_EnableIT_UPDATE
  * @param  TIMx Timer instance
  * @retval None
  */
__STATIC_INLINE void LL_TIM_EnableIT_UPDATE(TIM_TypeDef *TIMx)
{
 8002052:	b480      	push	{r7}
 8002054:	b083      	sub	sp, #12
 8002056:	af00      	add	r7, sp, #0
 8002058:	6078      	str	r0, [r7, #4]
  SET_BIT(TIMx->DIER, TIM_DIER_UIE);
 800205a:	687b      	ldr	r3, [r7, #4]
 800205c:	68db      	ldr	r3, [r3, #12]
 800205e:	f043 0201 	orr.w	r2, r3, #1
 8002062:	687b      	ldr	r3, [r7, #4]
 8002064:	60da      	str	r2, [r3, #12]
}
 8002066:	bf00      	nop
 8002068:	370c      	adds	r7, #12
 800206a:	46bd      	mov	sp, r7
 800206c:	bc80      	pop	{r7}
 800206e:	4770      	bx	lr

08002070 <LL_TIM_EnableIT_CC1>:
  * @rmtoll DIER         CC1IE         LL_TIM_EnableIT_CC1
  * @param  TIMx Timer instance
  * @retval None
  */
__STATIC_INLINE void LL_TIM_EnableIT_CC1(TIM_TypeDef *TIMx)
{
 8002070:	b480      	push	{r7}
 8002072:	b083      	sub	sp, #12
 8002074:	af00      	add	r7, sp, #0
 8002076:	6078      	str	r0, [r7, #4]
  SET_BIT(TIMx->DIER, TIM_DIER_CC1IE);
 8002078:	687b      	ldr	r3, [r7, #4]
 800207a:	68db      	ldr	r3, [r3, #12]
 800207c:	f043 0202 	orr.w	r2, r3, #2
 8002080:	687b      	ldr	r3, [r7, #4]
 8002082:	60da      	str	r2, [r3, #12]
}
 8002084:	bf00      	nop
 8002086:	370c      	adds	r7, #12
 8002088:	46bd      	mov	sp, r7
 800208a:	bc80      	pop	{r7}
 800208c:	4770      	bx	lr

0800208e <LL_TIM_EnableIT_CC2>:
  * @rmtoll DIER         CC2IE         LL_TIM_EnableIT_CC2
  * @param  TIMx Timer instance
  * @retval None
  */
__STATIC_INLINE void LL_TIM_EnableIT_CC2(TIM_TypeDef *TIMx)
{
 800208e:	b480      	push	{r7}
 8002090:	b083      	sub	sp, #12
 8002092:	af00      	add	r7, sp, #0
 8002094:	6078      	str	r0, [r7, #4]
  SET_BIT(TIMx->DIER, TIM_DIER_CC2IE);
 8002096:	687b      	ldr	r3, [r7, #4]
 8002098:	68db      	ldr	r3, [r3, #12]
 800209a:	f043 0204 	orr.w	r2, r3, #4
 800209e:	687b      	ldr	r3, [r7, #4]
 80020a0:	60da      	str	r2, [r3, #12]
}
 80020a2:	bf00      	nop
 80020a4:	370c      	adds	r7, #12
 80020a6:	46bd      	mov	sp, r7
 80020a8:	bc80      	pop	{r7}
 80020aa:	4770      	bx	lr

080020ac <LL_USART_Enable>:
  * @rmtoll CR1          UE            LL_USART_Enable
  * @param  USARTx USART Instance
  * @retval None
  */
__STATIC_INLINE void LL_USART_Enable(USART_TypeDef *USARTx)
{
 80020ac:	b480      	push	{r7}
 80020ae:	b083      	sub	sp, #12
 80020b0:	af00      	add	r7, sp, #0
 80020b2:	6078      	str	r0, [r7, #4]
  SET_BIT(USARTx->CR1, USART_CR1_UE);
 80020b4:	687b      	ldr	r3, [r7, #4]
 80020b6:	68db      	ldr	r3, [r3, #12]
 80020b8:	f443 5200 	orr.w	r2, r3, #8192	; 0x2000
 80020bc:	687b      	ldr	r3, [r7, #4]
 80020be:	60da      	str	r2, [r3, #12]
}
 80020c0:	bf00      	nop
 80020c2:	370c      	adds	r7, #12
 80020c4:	46bd      	mov	sp, r7
 80020c6:	bc80      	pop	{r7}
 80020c8:	4770      	bx	lr

080020ca <LL_USART_ConfigAsyncMode>:
  *         CR3          HDSEL         LL_USART_ConfigAsyncMode
  * @param  USARTx USART Instance
  * @retval None
  */
__STATIC_INLINE void LL_USART_ConfigAsyncMode(USART_TypeDef *USARTx)
{
 80020ca:	b480      	push	{r7}
 80020cc:	b083      	sub	sp, #12
 80020ce:	af00      	add	r7, sp, #0
 80020d0:	6078      	str	r0, [r7, #4]
  /* In Asynchronous mode, the following bits must be kept cleared:
  - LINEN, CLKEN bits in the USART_CR2 register,
  - SCEN, IREN and HDSEL bits in the USART_CR3 register.*/
  CLEAR_BIT(USARTx->CR2, (USART_CR2_LINEN | USART_CR2_CLKEN));
 80020d2:	687b      	ldr	r3, [r7, #4]
 80020d4:	691b      	ldr	r3, [r3, #16]
 80020d6:	f423 4290 	bic.w	r2, r3, #18432	; 0x4800
 80020da:	687b      	ldr	r3, [r7, #4]
 80020dc:	611a      	str	r2, [r3, #16]
  CLEAR_BIT(USARTx->CR3, (USART_CR3_SCEN | USART_CR3_IREN | USART_CR3_HDSEL));
 80020de:	687b      	ldr	r3, [r7, #4]
 80020e0:	695b      	ldr	r3, [r3, #20]
 80020e2:	f023 022a 	bic.w	r2, r3, #42	; 0x2a
 80020e6:	687b      	ldr	r3, [r7, #4]
 80020e8:	615a      	str	r2, [r3, #20]
}
 80020ea:	bf00      	nop
 80020ec:	370c      	adds	r7, #12
 80020ee:	46bd      	mov	sp, r7
 80020f0:	bc80      	pop	{r7}
 80020f2:	4770      	bx	lr

080020f4 <LL_USART_IsActiveFlag_TC>:
  * @rmtoll SR           TC            LL_USART_IsActiveFlag_TC
  * @param  USARTx USART Instance
  * @retval State of bit (1 or 0).
  */
__STATIC_INLINE uint32_t LL_USART_IsActiveFlag_TC(USART_TypeDef *USARTx)
{
 80020f4:	b480      	push	{r7}
 80020f6:	b083      	sub	sp, #12
 80020f8:	af00      	add	r7, sp, #0
 80020fa:	6078      	str	r0, [r7, #4]
  return (READ_BIT(USARTx->SR, USART_SR_TC) == (USART_SR_TC));
 80020fc:	687b      	ldr	r3, [r7, #4]
 80020fe:	681b      	ldr	r3, [r3, #0]
 8002100:	f003 0340 	and.w	r3, r3, #64	; 0x40
 8002104:	2b40      	cmp	r3, #64	; 0x40
 8002106:	bf0c      	ite	eq
 8002108:	2301      	moveq	r3, #1
 800210a:	2300      	movne	r3, #0
 800210c:	b2db      	uxtb	r3, r3
}
 800210e:	4618      	mov	r0, r3
 8002110:	370c      	adds	r7, #12
 8002112:	46bd      	mov	sp, r7
 8002114:	bc80      	pop	{r7}
 8002116:	4770      	bx	lr

08002118 <LL_USART_TransmitData8>:
  * @param  USARTx USART Instance
  * @param  Value between Min_Data=0x00 and Max_Data=0xFF
  * @retval None
  */
__STATIC_INLINE void LL_USART_TransmitData8(USART_TypeDef *USARTx, uint8_t Value)
{
 8002118:	b480      	push	{r7}
 800211a:	b083      	sub	sp, #12
 800211c:	af00      	add	r7, sp, #0
 800211e:	6078      	str	r0, [r7, #4]
 8002120:	460b      	mov	r3, r1
 8002122:	70fb      	strb	r3, [r7, #3]
  USARTx->DR = Value;
 8002124:	78fa      	ldrb	r2, [r7, #3]
 8002126:	687b      	ldr	r3, [r7, #4]
 8002128:	605a      	str	r2, [r3, #4]
}
 800212a:	bf00      	nop
 800212c:	370c      	adds	r7, #12
 800212e:	46bd      	mov	sp, r7
 8002130:	bc80      	pop	{r7}
 8002132:	4770      	bx	lr

08002134 <LL_GPIO_SetPinMode>:
{
 8002134:	b490      	push	{r4, r7}
 8002136:	b088      	sub	sp, #32
 8002138:	af00      	add	r7, sp, #0
 800213a:	60f8      	str	r0, [r7, #12]
 800213c:	60b9      	str	r1, [r7, #8]
 800213e:	607a      	str	r2, [r7, #4]
  register uint32_t *pReg = (uint32_t *)((uint32_t)(&GPIOx->CRL) + (Pin >> 24));
 8002140:	68fb      	ldr	r3, [r7, #12]
 8002142:	461a      	mov	r2, r3
 8002144:	68bb      	ldr	r3, [r7, #8]
 8002146:	0e1b      	lsrs	r3, r3, #24
 8002148:	4413      	add	r3, r2
 800214a:	461c      	mov	r4, r3
  MODIFY_REG(*pReg, ((GPIO_CRL_CNF0 | GPIO_CRL_MODE0) << (POSITION_VAL(Pin) * 4U)), (Mode << (POSITION_VAL(Pin) * 4U)));
 800214c:	6822      	ldr	r2, [r4, #0]
 800214e:	68bb      	ldr	r3, [r7, #8]
 8002150:	617b      	str	r3, [r7, #20]
   __ASM volatile ("rbit %0, %1" : "=r" (result) : "r" (value) );
 8002152:	697b      	ldr	r3, [r7, #20]
 8002154:	fa93 f3a3 	rbit	r3, r3
 8002158:	613b      	str	r3, [r7, #16]
  return result;
 800215a:	693b      	ldr	r3, [r7, #16]
 800215c:	fab3 f383 	clz	r3, r3
 8002160:	b2db      	uxtb	r3, r3
 8002162:	009b      	lsls	r3, r3, #2
 8002164:	210f      	movs	r1, #15
 8002166:	fa01 f303 	lsl.w	r3, r1, r3
 800216a:	43db      	mvns	r3, r3
 800216c:	401a      	ands	r2, r3
 800216e:	68bb      	ldr	r3, [r7, #8]
 8002170:	61fb      	str	r3, [r7, #28]
   __ASM volatile ("rbit %0, %1" : "=r" (result) : "r" (value) );
 8002172:	69fb      	ldr	r3, [r7, #28]
 8002174:	fa93 f3a3 	rbit	r3, r3
 8002178:	61bb      	str	r3, [r7, #24]
  return result;
 800217a:	69bb      	ldr	r3, [r7, #24]
 800217c:	fab3 f383 	clz	r3, r3
 8002180:	b2db      	uxtb	r3, r3
 8002182:	009b      	lsls	r3, r3, #2
 8002184:	6879      	ldr	r1, [r7, #4]
 8002186:	fa01 f303 	lsl.w	r3, r1, r3
 800218a:	4313      	orrs	r3, r2
 800218c:	6023      	str	r3, [r4, #0]
}
 800218e:	bf00      	nop
 8002190:	3720      	adds	r7, #32
 8002192:	46bd      	mov	sp, r7
 8002194:	bc90      	pop	{r4, r7}
 8002196:	4770      	bx	lr

08002198 <LL_GPIO_SetOutputPin>:
{
 8002198:	b480      	push	{r7}
 800219a:	b083      	sub	sp, #12
 800219c:	af00      	add	r7, sp, #0
 800219e:	6078      	str	r0, [r7, #4]
 80021a0:	6039      	str	r1, [r7, #0]
  WRITE_REG(GPIOx->BSRR, (PinMask >> GPIO_PIN_MASK_POS) & 0x0000FFFFU);
 80021a2:	683b      	ldr	r3, [r7, #0]
 80021a4:	0a1b      	lsrs	r3, r3, #8
 80021a6:	b29a      	uxth	r2, r3
 80021a8:	687b      	ldr	r3, [r7, #4]
 80021aa:	611a      	str	r2, [r3, #16]
}
 80021ac:	bf00      	nop
 80021ae:	370c      	adds	r7, #12
 80021b0:	46bd      	mov	sp, r7
 80021b2:	bc80      	pop	{r7}
 80021b4:	4770      	bx	lr

080021b6 <LL_GPIO_ResetOutputPin>:
{
 80021b6:	b480      	push	{r7}
 80021b8:	b083      	sub	sp, #12
 80021ba:	af00      	add	r7, sp, #0
 80021bc:	6078      	str	r0, [r7, #4]
 80021be:	6039      	str	r1, [r7, #0]
  WRITE_REG(GPIOx->BRR, (PinMask >> GPIO_PIN_MASK_POS) & 0x0000FFFFU);
 80021c0:	683b      	ldr	r3, [r7, #0]
 80021c2:	0a1b      	lsrs	r3, r3, #8
 80021c4:	b29a      	uxth	r2, r3
 80021c6:	687b      	ldr	r3, [r7, #4]
 80021c8:	615a      	str	r2, [r3, #20]
}
 80021ca:	bf00      	nop
 80021cc:	370c      	adds	r7, #12
 80021ce:	46bd      	mov	sp, r7
 80021d0:	bc80      	pop	{r7}
 80021d2:	4770      	bx	lr

080021d4 <LL_GPIO_AF_EnableRemap_I2C1>:
  * @rmtoll MAPR          I2C1_REMAP           LL_GPIO_AF_EnableRemap_I2C1
  * @note  ENABLE: Remap     (SCL/PB8, SDA/PB9)
  * @retval None
  */
__STATIC_INLINE void LL_GPIO_AF_EnableRemap_I2C1(void)
{
 80021d4:	b480      	push	{r7}
 80021d6:	af00      	add	r7, sp, #0
  SET_BIT(AFIO->MAPR, AFIO_MAPR_I2C1_REMAP | AFIO_MAPR_SWJ_CFG);
 80021d8:	4b05      	ldr	r3, [pc, #20]	; (80021f0 <LL_GPIO_AF_EnableRemap_I2C1+0x1c>)
 80021da:	685b      	ldr	r3, [r3, #4]
 80021dc:	4a04      	ldr	r2, [pc, #16]	; (80021f0 <LL_GPIO_AF_EnableRemap_I2C1+0x1c>)
 80021de:	f043 63e0 	orr.w	r3, r3, #117440512	; 0x7000000
 80021e2:	f043 0302 	orr.w	r3, r3, #2
 80021e6:	6053      	str	r3, [r2, #4]
}
 80021e8:	bf00      	nop
 80021ea:	46bd      	mov	sp, r7
 80021ec:	bc80      	pop	{r7}
 80021ee:	4770      	bx	lr
 80021f0:	40010000 	.word	0x40010000

080021f4 <LL_GPIO_AF_EnableRemap_USART1>:
  * @rmtoll MAPR          USART1_REMAP           LL_GPIO_AF_EnableRemap_USART1
  * @note  ENABLE: Remap     (TX/PB6, RX/PB7)
  * @retval None
  */
__STATIC_INLINE void LL_GPIO_AF_EnableRemap_USART1(void)
{
 80021f4:	b480      	push	{r7}
 80021f6:	af00      	add	r7, sp, #0
  SET_BIT(AFIO->MAPR, AFIO_MAPR_USART1_REMAP | AFIO_MAPR_SWJ_CFG);
 80021f8:	4b05      	ldr	r3, [pc, #20]	; (8002210 <LL_GPIO_AF_EnableRemap_USART1+0x1c>)
 80021fa:	685b      	ldr	r3, [r3, #4]
 80021fc:	4a04      	ldr	r2, [pc, #16]	; (8002210 <LL_GPIO_AF_EnableRemap_USART1+0x1c>)
 80021fe:	f043 63e0 	orr.w	r3, r3, #117440512	; 0x7000000
 8002202:	f043 0304 	orr.w	r3, r3, #4
 8002206:	6053      	str	r3, [r2, #4]
}
 8002208:	bf00      	nop
 800220a:	46bd      	mov	sp, r7
 800220c:	bc80      	pop	{r7}
 800220e:	4770      	bx	lr
 8002210:	40010000 	.word	0x40010000

08002214 <LL_GPIO_AF_EnableRemap_TIM2>:
  * @rmtoll MAPR          TIM2_REMAP           LL_GPIO_AF_EnableRemap_TIM2
  * @note  ENABLE: Full remap       (CH1/ETR/PA15, CH2/PB3, CH3/PB10, CH4/PB11)
  * @retval None
  */
__STATIC_INLINE void LL_GPIO_AF_EnableRemap_TIM2(void)
{
 8002214:	b480      	push	{r7}
 8002216:	af00      	add	r7, sp, #0
  MODIFY_REG(AFIO->MAPR, (AFIO_MAPR_TIM2_REMAP | AFIO_MAPR_SWJ_CFG), (AFIO_MAPR_TIM2_REMAP_FULLREMAP | AFIO_MAPR_SWJ_CFG));
 8002218:	4b05      	ldr	r3, [pc, #20]	; (8002230 <LL_GPIO_AF_EnableRemap_TIM2+0x1c>)
 800221a:	685b      	ldr	r3, [r3, #4]
 800221c:	4a04      	ldr	r2, [pc, #16]	; (8002230 <LL_GPIO_AF_EnableRemap_TIM2+0x1c>)
 800221e:	f043 63e0 	orr.w	r3, r3, #117440512	; 0x7000000
 8002222:	f443 7340 	orr.w	r3, r3, #768	; 0x300
 8002226:	6053      	str	r3, [r2, #4]
}
 8002228:	bf00      	nop
 800222a:	46bd      	mov	sp, r7
 800222c:	bc80      	pop	{r7}
 800222e:	4770      	bx	lr
 8002230:	40010000 	.word	0x40010000

08002234 <LL_GPIO_AF_RemapPartial_TIM3>:
  * @note  PARTIAL: Partial remap (CH1/PB4, CH2/PB5, CH3/PB0, CH4/PB1)
  * @note  TIM3_ETR on PE0 is not re-mapped.
  * @retval None
  */
__STATIC_INLINE void LL_GPIO_AF_RemapPartial_TIM3(void)
{
 8002234:	b480      	push	{r7}
 8002236:	af00      	add	r7, sp, #0
  MODIFY_REG(AFIO->MAPR, (AFIO_MAPR_TIM3_REMAP | AFIO_MAPR_SWJ_CFG), (AFIO_MAPR_TIM3_REMAP_PARTIALREMAP | AFIO_MAPR_SWJ_CFG));
 8002238:	4b07      	ldr	r3, [pc, #28]	; (8002258 <LL_GPIO_AF_RemapPartial_TIM3+0x24>)
 800223a:	685b      	ldr	r3, [r3, #4]
 800223c:	f023 63e0 	bic.w	r3, r3, #117440512	; 0x7000000
 8002240:	f423 6340 	bic.w	r3, r3, #3072	; 0xc00
 8002244:	4a04      	ldr	r2, [pc, #16]	; (8002258 <LL_GPIO_AF_RemapPartial_TIM3+0x24>)
 8002246:	f043 63e0 	orr.w	r3, r3, #117440512	; 0x7000000
 800224a:	f443 6300 	orr.w	r3, r3, #2048	; 0x800
 800224e:	6053      	str	r3, [r2, #4]
}
 8002250:	bf00      	nop
 8002252:	46bd      	mov	sp, r7
 8002254:	bc80      	pop	{r7}
 8002256:	4770      	bx	lr
 8002258:	40010000 	.word	0x40010000

0800225c <LL_GPIO_AF_Remap_SWJ_NOJTAG>:
  * @rmtoll MAPR          SWJ_CFG           LL_GPIO_AF_Remap_SWJ_NOJTAG
  * @note  NOJTAG: JTAG-DP Disabled and SW-DP Enabled
  * @retval None
  */
__STATIC_INLINE void LL_GPIO_AF_Remap_SWJ_NOJTAG(void)
{
 800225c:	b480      	push	{r7}
 800225e:	af00      	add	r7, sp, #0
  CLEAR_BIT(AFIO->MAPR,AFIO_MAPR_SWJ_CFG);
 8002260:	4b07      	ldr	r3, [pc, #28]	; (8002280 <LL_GPIO_AF_Remap_SWJ_NOJTAG+0x24>)
 8002262:	685b      	ldr	r3, [r3, #4]
 8002264:	4a06      	ldr	r2, [pc, #24]	; (8002280 <LL_GPIO_AF_Remap_SWJ_NOJTAG+0x24>)
 8002266:	f023 63e0 	bic.w	r3, r3, #117440512	; 0x7000000
 800226a:	6053      	str	r3, [r2, #4]
  SET_BIT(AFIO->MAPR, AFIO_MAPR_SWJ_CFG_JTAGDISABLE);
 800226c:	4b04      	ldr	r3, [pc, #16]	; (8002280 <LL_GPIO_AF_Remap_SWJ_NOJTAG+0x24>)
 800226e:	685b      	ldr	r3, [r3, #4]
 8002270:	4a03      	ldr	r2, [pc, #12]	; (8002280 <LL_GPIO_AF_Remap_SWJ_NOJTAG+0x24>)
 8002272:	f043 7300 	orr.w	r3, r3, #33554432	; 0x2000000
 8002276:	6053      	str	r3, [r2, #4]
}
 8002278:	bf00      	nop
 800227a:	46bd      	mov	sp, r7
 800227c:	bc80      	pop	{r7}
 800227e:	4770      	bx	lr
 8002280:	40010000 	.word	0x40010000

08002284 <LL_GPIO_AF_SetEXTISource>:
  *         @arg @ref LL_GPIO_AF_EXTI_LINE14
  *         @arg @ref LL_GPIO_AF_EXTI_LINE15
  * @retval None
  */
__STATIC_INLINE void LL_GPIO_AF_SetEXTISource(uint32_t Port, uint32_t Line)
{
 8002284:	b480      	push	{r7}
 8002286:	b085      	sub	sp, #20
 8002288:	af00      	add	r7, sp, #0
 800228a:	6078      	str	r0, [r7, #4]
 800228c:	6039      	str	r1, [r7, #0]
  MODIFY_REG(AFIO->EXTICR[Line & 0xFF], (Line >> 16), Port << POSITION_VAL((Line >> 16)));
 800228e:	4a13      	ldr	r2, [pc, #76]	; (80022dc <LL_GPIO_AF_SetEXTISource+0x58>)
 8002290:	683b      	ldr	r3, [r7, #0]
 8002292:	b2db      	uxtb	r3, r3
 8002294:	3302      	adds	r3, #2
 8002296:	f852 2023 	ldr.w	r2, [r2, r3, lsl #2]
 800229a:	683b      	ldr	r3, [r7, #0]
 800229c:	0c1b      	lsrs	r3, r3, #16
 800229e:	43db      	mvns	r3, r3
 80022a0:	ea02 0103 	and.w	r1, r2, r3
 80022a4:	683b      	ldr	r3, [r7, #0]
 80022a6:	0c1b      	lsrs	r3, r3, #16
 80022a8:	60fb      	str	r3, [r7, #12]
   __ASM volatile ("rbit %0, %1" : "=r" (result) : "r" (value) );
 80022aa:	68fb      	ldr	r3, [r7, #12]
 80022ac:	fa93 f3a3 	rbit	r3, r3
 80022b0:	60bb      	str	r3, [r7, #8]
  return result;
 80022b2:	68bb      	ldr	r3, [r7, #8]
 80022b4:	fab3 f383 	clz	r3, r3
 80022b8:	b2db      	uxtb	r3, r3
 80022ba:	461a      	mov	r2, r3
 80022bc:	687b      	ldr	r3, [r7, #4]
 80022be:	fa03 f202 	lsl.w	r2, r3, r2
 80022c2:	4806      	ldr	r0, [pc, #24]	; (80022dc <LL_GPIO_AF_SetEXTISource+0x58>)
 80022c4:	683b      	ldr	r3, [r7, #0]
 80022c6:	b2db      	uxtb	r3, r3
 80022c8:	430a      	orrs	r2, r1
 80022ca:	3302      	adds	r3, #2
 80022cc:	f840 2023 	str.w	r2, [r0, r3, lsl #2]
}
 80022d0:	bf00      	nop
 80022d2:	3714      	adds	r7, #20
 80022d4:	46bd      	mov	sp, r7
 80022d6:	bc80      	pop	{r7}
 80022d8:	4770      	bx	lr
 80022da:	bf00      	nop
 80022dc:	40010000 	.word	0x40010000

080022e0 <__io_putchar>:
/* USER CODE END PFP */

/* Private user code ---------------------------------------------------------*/
/* USER CODE BEGIN 0 */
PUTCHAR_PROTOTYPE
{
 80022e0:	b580      	push	{r7, lr}
 80022e2:	b082      	sub	sp, #8
 80022e4:	af00      	add	r7, sp, #0
 80022e6:	6078      	str	r0, [r7, #4]
  while (LL_USART_IsActiveFlag_TC(USART1) == 0)
 80022e8:	bf00      	nop
 80022ea:	4808      	ldr	r0, [pc, #32]	; (800230c <__io_putchar+0x2c>)
 80022ec:	f7ff ff02 	bl	80020f4 <LL_USART_IsActiveFlag_TC>
 80022f0:	4603      	mov	r3, r0
 80022f2:	2b00      	cmp	r3, #0
 80022f4:	d0f9      	beq.n	80022ea <__io_putchar+0xa>
  {
  }
  LL_USART_TransmitData8(USART1, (uint8_t)ch);
 80022f6:	687b      	ldr	r3, [r7, #4]
 80022f8:	b2db      	uxtb	r3, r3
 80022fa:	4619      	mov	r1, r3
 80022fc:	4803      	ldr	r0, [pc, #12]	; (800230c <__io_putchar+0x2c>)
 80022fe:	f7ff ff0b 	bl	8002118 <LL_USART_TransmitData8>

  return ch;
 8002302:	687b      	ldr	r3, [r7, #4]
}
 8002304:	4618      	mov	r0, r3
 8002306:	3708      	adds	r7, #8
 8002308:	46bd      	mov	sp, r7
 800230a:	bd80      	pop	{r7, pc}
 800230c:	40013800 	.word	0x40013800

08002310 <main>:
/**
  * @brief  The application entry point.
  * @retval int
  */
int main(void)
{
 8002310:	b598      	push	{r3, r4, r7, lr}
 8002312:	af00      	add	r7, sp, #0

  /* MCU Configuration--------------------------------------------------------*/

  /* Reset of all peripherals, Initializes the Flash interface and the Systick. */

  LL_APB2_GRP1_EnableClock(LL_APB2_GRP1_PERIPH_AFIO);
 8002314:	2001      	movs	r0, #1
 8002316:	f7ff fbd5 	bl	8001ac4 <LL_APB2_GRP1_EnableClock>
  LL_APB1_GRP1_EnableClock(LL_APB1_GRP1_PERIPH_PWR);
 800231a:	f04f 5080 	mov.w	r0, #268435456	; 0x10000000
 800231e:	f7ff fbb9 	bl	8001a94 <LL_APB1_GRP1_EnableClock>

  NVIC_SetPriorityGrouping(NVIC_PRIORITYGROUP_4);
 8002322:	2003      	movs	r0, #3
 8002324:	f7fe ffb0 	bl	8001288 <__NVIC_SetPriorityGrouping>

  /* System interrupt init*/
  /* MemoryManagement_IRQn interrupt configuration */
  NVIC_SetPriority(MemoryManagement_IRQn, NVIC_EncodePriority(NVIC_GetPriorityGrouping(),1, 0));
 8002328:	f7fe ffd2 	bl	80012d0 <__NVIC_GetPriorityGrouping>
 800232c:	4603      	mov	r3, r0
 800232e:	2200      	movs	r2, #0
 8002330:	2101      	movs	r1, #1
 8002332:	4618      	mov	r0, r3
 8002334:	f7ff f820 	bl	8001378 <NVIC_EncodePriority>
 8002338:	4603      	mov	r3, r0
 800233a:	4619      	mov	r1, r3
 800233c:	f06f 000b 	mvn.w	r0, #11
 8002340:	f7fe fff0 	bl	8001324 <__NVIC_SetPriority>
  /* BusFault_IRQn interrupt configuration */
  NVIC_SetPriority(BusFault_IRQn, NVIC_EncodePriority(NVIC_GetPriorityGrouping(),1, 0));
 8002344:	f7fe ffc4 	bl	80012d0 <__NVIC_GetPriorityGrouping>
 8002348:	4603      	mov	r3, r0
 800234a:	2200      	movs	r2, #0
 800234c:	2101      	movs	r1, #1
 800234e:	4618      	mov	r0, r3
 8002350:	f7ff f812 	bl	8001378 <NVIC_EncodePriority>
 8002354:	4603      	mov	r3, r0
 8002356:	4619      	mov	r1, r3
 8002358:	f06f 000a 	mvn.w	r0, #10
 800235c:	f7fe ffe2 	bl	8001324 <__NVIC_SetPriority>
  /* UsageFault_IRQn interrupt configuration */
  NVIC_SetPriority(UsageFault_IRQn, NVIC_EncodePriority(NVIC_GetPriorityGrouping(),1, 0));
 8002360:	f7fe ffb6 	bl	80012d0 <__NVIC_GetPriorityGrouping>
 8002364:	4603      	mov	r3, r0
 8002366:	2200      	movs	r2, #0
 8002368:	2101      	movs	r1, #1
 800236a:	4618      	mov	r0, r3
 800236c:	f7ff f804 	bl	8001378 <NVIC_EncodePriority>
 8002370:	4603      	mov	r3, r0
 8002372:	4619      	mov	r1, r3
 8002374:	f06f 0009 	mvn.w	r0, #9
 8002378:	f7fe ffd4 	bl	8001324 <__NVIC_SetPriority>
  /* SVCall_IRQn interrupt configuration */
  NVIC_SetPriority(SVCall_IRQn, NVIC_EncodePriority(NVIC_GetPriorityGrouping(),1, 0));
 800237c:	f7fe ffa8 	bl	80012d0 <__NVIC_GetPriorityGrouping>
 8002380:	4603      	mov	r3, r0
 8002382:	2200      	movs	r2, #0
 8002384:	2101      	movs	r1, #1
 8002386:	4618      	mov	r0, r3
 8002388:	f7fe fff6 	bl	8001378 <NVIC_EncodePriority>
 800238c:	4603      	mov	r3, r0
 800238e:	4619      	mov	r1, r3
 8002390:	f06f 0004 	mvn.w	r0, #4
 8002394:	f7fe ffc6 	bl	8001324 <__NVIC_SetPriority>
  /* DebugMonitor_IRQn interrupt configuration */
  NVIC_SetPriority(DebugMonitor_IRQn, NVIC_EncodePriority(NVIC_GetPriorityGrouping(),1, 0));
 8002398:	f7fe ff9a 	bl	80012d0 <__NVIC_GetPriorityGrouping>
 800239c:	4603      	mov	r3, r0
 800239e:	2200      	movs	r2, #0
 80023a0:	2101      	movs	r1, #1
 80023a2:	4618      	mov	r0, r3
 80023a4:	f7fe ffe8 	bl	8001378 <NVIC_EncodePriority>
 80023a8:	4603      	mov	r3, r0
 80023aa:	4619      	mov	r1, r3
 80023ac:	f06f 0003 	mvn.w	r0, #3
 80023b0:	f7fe ffb8 	bl	8001324 <__NVIC_SetPriority>
  /* PendSV_IRQn interrupt configuration */
  NVIC_SetPriority(PendSV_IRQn, NVIC_EncodePriority(NVIC_GetPriorityGrouping(),1, 0));
 80023b4:	f7fe ff8c 	bl	80012d0 <__NVIC_GetPriorityGrouping>
 80023b8:	4603      	mov	r3, r0
 80023ba:	2200      	movs	r2, #0
 80023bc:	2101      	movs	r1, #1
 80023be:	4618      	mov	r0, r3
 80023c0:	f7fe ffda 	bl	8001378 <NVIC_EncodePriority>
 80023c4:	4603      	mov	r3, r0
 80023c6:	4619      	mov	r1, r3
 80023c8:	f06f 0001 	mvn.w	r0, #1
 80023cc:	f7fe ffaa 	bl	8001324 <__NVIC_SetPriority>
  /* SysTick_IRQn interrupt configuration */
  NVIC_SetPriority(SysTick_IRQn, NVIC_EncodePriority(NVIC_GetPriorityGrouping(),1, 0));
 80023d0:	f7fe ff7e 	bl	80012d0 <__NVIC_GetPriorityGrouping>
 80023d4:	4603      	mov	r3, r0
 80023d6:	2200      	movs	r2, #0
 80023d8:	2101      	movs	r1, #1
 80023da:	4618      	mov	r0, r3
 80023dc:	f7fe ffcc 	bl	8001378 <NVIC_EncodePriority>
 80023e0:	4603      	mov	r3, r0
 80023e2:	4619      	mov	r1, r3
 80023e4:	f04f 30ff 	mov.w	r0, #4294967295
 80023e8:	f7fe ff9c 	bl	8001324 <__NVIC_SetPriority>

  /** NOJTAG: JTAG-DP Disabled and SW-DP Enabled
  */
  LL_GPIO_AF_Remap_SWJ_NOJTAG();
 80023ec:	f7ff ff36 	bl	800225c <LL_GPIO_AF_Remap_SWJ_NOJTAG>

  /* USER CODE BEGIN Init */
  setvbuf(stdin, NULL, _IONBF, 0);
 80023f0:	4ba5      	ldr	r3, [pc, #660]	; (8002688 <main+0x378>)
 80023f2:	681b      	ldr	r3, [r3, #0]
 80023f4:	6858      	ldr	r0, [r3, #4]
 80023f6:	2300      	movs	r3, #0
 80023f8:	2202      	movs	r2, #2
 80023fa:	2100      	movs	r1, #0
 80023fc:	f003 fbe6 	bl	8005bcc <setvbuf>
  setvbuf(stdout, NULL, _IONBF, 0);
 8002400:	4ba1      	ldr	r3, [pc, #644]	; (8002688 <main+0x378>)
 8002402:	681b      	ldr	r3, [r3, #0]
 8002404:	6898      	ldr	r0, [r3, #8]
 8002406:	2300      	movs	r3, #0
 8002408:	2202      	movs	r2, #2
 800240a:	2100      	movs	r1, #0
 800240c:	f003 fbde 	bl	8005bcc <setvbuf>
  setvbuf(stderr, NULL, _IONBF, 0);
 8002410:	4b9d      	ldr	r3, [pc, #628]	; (8002688 <main+0x378>)
 8002412:	681b      	ldr	r3, [r3, #0]
 8002414:	68d8      	ldr	r0, [r3, #12]
 8002416:	2300      	movs	r3, #0
 8002418:	2202      	movs	r2, #2
 800241a:	2100      	movs	r1, #0
 800241c:	f003 fbd6 	bl	8005bcc <setvbuf>
  /* USER CODE END Init */

  /* Configure the system clock */
  SystemClock_Config();
 8002420:	f000 f9de 	bl	80027e0 <SystemClock_Config>
  /* USER CODE BEGIN SysInit */

  /* USER CODE END SysInit */

  /* Initialize all configured peripherals */
  MX_GPIO_Init();
 8002424:	f000 fe94 	bl	8003150 <MX_GPIO_Init>
  MX_DMA_Init();
 8002428:	f000 fe7a 	bl	8003120 <MX_DMA_Init>
  MX_TIM1_Init();
 800242c:	f000 fb8a 	bl	8002b44 <MX_TIM1_Init>
  MX_ADC1_Init();
 8002430:	f000 fa18 	bl	8002864 <MX_ADC1_Init>
  MX_I2C1_Init();
 8002434:	f000 fb2c 	bl	8002a90 <MX_I2C1_Init>
  MX_USART1_UART_Init();
 8002438:	f000 fe08 	bl	800304c <MX_USART1_UART_Init>
  MX_TIM2_Init();
 800243c:	f000 fc38 	bl	8002cb0 <MX_TIM2_Init>
  MX_TIM3_Init();
 8002440:	f000 fce6 	bl	8002e10 <MX_TIM3_Init>
  MX_TIM4_Init();
 8002444:	f000 fd74 	bl	8002f30 <MX_TIM4_Init>
  /* USER CODE BEGIN 2 */
  MotorL_EnablePWM();
 8002448:	f7fe fe5a 	bl	8001100 <MotorL_EnablePWM>
  MotorR_EnablePWM();
 800244c:	f7fe fe62 	bl	8001114 <MotorR_EnablePWM>
  MotorL_SetPWM(0);
 8002450:	2000      	movs	r0, #0
 8002452:	f7fe fe6b 	bl	800112c <MotorL_SetPWM>
  MotorR_SetPWM(0);
 8002456:	2000      	movs	r0, #0
 8002458:	f7fe fea0 	bl	800119c <MotorR_SetPWM>
  Servo_SetAngle(0);
 800245c:	f04f 0000 	mov.w	r0, #0
 8002460:	f7fe fed4 	bl	800120c <Servo_SetAngle>

  //  uint32_t Count = LL_TIM_GetCounter(TIM2);

  while (1)
  {
    Sensor_Convert_A2D();
 8002464:	f000 ff42 	bl	80032ec <Sensor_Convert_A2D>
//    printf("HalfWhiteFlag_Raw: %i ", HalfWhiteFlag_Raw);
//    printf("FullWhiteFlag: %i ", FullWhiteFlag);
//    printf("CuaFlag: %i ", CuaFlag);
//    printf("MatLineFlag: %i \n", MatLineFlag);

    if(HalfWhiteFlag != 0 || FullWhiteFlag != 0 || MatLineFlag!= 0 || CuaFlag != 0)
 8002468:	4b88      	ldr	r3, [pc, #544]	; (800268c <main+0x37c>)
 800246a:	f993 3000 	ldrsb.w	r3, [r3]
 800246e:	2b00      	cmp	r3, #0
 8002470:	d10c      	bne.n	800248c <main+0x17c>
 8002472:	4b87      	ldr	r3, [pc, #540]	; (8002690 <main+0x380>)
 8002474:	781b      	ldrb	r3, [r3, #0]
 8002476:	2b00      	cmp	r3, #0
 8002478:	d108      	bne.n	800248c <main+0x17c>
 800247a:	4b86      	ldr	r3, [pc, #536]	; (8002694 <main+0x384>)
 800247c:	781b      	ldrb	r3, [r3, #0]
 800247e:	2b00      	cmp	r3, #0
 8002480:	d104      	bne.n	800248c <main+0x17c>
 8002482:	4b85      	ldr	r3, [pc, #532]	; (8002698 <main+0x388>)
 8002484:	f993 3000 	ldrsb.w	r3, [r3]
 8002488:	2b00      	cmp	r3, #0
 800248a:	d004      	beq.n	8002496 <main+0x186>
    {
    	MaxSpeed = SignalSpeed;
 800248c:	4b83      	ldr	r3, [pc, #524]	; (800269c <main+0x38c>)
 800248e:	f44f 62fa 	mov.w	r2, #2000	; 0x7d0
 8002492:	801a      	strh	r2, [r3, #0]
 8002494:	e003      	b.n	800249e <main+0x18e>
    }
    else {
    	MaxSpeed = MaximumSpeed;
 8002496:	4b81      	ldr	r3, [pc, #516]	; (800269c <main+0x38c>)
 8002498:	f44f 52e1 	mov.w	r2, #7200	; 0x1c20
 800249c:	801a      	strh	r2, [r3, #0]
    }
    if (LineDetect == 0b00011000 || LineDetect == 0b00011100 || LineDetect == 0b00111000)
 800249e:	4b80      	ldr	r3, [pc, #512]	; (80026a0 <main+0x390>)
 80024a0:	781b      	ldrb	r3, [r3, #0]
 80024a2:	2b18      	cmp	r3, #24
 80024a4:	d007      	beq.n	80024b6 <main+0x1a6>
 80024a6:	4b7e      	ldr	r3, [pc, #504]	; (80026a0 <main+0x390>)
 80024a8:	781b      	ldrb	r3, [r3, #0]
 80024aa:	2b1c      	cmp	r3, #28
 80024ac:	d003      	beq.n	80024b6 <main+0x1a6>
 80024ae:	4b7c      	ldr	r3, [pc, #496]	; (80026a0 <main+0x390>)
 80024b0:	781b      	ldrb	r3, [r3, #0]
 80024b2:	2b38      	cmp	r3, #56	; 0x38
 80024b4:	d12c      	bne.n	8002510 <main+0x200>
    {
    	if(HalfWhiteFlag_Raw == HalfLeft)
 80024b6:	4b7b      	ldr	r3, [pc, #492]	; (80026a4 <main+0x394>)
 80024b8:	f993 3000 	ldrsb.w	r3, [r3]
 80024bc:	f1b3 3fff 	cmp.w	r3, #4294967295
 80024c0:	d106      	bne.n	80024d0 <main+0x1c0>
    	{
    		HalfWhiteFlag_Raw = 0;
 80024c2:	4b78      	ldr	r3, [pc, #480]	; (80026a4 <main+0x394>)
 80024c4:	2200      	movs	r2, #0
 80024c6:	701a      	strb	r2, [r3, #0]
    		HalfWhiteFlag = HalfLeft;
 80024c8:	4b70      	ldr	r3, [pc, #448]	; (800268c <main+0x37c>)
 80024ca:	22ff      	movs	r2, #255	; 0xff
 80024cc:	701a      	strb	r2, [r3, #0]
 80024ce:	e00a      	b.n	80024e6 <main+0x1d6>
    	}else if(HalfWhiteFlag_Raw == HalfRight)
 80024d0:	4b74      	ldr	r3, [pc, #464]	; (80026a4 <main+0x394>)
 80024d2:	f993 3000 	ldrsb.w	r3, [r3]
 80024d6:	2b01      	cmp	r3, #1
 80024d8:	d105      	bne.n	80024e6 <main+0x1d6>
		{
    		HalfWhiteFlag_Raw = 0;
 80024da:	4b72      	ldr	r3, [pc, #456]	; (80026a4 <main+0x394>)
 80024dc:	2200      	movs	r2, #0
 80024de:	701a      	strb	r2, [r3, #0]
			HalfWhiteFlag = HalfRight;
 80024e0:	4b6a      	ldr	r3, [pc, #424]	; (800268c <main+0x37c>)
 80024e2:	2201      	movs	r2, #1
 80024e4:	701a      	strb	r2, [r3, #0]
		}

      MatLineFlag = 0;
 80024e6:	4b6b      	ldr	r3, [pc, #428]	; (8002694 <main+0x384>)
 80024e8:	2200      	movs	r2, #0
 80024ea:	701a      	strb	r2, [r3, #0]
      CarState = DiThang;
 80024ec:	4b6e      	ldr	r3, [pc, #440]	; (80026a8 <main+0x398>)
 80024ee:	2200      	movs	r2, #0
 80024f0:	701a      	strb	r2, [r3, #0]
      MotorL_SetPWM(MaxSpeed);
 80024f2:	4b6a      	ldr	r3, [pc, #424]	; (800269c <main+0x38c>)
 80024f4:	881b      	ldrh	r3, [r3, #0]
 80024f6:	4618      	mov	r0, r3
 80024f8:	f7fe fe18 	bl	800112c <MotorL_SetPWM>
      MotorR_SetPWM(MaxSpeed);
 80024fc:	4b67      	ldr	r3, [pc, #412]	; (800269c <main+0x38c>)
 80024fe:	881b      	ldrh	r3, [r3, #0]
 8002500:	4618      	mov	r0, r3
 8002502:	f7fe fe4b 	bl	800119c <MotorR_SetPWM>
      Servo_SetAngle(0);
 8002506:	f04f 0000 	mov.w	r0, #0
 800250a:	f7fe fe7f 	bl	800120c <Servo_SetAngle>
      continue;
 800250e:	e151      	b.n	80027b4 <main+0x4a4>
    }
    if (CarState == DiThang)
 8002510:	4b65      	ldr	r3, [pc, #404]	; (80026a8 <main+0x398>)
 8002512:	f993 3000 	ldrsb.w	r3, [r3]
 8002516:	2b00      	cmp	r3, #0
 8002518:	d136      	bne.n	8002588 <main+0x278>
    {
      if (LineDetect == 0b10000000 || LineDetect == 0b11000000 ||
 800251a:	4b61      	ldr	r3, [pc, #388]	; (80026a0 <main+0x390>)
 800251c:	781b      	ldrb	r3, [r3, #0]
 800251e:	2b80      	cmp	r3, #128	; 0x80
 8002520:	d013      	beq.n	800254a <main+0x23a>
 8002522:	4b5f      	ldr	r3, [pc, #380]	; (80026a0 <main+0x390>)
 8002524:	781b      	ldrb	r3, [r3, #0]
 8002526:	2bc0      	cmp	r3, #192	; 0xc0
 8002528:	d00f      	beq.n	800254a <main+0x23a>
          LineDetect == 0b11100000 || LineDetect == 0b01110000 ||
 800252a:	4b5d      	ldr	r3, [pc, #372]	; (80026a0 <main+0x390>)
 800252c:	781b      	ldrb	r3, [r3, #0]
      if (LineDetect == 0b10000000 || LineDetect == 0b11000000 ||
 800252e:	2be0      	cmp	r3, #224	; 0xe0
 8002530:	d00b      	beq.n	800254a <main+0x23a>
          LineDetect == 0b11100000 || LineDetect == 0b01110000 ||
 8002532:	4b5b      	ldr	r3, [pc, #364]	; (80026a0 <main+0x390>)
 8002534:	781b      	ldrb	r3, [r3, #0]
 8002536:	2b70      	cmp	r3, #112	; 0x70
 8002538:	d007      	beq.n	800254a <main+0x23a>
          LineDetect == 0b00110000 || LineDetect == 0b00010000)
 800253a:	4b59      	ldr	r3, [pc, #356]	; (80026a0 <main+0x390>)
 800253c:	781b      	ldrb	r3, [r3, #0]
          LineDetect == 0b11100000 || LineDetect == 0b01110000 ||
 800253e:	2b30      	cmp	r3, #48	; 0x30
 8002540:	d003      	beq.n	800254a <main+0x23a>
          LineDetect == 0b00110000 || LineDetect == 0b00010000)
 8002542:	4b57      	ldr	r3, [pc, #348]	; (80026a0 <main+0x390>)
 8002544:	781b      	ldrb	r3, [r3, #0]
 8002546:	2b10      	cmp	r3, #16
 8002548:	d103      	bne.n	8002552 <main+0x242>
      {
        CarState = LechPhai;
 800254a:	4b57      	ldr	r3, [pc, #348]	; (80026a8 <main+0x398>)
 800254c:	2201      	movs	r2, #1
 800254e:	701a      	strb	r2, [r3, #0]
 8002550:	e01a      	b.n	8002588 <main+0x278>
      }
      else if (LineDetect == 0b00000001 || LineDetect == 0b00000011 ||
 8002552:	4b53      	ldr	r3, [pc, #332]	; (80026a0 <main+0x390>)
 8002554:	781b      	ldrb	r3, [r3, #0]
 8002556:	2b01      	cmp	r3, #1
 8002558:	d013      	beq.n	8002582 <main+0x272>
 800255a:	4b51      	ldr	r3, [pc, #324]	; (80026a0 <main+0x390>)
 800255c:	781b      	ldrb	r3, [r3, #0]
 800255e:	2b03      	cmp	r3, #3
 8002560:	d00f      	beq.n	8002582 <main+0x272>
               LineDetect == 0b00000111 || LineDetect == 0b00001110 ||
 8002562:	4b4f      	ldr	r3, [pc, #316]	; (80026a0 <main+0x390>)
 8002564:	781b      	ldrb	r3, [r3, #0]
      else if (LineDetect == 0b00000001 || LineDetect == 0b00000011 ||
 8002566:	2b07      	cmp	r3, #7
 8002568:	d00b      	beq.n	8002582 <main+0x272>
               LineDetect == 0b00000111 || LineDetect == 0b00001110 ||
 800256a:	4b4d      	ldr	r3, [pc, #308]	; (80026a0 <main+0x390>)
 800256c:	781b      	ldrb	r3, [r3, #0]
 800256e:	2b0e      	cmp	r3, #14
 8002570:	d007      	beq.n	8002582 <main+0x272>
               LineDetect == 0b00001100 || LineDetect == 0b00001000)
 8002572:	4b4b      	ldr	r3, [pc, #300]	; (80026a0 <main+0x390>)
 8002574:	781b      	ldrb	r3, [r3, #0]
               LineDetect == 0b00000111 || LineDetect == 0b00001110 ||
 8002576:	2b0c      	cmp	r3, #12
 8002578:	d003      	beq.n	8002582 <main+0x272>
               LineDetect == 0b00001100 || LineDetect == 0b00001000)
 800257a:	4b49      	ldr	r3, [pc, #292]	; (80026a0 <main+0x390>)
 800257c:	781b      	ldrb	r3, [r3, #0]
 800257e:	2b08      	cmp	r3, #8
 8002580:	d102      	bne.n	8002588 <main+0x278>
      {
        CarState = LechTrai;
 8002582:	4b49      	ldr	r3, [pc, #292]	; (80026a8 <main+0x398>)
 8002584:	22ff      	movs	r2, #255	; 0xff
 8002586:	701a      	strb	r2, [r3, #0]
      }
    }
    if (LineDetect == 0b01111111 || LineDetect == 0b00111111 || LineDetect == 0b00011111)
 8002588:	4b45      	ldr	r3, [pc, #276]	; (80026a0 <main+0x390>)
 800258a:	781b      	ldrb	r3, [r3, #0]
 800258c:	2b7f      	cmp	r3, #127	; 0x7f
 800258e:	d007      	beq.n	80025a0 <main+0x290>
 8002590:	4b43      	ldr	r3, [pc, #268]	; (80026a0 <main+0x390>)
 8002592:	781b      	ldrb	r3, [r3, #0]
 8002594:	2b3f      	cmp	r3, #63	; 0x3f
 8002596:	d003      	beq.n	80025a0 <main+0x290>
 8002598:	4b41      	ldr	r3, [pc, #260]	; (80026a0 <main+0x390>)
 800259a:	781b      	ldrb	r3, [r3, #0]
 800259c:	2b1f      	cmp	r3, #31
 800259e:	d11a      	bne.n	80025d6 <main+0x2c6>
    {
//    	while(!(LineDetect == 0b00011000 || LineDetect == 0b00011100 || LineDetect == 0b00111000))
//    	{
//    		Sensor_Convert_A2D();
//    	}
    	if(FullWhiteFlag == 1)
 80025a0:	4b3b      	ldr	r3, [pc, #236]	; (8002690 <main+0x380>)
 80025a2:	781b      	ldrb	r3, [r3, #0]
 80025a4:	2b01      	cmp	r3, #1
 80025a6:	d10c      	bne.n	80025c2 <main+0x2b2>
    	{
//    		CuaFlag = CuaPhai;
    		FullWhiteFlag = 0;
 80025a8:	4b39      	ldr	r3, [pc, #228]	; (8002690 <main+0x380>)
 80025aa:	2200      	movs	r2, #0
 80025ac:	701a      	strb	r2, [r3, #0]
    		while(LineDetect != 0)
 80025ae:	e001      	b.n	80025b4 <main+0x2a4>
    		{
    			Sensor_Convert_A2D();
 80025b0:	f000 fe9c 	bl	80032ec <Sensor_Convert_A2D>
    		while(LineDetect != 0)
 80025b4:	4b3a      	ldr	r3, [pc, #232]	; (80026a0 <main+0x390>)
 80025b6:	781b      	ldrb	r3, [r3, #0]
 80025b8:	2b00      	cmp	r3, #0
 80025ba:	d1f9      	bne.n	80025b0 <main+0x2a0>
    		}

    		Car_CuaPhai_Process();
 80025bc:	f001 fb8c 	bl	8003cd8 <Car_CuaPhai_Process>
    	if(FullWhiteFlag == 1)
 80025c0:	e0ec      	b.n	800279c <main+0x48c>
    	}
    	else if(CuaFlag == 0)
 80025c2:	4b35      	ldr	r3, [pc, #212]	; (8002698 <main+0x388>)
 80025c4:	f993 3000 	ldrsb.w	r3, [r3]
 80025c8:	2b00      	cmp	r3, #0
 80025ca:	f040 80e7 	bne.w	800279c <main+0x48c>
    	{
    		HalfWhiteFlag_Raw = HalfRight;
 80025ce:	4b35      	ldr	r3, [pc, #212]	; (80026a4 <main+0x394>)
 80025d0:	2201      	movs	r2, #1
 80025d2:	701a      	strb	r2, [r3, #0]
    		continue;
 80025d4:	e0ee      	b.n	80027b4 <main+0x4a4>
    	}
    }
    else if ( LineDetect == 0b11111000 || LineDetect == 0b11111100 || LineDetect == 0b11111110)
 80025d6:	4b32      	ldr	r3, [pc, #200]	; (80026a0 <main+0x390>)
 80025d8:	781b      	ldrb	r3, [r3, #0]
 80025da:	2bf8      	cmp	r3, #248	; 0xf8
 80025dc:	d007      	beq.n	80025ee <main+0x2de>
 80025de:	4b30      	ldr	r3, [pc, #192]	; (80026a0 <main+0x390>)
 80025e0:	781b      	ldrb	r3, [r3, #0]
 80025e2:	2bfc      	cmp	r3, #252	; 0xfc
 80025e4:	d003      	beq.n	80025ee <main+0x2de>
 80025e6:	4b2e      	ldr	r3, [pc, #184]	; (80026a0 <main+0x390>)
 80025e8:	781b      	ldrb	r3, [r3, #0]
 80025ea:	2bfe      	cmp	r3, #254	; 0xfe
 80025ec:	d11d      	bne.n	800262a <main+0x31a>
    {

		if(FullWhiteFlag == 1)
 80025ee:	4b28      	ldr	r3, [pc, #160]	; (8002690 <main+0x380>)
 80025f0:	781b      	ldrb	r3, [r3, #0]
 80025f2:	2b01      	cmp	r3, #1
 80025f4:	d10f      	bne.n	8002616 <main+0x306>
		{
//			CuaFlag = CuaTrai;
			FullWhiteFlag = 0;
 80025f6:	4b26      	ldr	r3, [pc, #152]	; (8002690 <main+0x380>)
 80025f8:	2200      	movs	r2, #0
 80025fa:	701a      	strb	r2, [r3, #0]
			HalfWhiteFlag = 0;
 80025fc:	4b23      	ldr	r3, [pc, #140]	; (800268c <main+0x37c>)
 80025fe:	2200      	movs	r2, #0
 8002600:	701a      	strb	r2, [r3, #0]
			while(LineDetect != 0)
 8002602:	e001      	b.n	8002608 <main+0x2f8>
			{
				Sensor_Convert_A2D();
 8002604:	f000 fe72 	bl	80032ec <Sensor_Convert_A2D>
			while(LineDetect != 0)
 8002608:	4b25      	ldr	r3, [pc, #148]	; (80026a0 <main+0x390>)
 800260a:	781b      	ldrb	r3, [r3, #0]
 800260c:	2b00      	cmp	r3, #0
 800260e:	d1f9      	bne.n	8002604 <main+0x2f4>
			}
			Car_CuaTrai_Process();
 8002610:	f001 fbba 	bl	8003d88 <Car_CuaTrai_Process>
		if(FullWhiteFlag == 1)
 8002614:	e0c4      	b.n	80027a0 <main+0x490>
//			CuaFlag = 0;
		}
		else if(CuaFlag == 0)
 8002616:	4b20      	ldr	r3, [pc, #128]	; (8002698 <main+0x388>)
 8002618:	f993 3000 	ldrsb.w	r3, [r3]
 800261c:	2b00      	cmp	r3, #0
 800261e:	f040 80bf 	bne.w	80027a0 <main+0x490>
		{
			HalfWhiteFlag_Raw = HalfLeft;
 8002622:	4b20      	ldr	r3, [pc, #128]	; (80026a4 <main+0x394>)
 8002624:	22ff      	movs	r2, #255	; 0xff
 8002626:	701a      	strb	r2, [r3, #0]
			continue;
 8002628:	e0c4      	b.n	80027b4 <main+0x4a4>
		}
    }
    else if (LineDetect == 0xff)
 800262a:	4b1d      	ldr	r3, [pc, #116]	; (80026a0 <main+0x390>)
 800262c:	781b      	ldrb	r3, [r3, #0]
 800262e:	2bff      	cmp	r3, #255	; 0xff
 8002630:	d15d      	bne.n	80026ee <main+0x3de>
    {
    	while(!(LineDetect == 0b00011000 || LineDetect == 0b00011100 || LineDetect == 0b00111000 || LineDetect == 0))
 8002632:	e001      	b.n	8002638 <main+0x328>
    		Sensor_Convert_A2D();
 8002634:	f000 fe5a 	bl	80032ec <Sensor_Convert_A2D>
    	while(!(LineDetect == 0b00011000 || LineDetect == 0b00011100 || LineDetect == 0b00111000 || LineDetect == 0))
 8002638:	4b19      	ldr	r3, [pc, #100]	; (80026a0 <main+0x390>)
 800263a:	781b      	ldrb	r3, [r3, #0]
 800263c:	2b18      	cmp	r3, #24
 800263e:	d00b      	beq.n	8002658 <main+0x348>
 8002640:	4b17      	ldr	r3, [pc, #92]	; (80026a0 <main+0x390>)
 8002642:	781b      	ldrb	r3, [r3, #0]
 8002644:	2b1c      	cmp	r3, #28
 8002646:	d007      	beq.n	8002658 <main+0x348>
 8002648:	4b15      	ldr	r3, [pc, #84]	; (80026a0 <main+0x390>)
 800264a:	781b      	ldrb	r3, [r3, #0]
 800264c:	2b38      	cmp	r3, #56	; 0x38
 800264e:	d003      	beq.n	8002658 <main+0x348>
 8002650:	4b13      	ldr	r3, [pc, #76]	; (80026a0 <main+0x390>)
 8002652:	781b      	ldrb	r3, [r3, #0]
 8002654:	2b00      	cmp	r3, #0
 8002656:	d1ed      	bne.n	8002634 <main+0x324>
//    	LL_mDelay(1);
    	if(HalfWhiteFlag == HalfLeft)
 8002658:	4b0c      	ldr	r3, [pc, #48]	; (800268c <main+0x37c>)
 800265a:	f993 3000 	ldrsb.w	r3, [r3]
 800265e:	f1b3 3fff 	cmp.w	r3, #4294967295
 8002662:	d123      	bne.n	80026ac <main+0x39c>
    	{
    		HalfWhiteFlag = 0;
 8002664:	4b09      	ldr	r3, [pc, #36]	; (800268c <main+0x37c>)
 8002666:	2200      	movs	r2, #0
 8002668:	701a      	strb	r2, [r3, #0]
    		FullWhiteFlag = 0;
 800266a:	4b09      	ldr	r3, [pc, #36]	; (8002690 <main+0x380>)
 800266c:	2200      	movs	r2, #0
 800266e:	701a      	strb	r2, [r3, #0]
    		MatLineFlag = 0;
 8002670:	4b08      	ldr	r3, [pc, #32]	; (8002694 <main+0x384>)
 8002672:	2200      	movs	r2, #0
 8002674:	701a      	strb	r2, [r3, #0]
    		HalfWhiteFlag_Raw = 0;
 8002676:	4b0b      	ldr	r3, [pc, #44]	; (80026a4 <main+0x394>)
 8002678:	2200      	movs	r2, #0
 800267a:	701a      	strb	r2, [r3, #0]
			Car_CuaTrai_Process();
 800267c:	f001 fb84 	bl	8003d88 <Car_CuaTrai_Process>
			CuaFlag = 0;
 8002680:	4b05      	ldr	r3, [pc, #20]	; (8002698 <main+0x388>)
 8002682:	2200      	movs	r2, #0
 8002684:	701a      	strb	r2, [r3, #0]
 8002686:	e08c      	b.n	80027a2 <main+0x492>
 8002688:	20000018 	.word	0x20000018
 800268c:	20000207 	.word	0x20000207
 8002690:	2000020a 	.word	0x2000020a
 8002694:	2000020b 	.word	0x2000020b
 8002698:	20000209 	.word	0x20000209
 800269c:	20000010 	.word	0x20000010
 80026a0:	20000205 	.word	0x20000205
 80026a4:	20000208 	.word	0x20000208
 80026a8:	20000206 	.word	0x20000206
    	} else if (HalfWhiteFlag == HalfRight)
 80026ac:	4b42      	ldr	r3, [pc, #264]	; (80027b8 <main+0x4a8>)
 80026ae:	f993 3000 	ldrsb.w	r3, [r3]
 80026b2:	2b01      	cmp	r3, #1
 80026b4:	d111      	bne.n	80026da <main+0x3ca>
    	{
    		HalfWhiteFlag = 0;
 80026b6:	4b40      	ldr	r3, [pc, #256]	; (80027b8 <main+0x4a8>)
 80026b8:	2200      	movs	r2, #0
 80026ba:	701a      	strb	r2, [r3, #0]
			FullWhiteFlag = 0;
 80026bc:	4b3f      	ldr	r3, [pc, #252]	; (80027bc <main+0x4ac>)
 80026be:	2200      	movs	r2, #0
 80026c0:	701a      	strb	r2, [r3, #0]
			MatLineFlag = 0;
 80026c2:	4b3f      	ldr	r3, [pc, #252]	; (80027c0 <main+0x4b0>)
 80026c4:	2200      	movs	r2, #0
 80026c6:	701a      	strb	r2, [r3, #0]
			HalfWhiteFlag_Raw = 0;
 80026c8:	4b3e      	ldr	r3, [pc, #248]	; (80027c4 <main+0x4b4>)
 80026ca:	2200      	movs	r2, #0
 80026cc:	701a      	strb	r2, [r3, #0]
			Car_CuaPhai_Process();
 80026ce:	f001 fb03 	bl	8003cd8 <Car_CuaPhai_Process>
			CuaFlag = 0;
 80026d2:	4b3d      	ldr	r3, [pc, #244]	; (80027c8 <main+0x4b8>)
 80026d4:	2200      	movs	r2, #0
 80026d6:	701a      	strb	r2, [r3, #0]
 80026d8:	e063      	b.n	80027a2 <main+0x492>
    	}
    	else
    	{
    		HalfWhiteFlag_Raw = 0;
 80026da:	4b3a      	ldr	r3, [pc, #232]	; (80027c4 <main+0x4b4>)
 80026dc:	2200      	movs	r2, #0
 80026de:	701a      	strb	r2, [r3, #0]
    		 HalfWhiteFlag = 0;
 80026e0:	4b35      	ldr	r3, [pc, #212]	; (80027b8 <main+0x4a8>)
 80026e2:	2200      	movs	r2, #0
 80026e4:	701a      	strb	r2, [r3, #0]
    		 FullWhiteFlag = 1;
 80026e6:	4b35      	ldr	r3, [pc, #212]	; (80027bc <main+0x4ac>)
 80026e8:	2201      	movs	r2, #1
 80026ea:	701a      	strb	r2, [r3, #0]
    		 continue;
 80026ec:	e062      	b.n	80027b4 <main+0x4a4>
    	}
    }
    else if (LineDetect == 0)
 80026ee:	4b37      	ldr	r3, [pc, #220]	; (80027cc <main+0x4bc>)
 80026f0:	781b      	ldrb	r3, [r3, #0]
 80026f2:	2b00      	cmp	r3, #0
 80026f4:	d155      	bne.n	80027a2 <main+0x492>
    {
      if (HalfWhiteFlag == HalfLeft)
 80026f6:	4b30      	ldr	r3, [pc, #192]	; (80027b8 <main+0x4a8>)
 80026f8:	f993 3000 	ldrsb.w	r3, [r3]
 80026fc:	f1b3 3fff 	cmp.w	r3, #4294967295
 8002700:	d105      	bne.n	800270e <main+0x3fe>
      {
        HalfWhiteFlag = 0;
 8002702:	4b2d      	ldr	r3, [pc, #180]	; (80027b8 <main+0x4a8>)
 8002704:	2200      	movs	r2, #0
 8002706:	701a      	strb	r2, [r3, #0]
        Car_ChuyenLaneTrai_Process();
 8002708:	f001 faa2 	bl	8003c50 <Car_ChuyenLaneTrai_Process>
        continue;
 800270c:	e052      	b.n	80027b4 <main+0x4a4>
      }
      else if (HalfWhiteFlag == HalfRight)
 800270e:	4b2a      	ldr	r3, [pc, #168]	; (80027b8 <main+0x4a8>)
 8002710:	f993 3000 	ldrsb.w	r3, [r3]
 8002714:	2b01      	cmp	r3, #1
 8002716:	d105      	bne.n	8002724 <main+0x414>
      {
        HalfWhiteFlag = 0;
 8002718:	4b27      	ldr	r3, [pc, #156]	; (80027b8 <main+0x4a8>)
 800271a:	2200      	movs	r2, #0
 800271c:	701a      	strb	r2, [r3, #0]
        Car_ChuyenLanePhai_Process();
 800271e:	f001 fa53 	bl	8003bc8 <Car_ChuyenLanePhai_Process>
        continue;
 8002722:	e047      	b.n	80027b4 <main+0x4a4>
//      {
//    	  Car_CuaPhai_Process();
//    	  CuaFlag = 0;
//    	  continue;
//      }
      else if (FullWhiteFlag == 1)
 8002724:	4b25      	ldr	r3, [pc, #148]	; (80027bc <main+0x4ac>)
 8002726:	781b      	ldrb	r3, [r3, #0]
 8002728:	2b01      	cmp	r3, #1
 800272a:	d13a      	bne.n	80027a2 <main+0x492>
      {
        FullWhiteFlag = 0;
 800272c:	4b23      	ldr	r3, [pc, #140]	; (80027bc <main+0x4ac>)
 800272e:	2200      	movs	r2, #0
 8002730:	701a      	strb	r2, [r3, #0]
        MatLineFlag = 1;
 8002732:	4b23      	ldr	r3, [pc, #140]	; (80027c0 <main+0x4b0>)
 8002734:	2201      	movs	r2, #1
 8002736:	701a      	strb	r2, [r3, #0]
        HalfWhiteFlag = 0;
 8002738:	4b1f      	ldr	r3, [pc, #124]	; (80027b8 <main+0x4a8>)
 800273a:	2200      	movs	r2, #0
 800273c:	701a      	strb	r2, [r3, #0]
        MotorL_SetPWM(MaxSpeed * 1.5);
 800273e:	4b24      	ldr	r3, [pc, #144]	; (80027d0 <main+0x4c0>)
 8002740:	881b      	ldrh	r3, [r3, #0]
 8002742:	4618      	mov	r0, r3
 8002744:	f7fd fe5e 	bl	8000404 <__aeabi_i2d>
 8002748:	f04f 0200 	mov.w	r2, #0
 800274c:	4b21      	ldr	r3, [pc, #132]	; (80027d4 <main+0x4c4>)
 800274e:	f7fd fec3 	bl	80004d8 <__aeabi_dmul>
 8002752:	4603      	mov	r3, r0
 8002754:	460c      	mov	r4, r1
 8002756:	4618      	mov	r0, r3
 8002758:	4621      	mov	r1, r4
 800275a:	f7fe f96d 	bl	8000a38 <__aeabi_d2iz>
 800275e:	4603      	mov	r3, r0
 8002760:	4618      	mov	r0, r3
 8002762:	f7fe fce3 	bl	800112c <MotorL_SetPWM>
        MotorR_SetPWM(MaxSpeed * 1.5);
 8002766:	4b1a      	ldr	r3, [pc, #104]	; (80027d0 <main+0x4c0>)
 8002768:	881b      	ldrh	r3, [r3, #0]
 800276a:	4618      	mov	r0, r3
 800276c:	f7fd fe4a 	bl	8000404 <__aeabi_i2d>
 8002770:	f04f 0200 	mov.w	r2, #0
 8002774:	4b17      	ldr	r3, [pc, #92]	; (80027d4 <main+0x4c4>)
 8002776:	f7fd feaf 	bl	80004d8 <__aeabi_dmul>
 800277a:	4603      	mov	r3, r0
 800277c:	460c      	mov	r4, r1
 800277e:	4618      	mov	r0, r3
 8002780:	4621      	mov	r1, r4
 8002782:	f7fe f959 	bl	8000a38 <__aeabi_d2iz>
 8002786:	4603      	mov	r3, r0
 8002788:	4618      	mov	r0, r3
 800278a:	f7fe fd07 	bl	800119c <MotorR_SetPWM>
        Servo_SetAngle(-12);
 800278e:	4812      	ldr	r0, [pc, #72]	; (80027d8 <main+0x4c8>)
 8002790:	f7fe fd3c 	bl	800120c <Servo_SetAngle>
        CarState = DiThang;
 8002794:	4b11      	ldr	r3, [pc, #68]	; (80027dc <main+0x4cc>)
 8002796:	2200      	movs	r2, #0
 8002798:	701a      	strb	r2, [r3, #0]
 800279a:	e002      	b.n	80027a2 <main+0x492>
    	if(FullWhiteFlag == 1)
 800279c:	bf00      	nop
 800279e:	e000      	b.n	80027a2 <main+0x492>
		if(FullWhiteFlag == 1)
 80027a0:	bf00      	nop
      }
    };
    if (MatLineFlag == 1)
 80027a2:	4b07      	ldr	r3, [pc, #28]	; (80027c0 <main+0x4b0>)
 80027a4:	781b      	ldrb	r3, [r3, #0]
 80027a6:	2b01      	cmp	r3, #1
 80027a8:	d102      	bne.n	80027b0 <main+0x4a0>
    {
      Car_MatLine_Process();
 80027aa:	f001 f995 	bl	8003ad8 <Car_MatLine_Process>
 80027ae:	e659      	b.n	8002464 <main+0x154>
    }
    else
    {
      Car_BamLine_Process();
 80027b0:	f000 fdd2 	bl	8003358 <Car_BamLine_Process>
    Sensor_Convert_A2D();
 80027b4:	e656      	b.n	8002464 <main+0x154>
 80027b6:	bf00      	nop
 80027b8:	20000207 	.word	0x20000207
 80027bc:	2000020a 	.word	0x2000020a
 80027c0:	2000020b 	.word	0x2000020b
 80027c4:	20000208 	.word	0x20000208
 80027c8:	20000209 	.word	0x20000209
 80027cc:	20000205 	.word	0x20000205
 80027d0:	20000010 	.word	0x20000010
 80027d4:	3ff80000 	.word	0x3ff80000
 80027d8:	c1400000 	.word	0xc1400000
 80027dc:	20000206 	.word	0x20000206

080027e0 <SystemClock_Config>:
/**
  * @brief System Clock Configuration
  * @retval None
  */
void SystemClock_Config(void)
{
 80027e0:	b580      	push	{r7, lr}
 80027e2:	af00      	add	r7, sp, #0
  LL_FLASH_SetLatency(LL_FLASH_LATENCY_2);
 80027e4:	2002      	movs	r0, #2
 80027e6:	f7ff f985 	bl	8001af4 <LL_FLASH_SetLatency>
  while(LL_FLASH_GetLatency()!= LL_FLASH_LATENCY_2)
 80027ea:	bf00      	nop
 80027ec:	f7ff f996 	bl	8001b1c <LL_FLASH_GetLatency>
 80027f0:	4603      	mov	r3, r0
 80027f2:	2b02      	cmp	r3, #2
 80027f4:	d1fa      	bne.n	80027ec <SystemClock_Config+0xc>
  {
  }
  LL_RCC_HSE_Enable();
 80027f6:	f7ff f86d 	bl	80018d4 <LL_RCC_HSE_Enable>

   /* Wait till HSE is ready */
  while(LL_RCC_HSE_IsReady() != 1)
 80027fa:	bf00      	nop
 80027fc:	f7ff f878 	bl	80018f0 <LL_RCC_HSE_IsReady>
 8002800:	4603      	mov	r3, r0
 8002802:	2b01      	cmp	r3, #1
 8002804:	d1fa      	bne.n	80027fc <SystemClock_Config+0x1c>
  {

  }
  LL_RCC_PLL_ConfigDomain_SYS(LL_RCC_PLLSOURCE_HSE_DIV_1, LL_RCC_PLL_MUL_9);
 8002806:	f44f 11e0 	mov.w	r1, #1835008	; 0x1c0000
 800280a:	f44f 3080 	mov.w	r0, #65536	; 0x10000
 800280e:	f7ff f911 	bl	8001a34 <LL_RCC_PLL_ConfigDomain_SYS>
  LL_RCC_PLL_Enable();
 8002812:	f7ff f8ef 	bl	80019f4 <LL_RCC_PLL_Enable>

   /* Wait till PLL is ready */
  while(LL_RCC_PLL_IsReady() != 1)
 8002816:	bf00      	nop
 8002818:	f7ff f8fa 	bl	8001a10 <LL_RCC_PLL_IsReady>
 800281c:	4603      	mov	r3, r0
 800281e:	2b01      	cmp	r3, #1
 8002820:	d1fa      	bne.n	8002818 <SystemClock_Config+0x38>
  {

  }
  LL_RCC_SetAHBPrescaler(LL_RCC_SYSCLK_DIV_1);
 8002822:	2000      	movs	r0, #0
 8002824:	f7ff f896 	bl	8001954 <LL_RCC_SetAHBPrescaler>
  LL_RCC_SetAPB1Prescaler(LL_RCC_APB1_DIV_2);
 8002828:	f44f 6080 	mov.w	r0, #1024	; 0x400
 800282c:	f7ff f8a6 	bl	800197c <LL_RCC_SetAPB1Prescaler>
  LL_RCC_SetAPB2Prescaler(LL_RCC_APB2_DIV_1);
 8002830:	2000      	movs	r0, #0
 8002832:	f7ff f8b7 	bl	80019a4 <LL_RCC_SetAPB2Prescaler>
  LL_RCC_SetSysClkSource(LL_RCC_SYS_CLKSOURCE_PLL);
 8002836:	2002      	movs	r0, #2
 8002838:	f7ff f86c 	bl	8001914 <LL_RCC_SetSysClkSource>

   /* Wait till System clock is ready */
  while(LL_RCC_GetSysClkSource() != LL_RCC_SYS_CLKSOURCE_STATUS_PLL)
 800283c:	bf00      	nop
 800283e:	f7ff f87d 	bl	800193c <LL_RCC_GetSysClkSource>
 8002842:	4603      	mov	r3, r0
 8002844:	2b08      	cmp	r3, #8
 8002846:	d1fa      	bne.n	800283e <SystemClock_Config+0x5e>
  {

  }
  LL_Init1msTick(72000000);
 8002848:	4805      	ldr	r0, [pc, #20]	; (8002860 <SystemClock_Config+0x80>)
 800284a:	f002 fe33 	bl	80054b4 <LL_Init1msTick>
  LL_SetSystemCoreClock(72000000);
 800284e:	4804      	ldr	r0, [pc, #16]	; (8002860 <SystemClock_Config+0x80>)
 8002850:	f002 fe3e 	bl	80054d0 <LL_SetSystemCoreClock>
  LL_RCC_SetADCClockSource(LL_RCC_ADC_CLKSRC_PCLK2_DIV_6);
 8002854:	f44f 4000 	mov.w	r0, #32768	; 0x8000
 8002858:	f7ff f8b8 	bl	80019cc <LL_RCC_SetADCClockSource>
}
 800285c:	bf00      	nop
 800285e:	bd80      	pop	{r7, pc}
 8002860:	044aa200 	.word	0x044aa200

08002864 <MX_ADC1_Init>:
  * @brief ADC1 Initialization Function
  * @param None
  * @retval None
  */
static void MX_ADC1_Init(void)
{
 8002864:	b580      	push	{r7, lr}
 8002866:	b08e      	sub	sp, #56	; 0x38
 8002868:	af00      	add	r7, sp, #0

  /* USER CODE BEGIN ADC1_Init 0 */

  /* USER CODE END ADC1_Init 0 */

  LL_ADC_InitTypeDef ADC_InitStruct = {0};
 800286a:	f107 0330 	add.w	r3, r7, #48	; 0x30
 800286e:	2200      	movs	r2, #0
 8002870:	601a      	str	r2, [r3, #0]
 8002872:	605a      	str	r2, [r3, #4]
  LL_ADC_CommonInitTypeDef ADC_CommonInitStruct = {0};
 8002874:	2300      	movs	r3, #0
 8002876:	62fb      	str	r3, [r7, #44]	; 0x2c
  LL_ADC_REG_InitTypeDef ADC_REG_InitStruct = {0};
 8002878:	f107 0318 	add.w	r3, r7, #24
 800287c:	2200      	movs	r2, #0
 800287e:	601a      	str	r2, [r3, #0]
 8002880:	605a      	str	r2, [r3, #4]
 8002882:	609a      	str	r2, [r3, #8]
 8002884:	60da      	str	r2, [r3, #12]
 8002886:	611a      	str	r2, [r3, #16]

  LL_GPIO_InitTypeDef GPIO_InitStruct = {0};
 8002888:	1d3b      	adds	r3, r7, #4
 800288a:	2200      	movs	r2, #0
 800288c:	601a      	str	r2, [r3, #0]
 800288e:	605a      	str	r2, [r3, #4]
 8002890:	609a      	str	r2, [r3, #8]
 8002892:	60da      	str	r2, [r3, #12]
 8002894:	611a      	str	r2, [r3, #16]

  /* Peripheral clock enable */
  LL_APB2_GRP1_EnableClock(LL_APB2_GRP1_PERIPH_ADC1);
 8002896:	f44f 7000 	mov.w	r0, #512	; 0x200
 800289a:	f7ff f913 	bl	8001ac4 <LL_APB2_GRP1_EnableClock>

  LL_APB2_GRP1_EnableClock(LL_APB2_GRP1_PERIPH_GPIOA);
 800289e:	2004      	movs	r0, #4
 80028a0:	f7ff f910 	bl	8001ac4 <LL_APB2_GRP1_EnableClock>
  PA4   ------> ADC1_IN4
  PA5   ------> ADC1_IN5
  PA6   ------> ADC1_IN6
  PA7   ------> ADC1_IN7
  */
  GPIO_InitStruct.Pin = LL_GPIO_PIN_0|LL_GPIO_PIN_1|LL_GPIO_PIN_2|LL_GPIO_PIN_3
 80028a4:	f64f 73ff 	movw	r3, #65535	; 0xffff
 80028a8:	607b      	str	r3, [r7, #4]
                          |LL_GPIO_PIN_4|LL_GPIO_PIN_5|LL_GPIO_PIN_6|LL_GPIO_PIN_7;
  GPIO_InitStruct.Mode = LL_GPIO_MODE_ANALOG;
 80028aa:	2300      	movs	r3, #0
 80028ac:	60bb      	str	r3, [r7, #8]
  LL_GPIO_Init(GPIOA, &GPIO_InitStruct);
 80028ae:	1d3b      	adds	r3, r7, #4
 80028b0:	4619      	mov	r1, r3
 80028b2:	486b      	ldr	r0, [pc, #428]	; (8002a60 <MX_ADC1_Init+0x1fc>)
 80028b4:	f001 ff90 	bl	80047d8 <LL_GPIO_Init>

  /* ADC1 DMA Init */

  /* ADC1 Init */
  LL_DMA_SetDataTransferDirection(DMA1, LL_DMA_CHANNEL_1, LL_DMA_DIRECTION_PERIPH_TO_MEMORY);
 80028b8:	2200      	movs	r2, #0
 80028ba:	2101      	movs	r1, #1
 80028bc:	4869      	ldr	r0, [pc, #420]	; (8002a64 <MX_ADC1_Init+0x200>)
 80028be:	f7fe fe79 	bl	80015b4 <LL_DMA_SetDataTransferDirection>

  LL_DMA_SetChannelPriorityLevel(DMA1, LL_DMA_CHANNEL_1, LL_DMA_PRIORITY_HIGH);
 80028c2:	f44f 5200 	mov.w	r2, #8192	; 0x2000
 80028c6:	2101      	movs	r1, #1
 80028c8:	4866      	ldr	r0, [pc, #408]	; (8002a64 <MX_ADC1_Init+0x200>)
 80028ca:	f7fe ff41 	bl	8001750 <LL_DMA_SetChannelPriorityLevel>

  LL_DMA_SetMode(DMA1, LL_DMA_CHANNEL_1, LL_DMA_MODE_CIRCULAR);
 80028ce:	2220      	movs	r2, #32
 80028d0:	2101      	movs	r1, #1
 80028d2:	4864      	ldr	r0, [pc, #400]	; (8002a64 <MX_ADC1_Init+0x200>)
 80028d4:	f7fe fe92 	bl	80015fc <LL_DMA_SetMode>

  LL_DMA_SetPeriphIncMode(DMA1, LL_DMA_CHANNEL_1, LL_DMA_PERIPH_NOINCREMENT);
 80028d8:	2200      	movs	r2, #0
 80028da:	2101      	movs	r1, #1
 80028dc:	4861      	ldr	r0, [pc, #388]	; (8002a64 <MX_ADC1_Init+0x200>)
 80028de:	f7fe feaf 	bl	8001640 <LL_DMA_SetPeriphIncMode>

  LL_DMA_SetMemoryIncMode(DMA1, LL_DMA_CHANNEL_1, LL_DMA_MEMORY_INCREMENT);
 80028e2:	2280      	movs	r2, #128	; 0x80
 80028e4:	2101      	movs	r1, #1
 80028e6:	485f      	ldr	r0, [pc, #380]	; (8002a64 <MX_ADC1_Init+0x200>)
 80028e8:	f7fe fecc 	bl	8001684 <LL_DMA_SetMemoryIncMode>

  LL_DMA_SetPeriphSize(DMA1, LL_DMA_CHANNEL_1, LL_DMA_PDATAALIGN_HALFWORD);
 80028ec:	f44f 7280 	mov.w	r2, #256	; 0x100
 80028f0:	2101      	movs	r1, #1
 80028f2:	485c      	ldr	r0, [pc, #368]	; (8002a64 <MX_ADC1_Init+0x200>)
 80028f4:	f7fe fee8 	bl	80016c8 <LL_DMA_SetPeriphSize>

  LL_DMA_SetMemorySize(DMA1, LL_DMA_CHANNEL_1, LL_DMA_MDATAALIGN_HALFWORD);
 80028f8:	f44f 6280 	mov.w	r2, #1024	; 0x400
 80028fc:	2101      	movs	r1, #1
 80028fe:	4859      	ldr	r0, [pc, #356]	; (8002a64 <MX_ADC1_Init+0x200>)
 8002900:	f7fe ff04 	bl	800170c <LL_DMA_SetMemorySize>

  /* USER CODE BEGIN ADC1_Init 1 */
  LL_DMA_SetDataLength(DMA1, LL_DMA_CHANNEL_1, 8);
 8002904:	2208      	movs	r2, #8
 8002906:	2101      	movs	r1, #1
 8002908:	4856      	ldr	r0, [pc, #344]	; (8002a64 <MX_ADC1_Init+0x200>)
 800290a:	f7fe ff43 	bl	8001794 <LL_DMA_SetDataLength>
  LL_DMA_SetMemoryAddress(DMA1, LL_DMA_CHANNEL_1, (uint32_t)&Sensor_ADC_Value);
 800290e:	4b56      	ldr	r3, [pc, #344]	; (8002a68 <MX_ADC1_Init+0x204>)
 8002910:	461a      	mov	r2, r3
 8002912:	2101      	movs	r1, #1
 8002914:	4853      	ldr	r0, [pc, #332]	; (8002a64 <MX_ADC1_Init+0x200>)
 8002916:	f7fe ff5f 	bl	80017d8 <LL_DMA_SetMemoryAddress>
  LL_DMA_SetPeriphAddress(DMA1, LL_DMA_CHANNEL_1, ADC1_DR_Address);
 800291a:	4a54      	ldr	r2, [pc, #336]	; (8002a6c <MX_ADC1_Init+0x208>)
 800291c:	2101      	movs	r1, #1
 800291e:	4851      	ldr	r0, [pc, #324]	; (8002a64 <MX_ADC1_Init+0x200>)
 8002920:	f7fe ff72 	bl	8001808 <LL_DMA_SetPeriphAddress>
  LL_DMA_EnableChannel(DMA1, LL_DMA_CHANNEL_1);
 8002924:	2101      	movs	r1, #1
 8002926:	484f      	ldr	r0, [pc, #316]	; (8002a64 <MX_ADC1_Init+0x200>)
 8002928:	f7fe fe26 	bl	8001578 <LL_DMA_EnableChannel>
  /* USER CODE END ADC1_Init 1 */
  /** Common config
  */
  ADC_InitStruct.DataAlignment = LL_ADC_DATA_ALIGN_RIGHT;
 800292c:	2300      	movs	r3, #0
 800292e:	633b      	str	r3, [r7, #48]	; 0x30
  ADC_InitStruct.SequencersScanMode = LL_ADC_SEQ_SCAN_ENABLE;
 8002930:	f44f 7380 	mov.w	r3, #256	; 0x100
 8002934:	637b      	str	r3, [r7, #52]	; 0x34
  LL_ADC_Init(ADC1, &ADC_InitStruct);
 8002936:	f107 0330 	add.w	r3, r7, #48	; 0x30
 800293a:	4619      	mov	r1, r3
 800293c:	484c      	ldr	r0, [pc, #304]	; (8002a70 <MX_ADC1_Init+0x20c>)
 800293e:	f001 fd19 	bl	8004374 <LL_ADC_Init>
  ADC_CommonInitStruct.Multimode = LL_ADC_MULTI_INDEPENDENT;
 8002942:	2300      	movs	r3, #0
 8002944:	62fb      	str	r3, [r7, #44]	; 0x2c
  LL_ADC_CommonInit(__LL_ADC_COMMON_INSTANCE(ADC1), &ADC_CommonInitStruct);
 8002946:	f107 032c 	add.w	r3, r7, #44	; 0x2c
 800294a:	4619      	mov	r1, r3
 800294c:	4848      	ldr	r0, [pc, #288]	; (8002a70 <MX_ADC1_Init+0x20c>)
 800294e:	f001 fcdf 	bl	8004310 <LL_ADC_CommonInit>
  ADC_REG_InitStruct.TriggerSource = LL_ADC_REG_TRIG_SOFTWARE;
 8002952:	f44f 2360 	mov.w	r3, #917504	; 0xe0000
 8002956:	61bb      	str	r3, [r7, #24]
  ADC_REG_InitStruct.SequencerLength = LL_ADC_REG_SEQ_SCAN_ENABLE_8RANKS;
 8002958:	f44f 03e0 	mov.w	r3, #7340032	; 0x700000
 800295c:	61fb      	str	r3, [r7, #28]
  ADC_REG_InitStruct.SequencerDiscont = LL_ADC_REG_SEQ_DISCONT_DISABLE;
 800295e:	2300      	movs	r3, #0
 8002960:	623b      	str	r3, [r7, #32]
  ADC_REG_InitStruct.ContinuousMode = LL_ADC_REG_CONV_CONTINUOUS;
 8002962:	2302      	movs	r3, #2
 8002964:	627b      	str	r3, [r7, #36]	; 0x24
  ADC_REG_InitStruct.DMATransfer = LL_ADC_REG_DMA_TRANSFER_UNLIMITED;
 8002966:	f44f 7380 	mov.w	r3, #256	; 0x100
 800296a:	62bb      	str	r3, [r7, #40]	; 0x28
  LL_ADC_REG_Init(ADC1, &ADC_REG_InitStruct);
 800296c:	f107 0318 	add.w	r3, r7, #24
 8002970:	4619      	mov	r1, r3
 8002972:	483f      	ldr	r0, [pc, #252]	; (8002a70 <MX_ADC1_Init+0x20c>)
 8002974:	f001 fd25 	bl	80043c2 <LL_ADC_REG_Init>
  /** Configure Regular Channel
  */
  LL_ADC_REG_SetSequencerRanks(ADC1, LL_ADC_REG_RANK_1, LL_ADC_CHANNEL_0);
 8002978:	f04f 7200 	mov.w	r2, #33554432	; 0x2000000
 800297c:	f44f 7100 	mov.w	r1, #512	; 0x200
 8002980:	483b      	ldr	r0, [pc, #236]	; (8002a70 <MX_ADC1_Init+0x20c>)
 8002982:	f7fe fd2b 	bl	80013dc <LL_ADC_REG_SetSequencerRanks>
  LL_ADC_SetChannelSamplingTime(ADC1, LL_ADC_CHANNEL_0, LL_ADC_SAMPLINGTIME_7CYCLES_5);
 8002986:	2201      	movs	r2, #1
 8002988:	f04f 7100 	mov.w	r1, #33554432	; 0x2000000
 800298c:	4838      	ldr	r0, [pc, #224]	; (8002a70 <MX_ADC1_Init+0x20c>)
 800298e:	f7fe fd6a 	bl	8001466 <LL_ADC_SetChannelSamplingTime>
  /** Configure Regular Channel
  */
  LL_ADC_REG_SetSequencerRanks(ADC1, LL_ADC_REG_RANK_2, LL_ADC_CHANNEL_1);
 8002992:	4a38      	ldr	r2, [pc, #224]	; (8002a74 <MX_ADC1_Init+0x210>)
 8002994:	f240 2105 	movw	r1, #517	; 0x205
 8002998:	4835      	ldr	r0, [pc, #212]	; (8002a70 <MX_ADC1_Init+0x20c>)
 800299a:	f7fe fd1f 	bl	80013dc <LL_ADC_REG_SetSequencerRanks>
  LL_ADC_SetChannelSamplingTime(ADC1, LL_ADC_CHANNEL_1, LL_ADC_SAMPLINGTIME_7CYCLES_5);
 800299e:	2201      	movs	r2, #1
 80029a0:	4934      	ldr	r1, [pc, #208]	; (8002a74 <MX_ADC1_Init+0x210>)
 80029a2:	4833      	ldr	r0, [pc, #204]	; (8002a70 <MX_ADC1_Init+0x20c>)
 80029a4:	f7fe fd5f 	bl	8001466 <LL_ADC_SetChannelSamplingTime>
  /** Configure Regular Channel
  */
  LL_ADC_REG_SetSequencerRanks(ADC1, LL_ADC_REG_RANK_3, LL_ADC_CHANNEL_2);
 80029a8:	4a33      	ldr	r2, [pc, #204]	; (8002a78 <MX_ADC1_Init+0x214>)
 80029aa:	f240 210a 	movw	r1, #522	; 0x20a
 80029ae:	4830      	ldr	r0, [pc, #192]	; (8002a70 <MX_ADC1_Init+0x20c>)
 80029b0:	f7fe fd14 	bl	80013dc <LL_ADC_REG_SetSequencerRanks>
  LL_ADC_SetChannelSamplingTime(ADC1, LL_ADC_CHANNEL_2, LL_ADC_SAMPLINGTIME_7CYCLES_5);
 80029b4:	2201      	movs	r2, #1
 80029b6:	4930      	ldr	r1, [pc, #192]	; (8002a78 <MX_ADC1_Init+0x214>)
 80029b8:	482d      	ldr	r0, [pc, #180]	; (8002a70 <MX_ADC1_Init+0x20c>)
 80029ba:	f7fe fd54 	bl	8001466 <LL_ADC_SetChannelSamplingTime>
  /** Configure Regular Channel
  */
  LL_ADC_REG_SetSequencerRanks(ADC1, LL_ADC_REG_RANK_4, LL_ADC_CHANNEL_3);
 80029be:	4a2f      	ldr	r2, [pc, #188]	; (8002a7c <MX_ADC1_Init+0x218>)
 80029c0:	f240 210f 	movw	r1, #527	; 0x20f
 80029c4:	482a      	ldr	r0, [pc, #168]	; (8002a70 <MX_ADC1_Init+0x20c>)
 80029c6:	f7fe fd09 	bl	80013dc <LL_ADC_REG_SetSequencerRanks>
  LL_ADC_SetChannelSamplingTime(ADC1, LL_ADC_CHANNEL_3, LL_ADC_SAMPLINGTIME_7CYCLES_5);
 80029ca:	2201      	movs	r2, #1
 80029cc:	492b      	ldr	r1, [pc, #172]	; (8002a7c <MX_ADC1_Init+0x218>)
 80029ce:	4828      	ldr	r0, [pc, #160]	; (8002a70 <MX_ADC1_Init+0x20c>)
 80029d0:	f7fe fd49 	bl	8001466 <LL_ADC_SetChannelSamplingTime>
  /** Configure Regular Channel
  */
  LL_ADC_REG_SetSequencerRanks(ADC1, LL_ADC_REG_RANK_5, LL_ADC_CHANNEL_4);
 80029d4:	4a2a      	ldr	r2, [pc, #168]	; (8002a80 <MX_ADC1_Init+0x21c>)
 80029d6:	f44f 7105 	mov.w	r1, #532	; 0x214
 80029da:	4825      	ldr	r0, [pc, #148]	; (8002a70 <MX_ADC1_Init+0x20c>)
 80029dc:	f7fe fcfe 	bl	80013dc <LL_ADC_REG_SetSequencerRanks>
  LL_ADC_SetChannelSamplingTime(ADC1, LL_ADC_CHANNEL_4, LL_ADC_SAMPLINGTIME_7CYCLES_5);
 80029e0:	2201      	movs	r2, #1
 80029e2:	4927      	ldr	r1, [pc, #156]	; (8002a80 <MX_ADC1_Init+0x21c>)
 80029e4:	4822      	ldr	r0, [pc, #136]	; (8002a70 <MX_ADC1_Init+0x20c>)
 80029e6:	f7fe fd3e 	bl	8001466 <LL_ADC_SetChannelSamplingTime>
  /** Configure Regular Channel
  */
  LL_ADC_REG_SetSequencerRanks(ADC1, LL_ADC_REG_RANK_6, LL_ADC_CHANNEL_5);
 80029ea:	4a26      	ldr	r2, [pc, #152]	; (8002a84 <MX_ADC1_Init+0x220>)
 80029ec:	f240 2119 	movw	r1, #537	; 0x219
 80029f0:	481f      	ldr	r0, [pc, #124]	; (8002a70 <MX_ADC1_Init+0x20c>)
 80029f2:	f7fe fcf3 	bl	80013dc <LL_ADC_REG_SetSequencerRanks>
  LL_ADC_SetChannelSamplingTime(ADC1, LL_ADC_CHANNEL_5, LL_ADC_SAMPLINGTIME_7CYCLES_5);
 80029f6:	2201      	movs	r2, #1
 80029f8:	4922      	ldr	r1, [pc, #136]	; (8002a84 <MX_ADC1_Init+0x220>)
 80029fa:	481d      	ldr	r0, [pc, #116]	; (8002a70 <MX_ADC1_Init+0x20c>)
 80029fc:	f7fe fd33 	bl	8001466 <LL_ADC_SetChannelSamplingTime>
  /** Configure Regular Channel
  */
  LL_ADC_REG_SetSequencerRanks(ADC1, LL_ADC_REG_RANK_7, LL_ADC_CHANNEL_6);
 8002a00:	4a21      	ldr	r2, [pc, #132]	; (8002a88 <MX_ADC1_Init+0x224>)
 8002a02:	f44f 7180 	mov.w	r1, #256	; 0x100
 8002a06:	481a      	ldr	r0, [pc, #104]	; (8002a70 <MX_ADC1_Init+0x20c>)
 8002a08:	f7fe fce8 	bl	80013dc <LL_ADC_REG_SetSequencerRanks>
  LL_ADC_SetChannelSamplingTime(ADC1, LL_ADC_CHANNEL_6, LL_ADC_SAMPLINGTIME_7CYCLES_5);
 8002a0c:	2201      	movs	r2, #1
 8002a0e:	491e      	ldr	r1, [pc, #120]	; (8002a88 <MX_ADC1_Init+0x224>)
 8002a10:	4817      	ldr	r0, [pc, #92]	; (8002a70 <MX_ADC1_Init+0x20c>)
 8002a12:	f7fe fd28 	bl	8001466 <LL_ADC_SetChannelSamplingTime>
  /** Configure Regular Channel
  */
  LL_ADC_REG_SetSequencerRanks(ADC1, LL_ADC_REG_RANK_8, LL_ADC_CHANNEL_7);
 8002a16:	4a1d      	ldr	r2, [pc, #116]	; (8002a8c <MX_ADC1_Init+0x228>)
 8002a18:	f240 1105 	movw	r1, #261	; 0x105
 8002a1c:	4814      	ldr	r0, [pc, #80]	; (8002a70 <MX_ADC1_Init+0x20c>)
 8002a1e:	f7fe fcdd 	bl	80013dc <LL_ADC_REG_SetSequencerRanks>
  LL_ADC_SetChannelSamplingTime(ADC1, LL_ADC_CHANNEL_7, LL_ADC_SAMPLINGTIME_7CYCLES_5);
 8002a22:	2201      	movs	r2, #1
 8002a24:	4919      	ldr	r1, [pc, #100]	; (8002a8c <MX_ADC1_Init+0x228>)
 8002a26:	4812      	ldr	r0, [pc, #72]	; (8002a70 <MX_ADC1_Init+0x20c>)
 8002a28:	f7fe fd1d 	bl	8001466 <LL_ADC_SetChannelSamplingTime>
  /* USER CODE BEGIN ADC1_Init 2 */

  LL_ADC_REG_SetDMATransfer(ADC1, LL_ADC_REG_DMA_TRANSFER_UNLIMITED);
 8002a2c:	f44f 7180 	mov.w	r1, #256	; 0x100
 8002a30:	480f      	ldr	r0, [pc, #60]	; (8002a70 <MX_ADC1_Init+0x20c>)
 8002a32:	f7fe fd06 	bl	8001442 <LL_ADC_REG_SetDMATransfer>
  /* Khoi dong bo ADC */
  LL_ADC_Enable(ADC1);
 8002a36:	480e      	ldr	r0, [pc, #56]	; (8002a70 <MX_ADC1_Init+0x20c>)
 8002a38:	f7fe fd5e 	bl	80014f8 <LL_ADC_Enable>
  LL_ADC_StartCalibration(ADC1);
 8002a3c:	480c      	ldr	r0, [pc, #48]	; (8002a70 <MX_ADC1_Init+0x20c>)
 8002a3e:	f7fe fd6a 	bl	8001516 <LL_ADC_StartCalibration>

  /* Cho trang thai cablib duoc bat *
  	 *
  	 */
  while (LL_ADC_IsCalibrationOnGoing(ADC1))
 8002a42:	bf00      	nop
 8002a44:	480a      	ldr	r0, [pc, #40]	; (8002a70 <MX_ADC1_Init+0x20c>)
 8002a46:	f7fe fd75 	bl	8001534 <LL_ADC_IsCalibrationOnGoing>
 8002a4a:	4603      	mov	r3, r0
 8002a4c:	2b00      	cmp	r3, #0
 8002a4e:	d1f9      	bne.n	8002a44 <MX_ADC1_Init+0x1e0>
    ;

  /* Bat dau chuyen doi ADC */
  LL_ADC_REG_StartConversionSWStart(ADC1);
 8002a50:	4807      	ldr	r0, [pc, #28]	; (8002a70 <MX_ADC1_Init+0x20c>)
 8002a52:	f7fe fd81 	bl	8001558 <LL_ADC_REG_StartConversionSWStart>
  /* USER CODE END ADC1_Init 2 */

}
 8002a56:	bf00      	nop
 8002a58:	3738      	adds	r7, #56	; 0x38
 8002a5a:	46bd      	mov	sp, r7
 8002a5c:	bd80      	pop	{r7, pc}
 8002a5e:	bf00      	nop
 8002a60:	40010800 	.word	0x40010800
 8002a64:	40020000 	.word	0x40020000
 8002a68:	20000220 	.word	0x20000220
 8002a6c:	4001244c 	.word	0x4001244c
 8002a70:	40012400 	.word	0x40012400
 8002a74:	02300001 	.word	0x02300001
 8002a78:	02600002 	.word	0x02600002
 8002a7c:	02900003 	.word	0x02900003
 8002a80:	02c00004 	.word	0x02c00004
 8002a84:	02f00005 	.word	0x02f00005
 8002a88:	03200006 	.word	0x03200006
 8002a8c:	03500007 	.word	0x03500007

08002a90 <MX_I2C1_Init>:
  * @brief I2C1 Initialization Function
  * @param None
  * @retval None
  */
static void MX_I2C1_Init(void)
{
 8002a90:	b580      	push	{r7, lr}
 8002a92:	b08c      	sub	sp, #48	; 0x30
 8002a94:	af00      	add	r7, sp, #0

  /* USER CODE BEGIN I2C1_Init 0 */

  /* USER CODE END I2C1_Init 0 */

  LL_I2C_InitTypeDef I2C_InitStruct = {0};
 8002a96:	f107 0318 	add.w	r3, r7, #24
 8002a9a:	2200      	movs	r2, #0
 8002a9c:	601a      	str	r2, [r3, #0]
 8002a9e:	605a      	str	r2, [r3, #4]
 8002aa0:	609a      	str	r2, [r3, #8]
 8002aa2:	60da      	str	r2, [r3, #12]
 8002aa4:	611a      	str	r2, [r3, #16]
 8002aa6:	615a      	str	r2, [r3, #20]

  LL_GPIO_InitTypeDef GPIO_InitStruct = {0};
 8002aa8:	1d3b      	adds	r3, r7, #4
 8002aaa:	2200      	movs	r2, #0
 8002aac:	601a      	str	r2, [r3, #0]
 8002aae:	605a      	str	r2, [r3, #4]
 8002ab0:	609a      	str	r2, [r3, #8]
 8002ab2:	60da      	str	r2, [r3, #12]
 8002ab4:	611a      	str	r2, [r3, #16]

  LL_APB2_GRP1_EnableClock(LL_APB2_GRP1_PERIPH_GPIOB);
 8002ab6:	2008      	movs	r0, #8
 8002ab8:	f7ff f804 	bl	8001ac4 <LL_APB2_GRP1_EnableClock>
  /**I2C1 GPIO Configuration
  PB8   ------> I2C1_SCL
  PB9   ------> I2C1_SDA
  */
  GPIO_InitStruct.Pin = LL_GPIO_PIN_8|LL_GPIO_PIN_9;
 8002abc:	4b1d      	ldr	r3, [pc, #116]	; (8002b34 <MX_I2C1_Init+0xa4>)
 8002abe:	607b      	str	r3, [r7, #4]
  GPIO_InitStruct.Mode = LL_GPIO_MODE_ALTERNATE;
 8002ac0:	2309      	movs	r3, #9
 8002ac2:	60bb      	str	r3, [r7, #8]
  GPIO_InitStruct.Speed = LL_GPIO_SPEED_FREQ_HIGH;
 8002ac4:	2303      	movs	r3, #3
 8002ac6:	60fb      	str	r3, [r7, #12]
  GPIO_InitStruct.OutputType = LL_GPIO_OUTPUT_OPENDRAIN;
 8002ac8:	2304      	movs	r3, #4
 8002aca:	613b      	str	r3, [r7, #16]
  LL_GPIO_Init(GPIOB, &GPIO_InitStruct);
 8002acc:	1d3b      	adds	r3, r7, #4
 8002ace:	4619      	mov	r1, r3
 8002ad0:	4819      	ldr	r0, [pc, #100]	; (8002b38 <MX_I2C1_Init+0xa8>)
 8002ad2:	f001 fe81 	bl	80047d8 <LL_GPIO_Init>

  LL_GPIO_AF_EnableRemap_I2C1();
 8002ad6:	f7ff fb7d 	bl	80021d4 <LL_GPIO_AF_EnableRemap_I2C1>

  /* Peripheral clock enable */
  LL_APB1_GRP1_EnableClock(LL_APB1_GRP1_PERIPH_I2C1);
 8002ada:	f44f 1000 	mov.w	r0, #2097152	; 0x200000
 8002ade:	f7fe ffd9 	bl	8001a94 <LL_APB1_GRP1_EnableClock>
  /* USER CODE BEGIN I2C1_Init 1 */

  /* USER CODE END I2C1_Init 1 */
  /** I2C Initialization
  */
  LL_I2C_DisableOwnAddress2(I2C1);
 8002ae2:	4816      	ldr	r0, [pc, #88]	; (8002b3c <MX_I2C1_Init+0xac>)
 8002ae4:	f7fe fee7 	bl	80018b6 <LL_I2C_DisableOwnAddress2>
  LL_I2C_DisableGeneralCall(I2C1);
 8002ae8:	4814      	ldr	r0, [pc, #80]	; (8002b3c <MX_I2C1_Init+0xac>)
 8002aea:	f7fe fec3 	bl	8001874 <LL_I2C_DisableGeneralCall>
  LL_I2C_EnableClockStretching(I2C1);
 8002aee:	4813      	ldr	r0, [pc, #76]	; (8002b3c <MX_I2C1_Init+0xac>)
 8002af0:	f7fe feb1 	bl	8001856 <LL_I2C_EnableClockStretching>
  I2C_InitStruct.PeripheralMode = LL_I2C_MODE_I2C;
 8002af4:	2300      	movs	r3, #0
 8002af6:	61bb      	str	r3, [r7, #24]
  I2C_InitStruct.ClockSpeed = 100000;
 8002af8:	4b11      	ldr	r3, [pc, #68]	; (8002b40 <MX_I2C1_Init+0xb0>)
 8002afa:	61fb      	str	r3, [r7, #28]
  I2C_InitStruct.DutyCycle = LL_I2C_DUTYCYCLE_2;
 8002afc:	2300      	movs	r3, #0
 8002afe:	623b      	str	r3, [r7, #32]
  I2C_InitStruct.OwnAddress1 = 0;
 8002b00:	2300      	movs	r3, #0
 8002b02:	627b      	str	r3, [r7, #36]	; 0x24
  I2C_InitStruct.TypeAcknowledge = LL_I2C_ACK;
 8002b04:	f44f 6380 	mov.w	r3, #1024	; 0x400
 8002b08:	62bb      	str	r3, [r7, #40]	; 0x28
  I2C_InitStruct.OwnAddrSize = LL_I2C_OWNADDRESS1_7BIT;
 8002b0a:	f44f 4380 	mov.w	r3, #16384	; 0x4000
 8002b0e:	62fb      	str	r3, [r7, #44]	; 0x2c
  LL_I2C_Init(I2C1, &I2C_InitStruct);
 8002b10:	f107 0318 	add.w	r3, r7, #24
 8002b14:	4619      	mov	r1, r3
 8002b16:	4809      	ldr	r0, [pc, #36]	; (8002b3c <MX_I2C1_Init+0xac>)
 8002b18:	f001 ffaa 	bl	8004a70 <LL_I2C_Init>
  LL_I2C_SetOwnAddress2(I2C1, 0);
 8002b1c:	2100      	movs	r1, #0
 8002b1e:	4807      	ldr	r0, [pc, #28]	; (8002b3c <MX_I2C1_Init+0xac>)
 8002b20:	f7fe feb7 	bl	8001892 <LL_I2C_SetOwnAddress2>
  /* USER CODE BEGIN I2C1_Init 2 */
  LL_I2C_Enable(I2C1);
 8002b24:	4805      	ldr	r0, [pc, #20]	; (8002b3c <MX_I2C1_Init+0xac>)
 8002b26:	f7fe fe87 	bl	8001838 <LL_I2C_Enable>

  /* USER CODE END I2C1_Init 2 */

}
 8002b2a:	bf00      	nop
 8002b2c:	3730      	adds	r7, #48	; 0x30
 8002b2e:	46bd      	mov	sp, r7
 8002b30:	bd80      	pop	{r7, pc}
 8002b32:	bf00      	nop
 8002b34:	04030003 	.word	0x04030003
 8002b38:	40010c00 	.word	0x40010c00
 8002b3c:	40005400 	.word	0x40005400
 8002b40:	000186a0 	.word	0x000186a0

08002b44 <MX_TIM1_Init>:
  * @brief TIM1 Initialization Function
  * @param None
  * @retval None
  */
static void MX_TIM1_Init(void)
{
 8002b44:	b580      	push	{r7, lr}
 8002b46:	b098      	sub	sp, #96	; 0x60
 8002b48:	af00      	add	r7, sp, #0

  /* USER CODE BEGIN TIM1_Init 0 */

  /* USER CODE END TIM1_Init 0 */

  LL_TIM_InitTypeDef TIM_InitStruct = {0};
 8002b4a:	f107 034c 	add.w	r3, r7, #76	; 0x4c
 8002b4e:	2200      	movs	r2, #0
 8002b50:	601a      	str	r2, [r3, #0]
 8002b52:	605a      	str	r2, [r3, #4]
 8002b54:	609a      	str	r2, [r3, #8]
 8002b56:	60da      	str	r2, [r3, #12]
 8002b58:	611a      	str	r2, [r3, #16]
  LL_TIM_OC_InitTypeDef TIM_OC_InitStruct = {0};
 8002b5a:	f107 032c 	add.w	r3, r7, #44	; 0x2c
 8002b5e:	2220      	movs	r2, #32
 8002b60:	2100      	movs	r1, #0
 8002b62:	4618      	mov	r0, r3
 8002b64:	f002 fcec 	bl	8005540 <memset>
  LL_TIM_BDTR_InitTypeDef TIM_BDTRInitStruct = {0};
 8002b68:	f107 0314 	add.w	r3, r7, #20
 8002b6c:	2200      	movs	r2, #0
 8002b6e:	601a      	str	r2, [r3, #0]
 8002b70:	605a      	str	r2, [r3, #4]
 8002b72:	609a      	str	r2, [r3, #8]
 8002b74:	60da      	str	r2, [r3, #12]
 8002b76:	611a      	str	r2, [r3, #16]
 8002b78:	615a      	str	r2, [r3, #20]

  LL_GPIO_InitTypeDef GPIO_InitStruct = {0};
 8002b7a:	463b      	mov	r3, r7
 8002b7c:	2200      	movs	r2, #0
 8002b7e:	601a      	str	r2, [r3, #0]
 8002b80:	605a      	str	r2, [r3, #4]
 8002b82:	609a      	str	r2, [r3, #8]
 8002b84:	60da      	str	r2, [r3, #12]
 8002b86:	611a      	str	r2, [r3, #16]

  /* Peripheral clock enable */
  LL_APB2_GRP1_EnableClock(LL_APB2_GRP1_PERIPH_TIM1);
 8002b88:	f44f 6000 	mov.w	r0, #2048	; 0x800
 8002b8c:	f7fe ff9a 	bl	8001ac4 <LL_APB2_GRP1_EnableClock>

  /* USER CODE BEGIN TIM1_Init 1 */

  /* USER CODE END TIM1_Init 1 */
  TIM_InitStruct.Prescaler = 0;
 8002b90:	2300      	movs	r3, #0
 8002b92:	f8a7 304c 	strh.w	r3, [r7, #76]	; 0x4c
  TIM_InitStruct.CounterMode = LL_TIM_COUNTERMODE_UP;
 8002b96:	2300      	movs	r3, #0
 8002b98:	653b      	str	r3, [r7, #80]	; 0x50
  TIM_InitStruct.Autoreload = 7199;
 8002b9a:	f641 431f 	movw	r3, #7199	; 0x1c1f
 8002b9e:	657b      	str	r3, [r7, #84]	; 0x54
  TIM_InitStruct.ClockDivision = LL_TIM_CLOCKDIVISION_DIV1;
 8002ba0:	2300      	movs	r3, #0
 8002ba2:	65bb      	str	r3, [r7, #88]	; 0x58
  TIM_InitStruct.RepetitionCounter = 0;
 8002ba4:	2300      	movs	r3, #0
 8002ba6:	f887 305c 	strb.w	r3, [r7, #92]	; 0x5c
  LL_TIM_Init(TIM1, &TIM_InitStruct);
 8002baa:	f107 034c 	add.w	r3, r7, #76	; 0x4c
 8002bae:	4619      	mov	r1, r3
 8002bb0:	483c      	ldr	r0, [pc, #240]	; (8002ca4 <MX_TIM1_Init+0x160>)
 8002bb2:	f002 f905 	bl	8004dc0 <LL_TIM_Init>
  LL_TIM_DisableARRPreload(TIM1);
 8002bb6:	483b      	ldr	r0, [pc, #236]	; (8002ca4 <MX_TIM1_Init+0x160>)
 8002bb8:	f7fe ffcb 	bl	8001b52 <LL_TIM_DisableARRPreload>
  LL_TIM_OC_EnablePreload(TIM1, LL_TIM_CHANNEL_CH1);
 8002bbc:	2101      	movs	r1, #1
 8002bbe:	4839      	ldr	r0, [pc, #228]	; (8002ca4 <MX_TIM1_Init+0x160>)
 8002bc0:	f7ff f826 	bl	8001c10 <LL_TIM_OC_EnablePreload>
  TIM_OC_InitStruct.OCMode = LL_TIM_OCMODE_PWM1;
 8002bc4:	2360      	movs	r3, #96	; 0x60
 8002bc6:	62fb      	str	r3, [r7, #44]	; 0x2c
  TIM_OC_InitStruct.OCState = LL_TIM_OCSTATE_DISABLE;
 8002bc8:	2300      	movs	r3, #0
 8002bca:	633b      	str	r3, [r7, #48]	; 0x30
  TIM_OC_InitStruct.OCNState = LL_TIM_OCSTATE_DISABLE;
 8002bcc:	2300      	movs	r3, #0
 8002bce:	637b      	str	r3, [r7, #52]	; 0x34
  TIM_OC_InitStruct.CompareValue = 0;
 8002bd0:	2300      	movs	r3, #0
 8002bd2:	63bb      	str	r3, [r7, #56]	; 0x38
  TIM_OC_InitStruct.OCPolarity = LL_TIM_OCPOLARITY_HIGH;
 8002bd4:	2300      	movs	r3, #0
 8002bd6:	63fb      	str	r3, [r7, #60]	; 0x3c
  TIM_OC_InitStruct.OCNPolarity = LL_TIM_OCPOLARITY_HIGH;
 8002bd8:	2300      	movs	r3, #0
 8002bda:	643b      	str	r3, [r7, #64]	; 0x40
  TIM_OC_InitStruct.OCIdleState = LL_TIM_OCIDLESTATE_LOW;
 8002bdc:	2300      	movs	r3, #0
 8002bde:	647b      	str	r3, [r7, #68]	; 0x44
  TIM_OC_InitStruct.OCNIdleState = LL_TIM_OCIDLESTATE_LOW;
 8002be0:	2300      	movs	r3, #0
 8002be2:	64bb      	str	r3, [r7, #72]	; 0x48
  LL_TIM_OC_Init(TIM1, LL_TIM_CHANNEL_CH1, &TIM_OC_InitStruct);
 8002be4:	f107 032c 	add.w	r3, r7, #44	; 0x2c
 8002be8:	461a      	mov	r2, r3
 8002bea:	2101      	movs	r1, #1
 8002bec:	482d      	ldr	r0, [pc, #180]	; (8002ca4 <MX_TIM1_Init+0x160>)
 8002bee:	f002 f945 	bl	8004e7c <LL_TIM_OC_Init>
  LL_TIM_OC_DisableFast(TIM1, LL_TIM_CHANNEL_CH1);
 8002bf2:	2101      	movs	r1, #1
 8002bf4:	482b      	ldr	r0, [pc, #172]	; (8002ca4 <MX_TIM1_Init+0x160>)
 8002bf6:	f7fe ffc9 	bl	8001b8c <LL_TIM_OC_DisableFast>
  LL_TIM_OC_EnablePreload(TIM1, LL_TIM_CHANNEL_CH3);
 8002bfa:	f44f 7180 	mov.w	r1, #256	; 0x100
 8002bfe:	4829      	ldr	r0, [pc, #164]	; (8002ca4 <MX_TIM1_Init+0x160>)
 8002c00:	f7ff f806 	bl	8001c10 <LL_TIM_OC_EnablePreload>
  TIM_OC_InitStruct.OCState = LL_TIM_OCSTATE_DISABLE;
 8002c04:	2300      	movs	r3, #0
 8002c06:	633b      	str	r3, [r7, #48]	; 0x30
  TIM_OC_InitStruct.OCNState = LL_TIM_OCSTATE_DISABLE;
 8002c08:	2300      	movs	r3, #0
 8002c0a:	637b      	str	r3, [r7, #52]	; 0x34
  LL_TIM_OC_Init(TIM1, LL_TIM_CHANNEL_CH3, &TIM_OC_InitStruct);
 8002c0c:	f107 032c 	add.w	r3, r7, #44	; 0x2c
 8002c10:	461a      	mov	r2, r3
 8002c12:	f44f 7180 	mov.w	r1, #256	; 0x100
 8002c16:	4823      	ldr	r0, [pc, #140]	; (8002ca4 <MX_TIM1_Init+0x160>)
 8002c18:	f002 f930 	bl	8004e7c <LL_TIM_OC_Init>
  LL_TIM_OC_DisableFast(TIM1, LL_TIM_CHANNEL_CH3);
 8002c1c:	f44f 7180 	mov.w	r1, #256	; 0x100
 8002c20:	4820      	ldr	r0, [pc, #128]	; (8002ca4 <MX_TIM1_Init+0x160>)
 8002c22:	f7fe ffb3 	bl	8001b8c <LL_TIM_OC_DisableFast>
  LL_TIM_SetTriggerOutput(TIM1, LL_TIM_TRGO_RESET);
 8002c26:	2100      	movs	r1, #0
 8002c28:	481e      	ldr	r0, [pc, #120]	; (8002ca4 <MX_TIM1_Init+0x160>)
 8002c2a:	f7ff f9bb 	bl	8001fa4 <LL_TIM_SetTriggerOutput>
  LL_TIM_DisableMasterSlaveMode(TIM1);
 8002c2e:	481d      	ldr	r0, [pc, #116]	; (8002ca4 <MX_TIM1_Init+0x160>)
 8002c30:	f7ff f9ca 	bl	8001fc8 <LL_TIM_DisableMasterSlaveMode>
  TIM_BDTRInitStruct.OSSRState = LL_TIM_OSSR_DISABLE;
 8002c34:	2300      	movs	r3, #0
 8002c36:	617b      	str	r3, [r7, #20]
  TIM_BDTRInitStruct.OSSIState = LL_TIM_OSSI_DISABLE;
 8002c38:	2300      	movs	r3, #0
 8002c3a:	61bb      	str	r3, [r7, #24]
  TIM_BDTRInitStruct.LockLevel = LL_TIM_LOCKLEVEL_OFF;
 8002c3c:	2300      	movs	r3, #0
 8002c3e:	61fb      	str	r3, [r7, #28]
  TIM_BDTRInitStruct.DeadTime = 0;
 8002c40:	2300      	movs	r3, #0
 8002c42:	f887 3020 	strb.w	r3, [r7, #32]
  TIM_BDTRInitStruct.BreakState = LL_TIM_BREAK_DISABLE;
 8002c46:	2300      	movs	r3, #0
 8002c48:	847b      	strh	r3, [r7, #34]	; 0x22
  TIM_BDTRInitStruct.BreakPolarity = LL_TIM_BREAK_POLARITY_HIGH;
 8002c4a:	f44f 5300 	mov.w	r3, #8192	; 0x2000
 8002c4e:	627b      	str	r3, [r7, #36]	; 0x24
  TIM_BDTRInitStruct.AutomaticOutput = LL_TIM_AUTOMATICOUTPUT_DISABLE;
 8002c50:	2300      	movs	r3, #0
 8002c52:	62bb      	str	r3, [r7, #40]	; 0x28
  LL_TIM_BDTR_Init(TIM1, &TIM_BDTRInitStruct);
 8002c54:	f107 0314 	add.w	r3, r7, #20
 8002c58:	4619      	mov	r1, r3
 8002c5a:	4812      	ldr	r0, [pc, #72]	; (8002ca4 <MX_TIM1_Init+0x160>)
 8002c5c:	f002 f946 	bl	8004eec <LL_TIM_BDTR_Init>
  /* USER CODE BEGIN TIM1_Init 2 */
  LL_TIM_EnableIT_UPDATE(TIM1);
 8002c60:	4810      	ldr	r0, [pc, #64]	; (8002ca4 <MX_TIM1_Init+0x160>)
 8002c62:	f7ff f9f6 	bl	8002052 <LL_TIM_EnableIT_UPDATE>
  LL_TIM_SetCounter(TIM1, 0);
 8002c66:	2100      	movs	r1, #0
 8002c68:	480e      	ldr	r0, [pc, #56]	; (8002ca4 <MX_TIM1_Init+0x160>)
 8002c6a:	f7fe ff81 	bl	8001b70 <LL_TIM_SetCounter>
  LL_TIM_EnableAllOutputs(TIM1);
 8002c6e:	480d      	ldr	r0, [pc, #52]	; (8002ca4 <MX_TIM1_Init+0x160>)
 8002c70:	f7ff f9b9 	bl	8001fe6 <LL_TIM_EnableAllOutputs>
  LL_TIM_EnableCounter(TIM1);
 8002c74:	480b      	ldr	r0, [pc, #44]	; (8002ca4 <MX_TIM1_Init+0x160>)
 8002c76:	f7fe ff5d 	bl	8001b34 <LL_TIM_EnableCounter>

  /* USER CODE END TIM1_Init 2 */
  LL_APB2_GRP1_EnableClock(LL_APB2_GRP1_PERIPH_GPIOA);
 8002c7a:	2004      	movs	r0, #4
 8002c7c:	f7fe ff22 	bl	8001ac4 <LL_APB2_GRP1_EnableClock>
  /**TIM1 GPIO Configuration
  PA8   ------> TIM1_CH1
  PA10   ------> TIM1_CH3
  */
  GPIO_InitStruct.Pin = LL_GPIO_PIN_8|LL_GPIO_PIN_10;
 8002c80:	4b09      	ldr	r3, [pc, #36]	; (8002ca8 <MX_TIM1_Init+0x164>)
 8002c82:	603b      	str	r3, [r7, #0]
  GPIO_InitStruct.Mode = LL_GPIO_MODE_ALTERNATE;
 8002c84:	2309      	movs	r3, #9
 8002c86:	607b      	str	r3, [r7, #4]
  GPIO_InitStruct.Speed = LL_GPIO_SPEED_FREQ_HIGH;
 8002c88:	2303      	movs	r3, #3
 8002c8a:	60bb      	str	r3, [r7, #8]
  GPIO_InitStruct.OutputType = LL_GPIO_OUTPUT_PUSHPULL;
 8002c8c:	2300      	movs	r3, #0
 8002c8e:	60fb      	str	r3, [r7, #12]
  LL_GPIO_Init(GPIOA, &GPIO_InitStruct);
 8002c90:	463b      	mov	r3, r7
 8002c92:	4619      	mov	r1, r3
 8002c94:	4805      	ldr	r0, [pc, #20]	; (8002cac <MX_TIM1_Init+0x168>)
 8002c96:	f001 fd9f 	bl	80047d8 <LL_GPIO_Init>

}
 8002c9a:	bf00      	nop
 8002c9c:	3760      	adds	r7, #96	; 0x60
 8002c9e:	46bd      	mov	sp, r7
 8002ca0:	bd80      	pop	{r7, pc}
 8002ca2:	bf00      	nop
 8002ca4:	40012c00 	.word	0x40012c00
 8002ca8:	04050005 	.word	0x04050005
 8002cac:	40010800 	.word	0x40010800

08002cb0 <MX_TIM2_Init>:
  * @brief TIM2 Initialization Function
  * @param None
  * @retval None
  */
static void MX_TIM2_Init(void)
{
 8002cb0:	b580      	push	{r7, lr}
 8002cb2:	b08a      	sub	sp, #40	; 0x28
 8002cb4:	af00      	add	r7, sp, #0

  /* USER CODE BEGIN TIM2_Init 0 */

  /* USER CODE END TIM2_Init 0 */

  LL_TIM_InitTypeDef TIM_InitStruct = {0};
 8002cb6:	f107 0314 	add.w	r3, r7, #20
 8002cba:	2200      	movs	r2, #0
 8002cbc:	601a      	str	r2, [r3, #0]
 8002cbe:	605a      	str	r2, [r3, #4]
 8002cc0:	609a      	str	r2, [r3, #8]
 8002cc2:	60da      	str	r2, [r3, #12]
 8002cc4:	611a      	str	r2, [r3, #16]

  LL_GPIO_InitTypeDef GPIO_InitStruct = {0};
 8002cc6:	463b      	mov	r3, r7
 8002cc8:	2200      	movs	r2, #0
 8002cca:	601a      	str	r2, [r3, #0]
 8002ccc:	605a      	str	r2, [r3, #4]
 8002cce:	609a      	str	r2, [r3, #8]
 8002cd0:	60da      	str	r2, [r3, #12]
 8002cd2:	611a      	str	r2, [r3, #16]

  /* Peripheral clock enable */
  LL_APB1_GRP1_EnableClock(LL_APB1_GRP1_PERIPH_TIM2);
 8002cd4:	2001      	movs	r0, #1
 8002cd6:	f7fe fedd 	bl	8001a94 <LL_APB1_GRP1_EnableClock>

  LL_APB2_GRP1_EnableClock(LL_APB2_GRP1_PERIPH_GPIOA);
 8002cda:	2004      	movs	r0, #4
 8002cdc:	f7fe fef2 	bl	8001ac4 <LL_APB2_GRP1_EnableClock>
  LL_APB2_GRP1_EnableClock(LL_APB2_GRP1_PERIPH_GPIOB);
 8002ce0:	2008      	movs	r0, #8
 8002ce2:	f7fe feef 	bl	8001ac4 <LL_APB2_GRP1_EnableClock>
  /**TIM2 GPIO Configuration
  PA15   ------> TIM2_CH1
  PB3   ------> TIM2_CH2
  */
  GPIO_InitStruct.Pin = LL_GPIO_PIN_15;
 8002ce6:	4b47      	ldr	r3, [pc, #284]	; (8002e04 <MX_TIM2_Init+0x154>)
 8002ce8:	603b      	str	r3, [r7, #0]
  GPIO_InitStruct.Mode = LL_GPIO_MODE_FLOATING;
 8002cea:	2304      	movs	r3, #4
 8002cec:	607b      	str	r3, [r7, #4]
  LL_GPIO_Init(GPIOA, &GPIO_InitStruct);
 8002cee:	463b      	mov	r3, r7
 8002cf0:	4619      	mov	r1, r3
 8002cf2:	4845      	ldr	r0, [pc, #276]	; (8002e08 <MX_TIM2_Init+0x158>)
 8002cf4:	f001 fd70 	bl	80047d8 <LL_GPIO_Init>

  GPIO_InitStruct.Pin = LL_GPIO_PIN_3;
 8002cf8:	f640 0308 	movw	r3, #2056	; 0x808
 8002cfc:	603b      	str	r3, [r7, #0]
  GPIO_InitStruct.Mode = LL_GPIO_MODE_FLOATING;
 8002cfe:	2304      	movs	r3, #4
 8002d00:	607b      	str	r3, [r7, #4]
  LL_GPIO_Init(GPIOB, &GPIO_InitStruct);
 8002d02:	463b      	mov	r3, r7
 8002d04:	4619      	mov	r1, r3
 8002d06:	4841      	ldr	r0, [pc, #260]	; (8002e0c <MX_TIM2_Init+0x15c>)
 8002d08:	f001 fd66 	bl	80047d8 <LL_GPIO_Init>

  /* TIM2 interrupt Init */
  NVIC_SetPriority(TIM2_IRQn, NVIC_EncodePriority(NVIC_GetPriorityGrouping(),2, 0));
 8002d0c:	f7fe fae0 	bl	80012d0 <__NVIC_GetPriorityGrouping>
 8002d10:	4603      	mov	r3, r0
 8002d12:	2200      	movs	r2, #0
 8002d14:	2102      	movs	r1, #2
 8002d16:	4618      	mov	r0, r3
 8002d18:	f7fe fb2e 	bl	8001378 <NVIC_EncodePriority>
 8002d1c:	4603      	mov	r3, r0
 8002d1e:	4619      	mov	r1, r3
 8002d20:	201c      	movs	r0, #28
 8002d22:	f7fe faff 	bl	8001324 <__NVIC_SetPriority>
  NVIC_EnableIRQ(TIM2_IRQn);
 8002d26:	201c      	movs	r0, #28
 8002d28:	f7fe fae0 	bl	80012ec <__NVIC_EnableIRQ>

  /* USER CODE BEGIN TIM2_Init 1 */
  LL_GPIO_AF_EnableRemap_TIM2();
 8002d2c:	f7ff fa72 	bl	8002214 <LL_GPIO_AF_EnableRemap_TIM2>
  /* USER CODE END TIM2_Init 1 */
  LL_TIM_SetEncoderMode(TIM2, LL_TIM_ENCODERMODE_X4_TI12);
 8002d30:	2103      	movs	r1, #3
 8002d32:	f04f 4080 	mov.w	r0, #1073741824	; 0x40000000
 8002d36:	f7ff f923 	bl	8001f80 <LL_TIM_SetEncoderMode>
  LL_TIM_IC_SetActiveInput(TIM2, LL_TIM_CHANNEL_CH1, LL_TIM_ACTIVEINPUT_DIRECTTI);
 8002d3a:	f44f 3280 	mov.w	r2, #65536	; 0x10000
 8002d3e:	2101      	movs	r1, #1
 8002d40:	f04f 4080 	mov.w	r0, #1073741824	; 0x40000000
 8002d44:	f7fe ffe8 	bl	8001d18 <LL_TIM_IC_SetActiveInput>
  LL_TIM_IC_SetPrescaler(TIM2, LL_TIM_CHANNEL_CH1, LL_TIM_ICPSC_DIV1);
 8002d48:	2200      	movs	r2, #0
 8002d4a:	2101      	movs	r1, #1
 8002d4c:	f04f 4080 	mov.w	r0, #1073741824	; 0x40000000
 8002d50:	f7ff f82c 	bl	8001dac <LL_TIM_IC_SetPrescaler>
  LL_TIM_IC_SetFilter(TIM2, LL_TIM_CHANNEL_CH1, LL_TIM_IC_FILTER_FDIV1);
 8002d54:	2200      	movs	r2, #0
 8002d56:	2101      	movs	r1, #1
 8002d58:	f04f 4080 	mov.w	r0, #1073741824	; 0x40000000
 8002d5c:	f7ff f870 	bl	8001e40 <LL_TIM_IC_SetFilter>
  LL_TIM_IC_SetPolarity(TIM2, LL_TIM_CHANNEL_CH1, LL_TIM_IC_POLARITY_RISING);
 8002d60:	2200      	movs	r2, #0
 8002d62:	2101      	movs	r1, #1
 8002d64:	f04f 4080 	mov.w	r0, #1073741824	; 0x40000000
 8002d68:	f7ff f8b4 	bl	8001ed4 <LL_TIM_IC_SetPolarity>
  LL_TIM_IC_SetActiveInput(TIM2, LL_TIM_CHANNEL_CH2, LL_TIM_ACTIVEINPUT_DIRECTTI);
 8002d6c:	f44f 3280 	mov.w	r2, #65536	; 0x10000
 8002d70:	2110      	movs	r1, #16
 8002d72:	f04f 4080 	mov.w	r0, #1073741824	; 0x40000000
 8002d76:	f7fe ffcf 	bl	8001d18 <LL_TIM_IC_SetActiveInput>
  LL_TIM_IC_SetPrescaler(TIM2, LL_TIM_CHANNEL_CH2, LL_TIM_ICPSC_DIV1);
 8002d7a:	2200      	movs	r2, #0
 8002d7c:	2110      	movs	r1, #16
 8002d7e:	f04f 4080 	mov.w	r0, #1073741824	; 0x40000000
 8002d82:	f7ff f813 	bl	8001dac <LL_TIM_IC_SetPrescaler>
  LL_TIM_IC_SetFilter(TIM2, LL_TIM_CHANNEL_CH2, LL_TIM_IC_FILTER_FDIV1);
 8002d86:	2200      	movs	r2, #0
 8002d88:	2110      	movs	r1, #16
 8002d8a:	f04f 4080 	mov.w	r0, #1073741824	; 0x40000000
 8002d8e:	f7ff f857 	bl	8001e40 <LL_TIM_IC_SetFilter>
  LL_TIM_IC_SetPolarity(TIM2, LL_TIM_CHANNEL_CH2, LL_TIM_IC_POLARITY_RISING);
 8002d92:	2200      	movs	r2, #0
 8002d94:	2110      	movs	r1, #16
 8002d96:	f04f 4080 	mov.w	r0, #1073741824	; 0x40000000
 8002d9a:	f7ff f89b 	bl	8001ed4 <LL_TIM_IC_SetPolarity>
  TIM_InitStruct.Prescaler = 0;
 8002d9e:	2300      	movs	r3, #0
 8002da0:	82bb      	strh	r3, [r7, #20]
  TIM_InitStruct.CounterMode = LL_TIM_COUNTERMODE_UP;
 8002da2:	2300      	movs	r3, #0
 8002da4:	61bb      	str	r3, [r7, #24]
  TIM_InitStruct.Autoreload = 65535;
 8002da6:	f64f 73ff 	movw	r3, #65535	; 0xffff
 8002daa:	61fb      	str	r3, [r7, #28]
  TIM_InitStruct.ClockDivision = LL_TIM_CLOCKDIVISION_DIV1;
 8002dac:	2300      	movs	r3, #0
 8002dae:	623b      	str	r3, [r7, #32]
  LL_TIM_Init(TIM2, &TIM_InitStruct);
 8002db0:	f107 0314 	add.w	r3, r7, #20
 8002db4:	4619      	mov	r1, r3
 8002db6:	f04f 4080 	mov.w	r0, #1073741824	; 0x40000000
 8002dba:	f002 f801 	bl	8004dc0 <LL_TIM_Init>
  LL_TIM_DisableARRPreload(TIM2);
 8002dbe:	f04f 4080 	mov.w	r0, #1073741824	; 0x40000000
 8002dc2:	f7fe fec6 	bl	8001b52 <LL_TIM_DisableARRPreload>
  LL_TIM_SetTriggerOutput(TIM2, LL_TIM_TRGO_RESET);
 8002dc6:	2100      	movs	r1, #0
 8002dc8:	f04f 4080 	mov.w	r0, #1073741824	; 0x40000000
 8002dcc:	f7ff f8ea 	bl	8001fa4 <LL_TIM_SetTriggerOutput>
  LL_TIM_DisableMasterSlaveMode(TIM2);
 8002dd0:	f04f 4080 	mov.w	r0, #1073741824	; 0x40000000
 8002dd4:	f7ff f8f8 	bl	8001fc8 <LL_TIM_DisableMasterSlaveMode>
  /* USER CODE BEGIN TIM2_Init 2 */
  //  LL_TIM_CC_EnableChannel(TIM2,LL_TIM_CHANNEL_CH1);
  //  LL_TIM_CC_EnableChannel(TIM2,LL_TIM_CHANNEL_CH2);
  LL_TIM_SetCounter(TIM2, 0);
 8002dd8:	2100      	movs	r1, #0
 8002dda:	f04f 4080 	mov.w	r0, #1073741824	; 0x40000000
 8002dde:	f7fe fec7 	bl	8001b70 <LL_TIM_SetCounter>
  LL_TIM_ClearFlag_UPDATE(TIM2);
 8002de2:	f04f 4080 	mov.w	r0, #1073741824	; 0x40000000
 8002de6:	f7ff f90d 	bl	8002004 <LL_TIM_ClearFlag_UPDATE>
  LL_TIM_EnableIT_UPDATE(TIM2);
 8002dea:	f04f 4080 	mov.w	r0, #1073741824	; 0x40000000
 8002dee:	f7ff f930 	bl	8002052 <LL_TIM_EnableIT_UPDATE>
  LL_TIM_EnableCounter(TIM2);
 8002df2:	f04f 4080 	mov.w	r0, #1073741824	; 0x40000000
 8002df6:	f7fe fe9d 	bl	8001b34 <LL_TIM_EnableCounter>
  /* USER CODE END TIM2_Init 2 */

}
 8002dfa:	bf00      	nop
 8002dfc:	3728      	adds	r7, #40	; 0x28
 8002dfe:	46bd      	mov	sp, r7
 8002e00:	bd80      	pop	{r7, pc}
 8002e02:	bf00      	nop
 8002e04:	04800080 	.word	0x04800080
 8002e08:	40010800 	.word	0x40010800
 8002e0c:	40010c00 	.word	0x40010c00

08002e10 <MX_TIM3_Init>:
  * @brief TIM3 Initialization Function
  * @param None
  * @retval None
  */
static void MX_TIM3_Init(void)
{
 8002e10:	b580      	push	{r7, lr}
 8002e12:	b08a      	sub	sp, #40	; 0x28
 8002e14:	af00      	add	r7, sp, #0

  /* USER CODE BEGIN TIM3_Init 0 */

  /* USER CODE END TIM3_Init 0 */

  LL_TIM_InitTypeDef TIM_InitStruct = {0};
 8002e16:	f107 0314 	add.w	r3, r7, #20
 8002e1a:	2200      	movs	r2, #0
 8002e1c:	601a      	str	r2, [r3, #0]
 8002e1e:	605a      	str	r2, [r3, #4]
 8002e20:	609a      	str	r2, [r3, #8]
 8002e22:	60da      	str	r2, [r3, #12]
 8002e24:	611a      	str	r2, [r3, #16]

  LL_GPIO_InitTypeDef GPIO_InitStruct = {0};
 8002e26:	463b      	mov	r3, r7
 8002e28:	2200      	movs	r2, #0
 8002e2a:	601a      	str	r2, [r3, #0]
 8002e2c:	605a      	str	r2, [r3, #4]
 8002e2e:	609a      	str	r2, [r3, #8]
 8002e30:	60da      	str	r2, [r3, #12]
 8002e32:	611a      	str	r2, [r3, #16]

  /* Peripheral clock enable */
  LL_APB1_GRP1_EnableClock(LL_APB1_GRP1_PERIPH_TIM3);
 8002e34:	2002      	movs	r0, #2
 8002e36:	f7fe fe2d 	bl	8001a94 <LL_APB1_GRP1_EnableClock>

  LL_APB2_GRP1_EnableClock(LL_APB2_GRP1_PERIPH_GPIOB);
 8002e3a:	2008      	movs	r0, #8
 8002e3c:	f7fe fe42 	bl	8001ac4 <LL_APB2_GRP1_EnableClock>
  /**TIM3 GPIO Configuration
  PB4   ------> TIM3_CH1
  PB5   ------> TIM3_CH2
  */
  GPIO_InitStruct.Pin = LL_GPIO_PIN_4|LL_GPIO_PIN_5;
 8002e40:	f243 0330 	movw	r3, #12336	; 0x3030
 8002e44:	603b      	str	r3, [r7, #0]
  GPIO_InitStruct.Mode = LL_GPIO_MODE_FLOATING;
 8002e46:	2304      	movs	r3, #4
 8002e48:	607b      	str	r3, [r7, #4]
  LL_GPIO_Init(GPIOB, &GPIO_InitStruct);
 8002e4a:	463b      	mov	r3, r7
 8002e4c:	4619      	mov	r1, r3
 8002e4e:	4836      	ldr	r0, [pc, #216]	; (8002f28 <MX_TIM3_Init+0x118>)
 8002e50:	f001 fcc2 	bl	80047d8 <LL_GPIO_Init>

  /* TIM3 interrupt Init */
  NVIC_SetPriority(TIM3_IRQn, NVIC_EncodePriority(NVIC_GetPriorityGrouping(),2, 0));
 8002e54:	f7fe fa3c 	bl	80012d0 <__NVIC_GetPriorityGrouping>
 8002e58:	4603      	mov	r3, r0
 8002e5a:	2200      	movs	r2, #0
 8002e5c:	2102      	movs	r1, #2
 8002e5e:	4618      	mov	r0, r3
 8002e60:	f7fe fa8a 	bl	8001378 <NVIC_EncodePriority>
 8002e64:	4603      	mov	r3, r0
 8002e66:	4619      	mov	r1, r3
 8002e68:	201d      	movs	r0, #29
 8002e6a:	f7fe fa5b 	bl	8001324 <__NVIC_SetPriority>
  NVIC_EnableIRQ(TIM3_IRQn);
 8002e6e:	201d      	movs	r0, #29
 8002e70:	f7fe fa3c 	bl	80012ec <__NVIC_EnableIRQ>

  /* USER CODE BEGIN TIM3_Init 1 */
  LL_GPIO_AF_RemapPartial_TIM3();
 8002e74:	f7ff f9de 	bl	8002234 <LL_GPIO_AF_RemapPartial_TIM3>
  /* USER CODE END TIM3_Init 1 */
  LL_TIM_SetEncoderMode(TIM3, LL_TIM_ENCODERMODE_X4_TI12);
 8002e78:	2103      	movs	r1, #3
 8002e7a:	482c      	ldr	r0, [pc, #176]	; (8002f2c <MX_TIM3_Init+0x11c>)
 8002e7c:	f7ff f880 	bl	8001f80 <LL_TIM_SetEncoderMode>
  LL_TIM_IC_SetActiveInput(TIM3, LL_TIM_CHANNEL_CH1, LL_TIM_ACTIVEINPUT_DIRECTTI);
 8002e80:	f44f 3280 	mov.w	r2, #65536	; 0x10000
 8002e84:	2101      	movs	r1, #1
 8002e86:	4829      	ldr	r0, [pc, #164]	; (8002f2c <MX_TIM3_Init+0x11c>)
 8002e88:	f7fe ff46 	bl	8001d18 <LL_TIM_IC_SetActiveInput>
  LL_TIM_IC_SetPrescaler(TIM3, LL_TIM_CHANNEL_CH1, LL_TIM_ICPSC_DIV1);
 8002e8c:	2200      	movs	r2, #0
 8002e8e:	2101      	movs	r1, #1
 8002e90:	4826      	ldr	r0, [pc, #152]	; (8002f2c <MX_TIM3_Init+0x11c>)
 8002e92:	f7fe ff8b 	bl	8001dac <LL_TIM_IC_SetPrescaler>
  LL_TIM_IC_SetFilter(TIM3, LL_TIM_CHANNEL_CH1, LL_TIM_IC_FILTER_FDIV1);
 8002e96:	2200      	movs	r2, #0
 8002e98:	2101      	movs	r1, #1
 8002e9a:	4824      	ldr	r0, [pc, #144]	; (8002f2c <MX_TIM3_Init+0x11c>)
 8002e9c:	f7fe ffd0 	bl	8001e40 <LL_TIM_IC_SetFilter>
  LL_TIM_IC_SetPolarity(TIM3, LL_TIM_CHANNEL_CH1, LL_TIM_IC_POLARITY_RISING);
 8002ea0:	2200      	movs	r2, #0
 8002ea2:	2101      	movs	r1, #1
 8002ea4:	4821      	ldr	r0, [pc, #132]	; (8002f2c <MX_TIM3_Init+0x11c>)
 8002ea6:	f7ff f815 	bl	8001ed4 <LL_TIM_IC_SetPolarity>
  LL_TIM_IC_SetActiveInput(TIM3, LL_TIM_CHANNEL_CH2, LL_TIM_ACTIVEINPUT_DIRECTTI);
 8002eaa:	f44f 3280 	mov.w	r2, #65536	; 0x10000
 8002eae:	2110      	movs	r1, #16
 8002eb0:	481e      	ldr	r0, [pc, #120]	; (8002f2c <MX_TIM3_Init+0x11c>)
 8002eb2:	f7fe ff31 	bl	8001d18 <LL_TIM_IC_SetActiveInput>
  LL_TIM_IC_SetPrescaler(TIM3, LL_TIM_CHANNEL_CH2, LL_TIM_ICPSC_DIV1);
 8002eb6:	2200      	movs	r2, #0
 8002eb8:	2110      	movs	r1, #16
 8002eba:	481c      	ldr	r0, [pc, #112]	; (8002f2c <MX_TIM3_Init+0x11c>)
 8002ebc:	f7fe ff76 	bl	8001dac <LL_TIM_IC_SetPrescaler>
  LL_TIM_IC_SetFilter(TIM3, LL_TIM_CHANNEL_CH2, LL_TIM_IC_FILTER_FDIV1);
 8002ec0:	2200      	movs	r2, #0
 8002ec2:	2110      	movs	r1, #16
 8002ec4:	4819      	ldr	r0, [pc, #100]	; (8002f2c <MX_TIM3_Init+0x11c>)
 8002ec6:	f7fe ffbb 	bl	8001e40 <LL_TIM_IC_SetFilter>
  LL_TIM_IC_SetPolarity(TIM3, LL_TIM_CHANNEL_CH2, LL_TIM_IC_POLARITY_RISING);
 8002eca:	2200      	movs	r2, #0
 8002ecc:	2110      	movs	r1, #16
 8002ece:	4817      	ldr	r0, [pc, #92]	; (8002f2c <MX_TIM3_Init+0x11c>)
 8002ed0:	f7ff f800 	bl	8001ed4 <LL_TIM_IC_SetPolarity>
  TIM_InitStruct.Prescaler = 0;
 8002ed4:	2300      	movs	r3, #0
 8002ed6:	82bb      	strh	r3, [r7, #20]
  TIM_InitStruct.CounterMode = LL_TIM_COUNTERMODE_UP;
 8002ed8:	2300      	movs	r3, #0
 8002eda:	61bb      	str	r3, [r7, #24]
  TIM_InitStruct.Autoreload = 65535;
 8002edc:	f64f 73ff 	movw	r3, #65535	; 0xffff
 8002ee0:	61fb      	str	r3, [r7, #28]
  TIM_InitStruct.ClockDivision = LL_TIM_CLOCKDIVISION_DIV1;
 8002ee2:	2300      	movs	r3, #0
 8002ee4:	623b      	str	r3, [r7, #32]
  LL_TIM_Init(TIM3, &TIM_InitStruct);
 8002ee6:	f107 0314 	add.w	r3, r7, #20
 8002eea:	4619      	mov	r1, r3
 8002eec:	480f      	ldr	r0, [pc, #60]	; (8002f2c <MX_TIM3_Init+0x11c>)
 8002eee:	f001 ff67 	bl	8004dc0 <LL_TIM_Init>
  LL_TIM_DisableARRPreload(TIM3);
 8002ef2:	480e      	ldr	r0, [pc, #56]	; (8002f2c <MX_TIM3_Init+0x11c>)
 8002ef4:	f7fe fe2d 	bl	8001b52 <LL_TIM_DisableARRPreload>
  LL_TIM_SetTriggerOutput(TIM3, LL_TIM_TRGO_RESET);
 8002ef8:	2100      	movs	r1, #0
 8002efa:	480c      	ldr	r0, [pc, #48]	; (8002f2c <MX_TIM3_Init+0x11c>)
 8002efc:	f7ff f852 	bl	8001fa4 <LL_TIM_SetTriggerOutput>
  LL_TIM_DisableMasterSlaveMode(TIM3);
 8002f00:	480a      	ldr	r0, [pc, #40]	; (8002f2c <MX_TIM3_Init+0x11c>)
 8002f02:	f7ff f861 	bl	8001fc8 <LL_TIM_DisableMasterSlaveMode>
  /* USER CODE BEGIN TIM3_Init 2 */
  LL_TIM_SetCounter(TIM3, 0);
 8002f06:	2100      	movs	r1, #0
 8002f08:	4808      	ldr	r0, [pc, #32]	; (8002f2c <MX_TIM3_Init+0x11c>)
 8002f0a:	f7fe fe31 	bl	8001b70 <LL_TIM_SetCounter>
  LL_TIM_EnableCounter(TIM3);
 8002f0e:	4807      	ldr	r0, [pc, #28]	; (8002f2c <MX_TIM3_Init+0x11c>)
 8002f10:	f7fe fe10 	bl	8001b34 <LL_TIM_EnableCounter>
  LL_TIM_ClearFlag_UPDATE(TIM3);
 8002f14:	4805      	ldr	r0, [pc, #20]	; (8002f2c <MX_TIM3_Init+0x11c>)
 8002f16:	f7ff f875 	bl	8002004 <LL_TIM_ClearFlag_UPDATE>
  LL_TIM_EnableIT_UPDATE(TIM3);
 8002f1a:	4804      	ldr	r0, [pc, #16]	; (8002f2c <MX_TIM3_Init+0x11c>)
 8002f1c:	f7ff f899 	bl	8002052 <LL_TIM_EnableIT_UPDATE>
  /* USER CODE END TIM3_Init 2 */

}
 8002f20:	bf00      	nop
 8002f22:	3728      	adds	r7, #40	; 0x28
 8002f24:	46bd      	mov	sp, r7
 8002f26:	bd80      	pop	{r7, pc}
 8002f28:	40010c00 	.word	0x40010c00
 8002f2c:	40000400 	.word	0x40000400

08002f30 <MX_TIM4_Init>:
  * @brief TIM4 Initialization Function
  * @param None
  * @retval None
  */
static void MX_TIM4_Init(void)
{
 8002f30:	b580      	push	{r7, lr}
 8002f32:	b08e      	sub	sp, #56	; 0x38
 8002f34:	af00      	add	r7, sp, #0

  /* USER CODE BEGIN TIM4_Init 0 */

  /* USER CODE END TIM4_Init 0 */

  LL_TIM_InitTypeDef TIM_InitStruct = {0};
 8002f36:	f107 0324 	add.w	r3, r7, #36	; 0x24
 8002f3a:	2200      	movs	r2, #0
 8002f3c:	601a      	str	r2, [r3, #0]
 8002f3e:	605a      	str	r2, [r3, #4]
 8002f40:	609a      	str	r2, [r3, #8]
 8002f42:	60da      	str	r2, [r3, #12]
 8002f44:	611a      	str	r2, [r3, #16]
  LL_TIM_OC_InitTypeDef TIM_OC_InitStruct = {0};
 8002f46:	1d3b      	adds	r3, r7, #4
 8002f48:	2220      	movs	r2, #32
 8002f4a:	2100      	movs	r1, #0
 8002f4c:	4618      	mov	r0, r3
 8002f4e:	f002 faf7 	bl	8005540 <memset>

  /* Peripheral clock enable */
  LL_APB1_GRP1_EnableClock(LL_APB1_GRP1_PERIPH_TIM4);
 8002f52:	2004      	movs	r0, #4
 8002f54:	f7fe fd9e 	bl	8001a94 <LL_APB1_GRP1_EnableClock>

  /* TIM4 interrupt Init */
  NVIC_SetPriority(TIM4_IRQn, NVIC_EncodePriority(NVIC_GetPriorityGrouping(),0, 0));
 8002f58:	f7fe f9ba 	bl	80012d0 <__NVIC_GetPriorityGrouping>
 8002f5c:	4603      	mov	r3, r0
 8002f5e:	2200      	movs	r2, #0
 8002f60:	2100      	movs	r1, #0
 8002f62:	4618      	mov	r0, r3
 8002f64:	f7fe fa08 	bl	8001378 <NVIC_EncodePriority>
 8002f68:	4603      	mov	r3, r0
 8002f6a:	4619      	mov	r1, r3
 8002f6c:	201e      	movs	r0, #30
 8002f6e:	f7fe f9d9 	bl	8001324 <__NVIC_SetPriority>
  NVIC_EnableIRQ(TIM4_IRQn);
 8002f72:	201e      	movs	r0, #30
 8002f74:	f7fe f9ba 	bl	80012ec <__NVIC_EnableIRQ>

  /* USER CODE BEGIN TIM4_Init 1 */

  /* USER CODE END TIM4_Init 1 */
  TIM_InitStruct.Prescaler = 24;
 8002f78:	2318      	movs	r3, #24
 8002f7a:	84bb      	strh	r3, [r7, #36]	; 0x24
  TIM_InitStruct.CounterMode = LL_TIM_COUNTERMODE_UP;
 8002f7c:	2300      	movs	r3, #0
 8002f7e:	62bb      	str	r3, [r7, #40]	; 0x28
  TIM_InitStruct.Autoreload = 60000;
 8002f80:	f64e 2360 	movw	r3, #60000	; 0xea60
 8002f84:	62fb      	str	r3, [r7, #44]	; 0x2c
  TIM_InitStruct.ClockDivision = LL_TIM_CLOCKDIVISION_DIV1;
 8002f86:	2300      	movs	r3, #0
 8002f88:	633b      	str	r3, [r7, #48]	; 0x30
  LL_TIM_Init(TIM4, &TIM_InitStruct);
 8002f8a:	f107 0324 	add.w	r3, r7, #36	; 0x24
 8002f8e:	4619      	mov	r1, r3
 8002f90:	482d      	ldr	r0, [pc, #180]	; (8003048 <MX_TIM4_Init+0x118>)
 8002f92:	f001 ff15 	bl	8004dc0 <LL_TIM_Init>
  LL_TIM_DisableARRPreload(TIM4);
 8002f96:	482c      	ldr	r0, [pc, #176]	; (8003048 <MX_TIM4_Init+0x118>)
 8002f98:	f7fe fddb 	bl	8001b52 <LL_TIM_DisableARRPreload>
  LL_TIM_SetClockSource(TIM4, LL_TIM_CLOCKSOURCE_INTERNAL);
 8002f9c:	2100      	movs	r1, #0
 8002f9e:	482a      	ldr	r0, [pc, #168]	; (8003048 <MX_TIM4_Init+0x118>)
 8002fa0:	f7fe ffda 	bl	8001f58 <LL_TIM_SetClockSource>
  LL_TIM_OC_EnablePreload(TIM4, LL_TIM_CHANNEL_CH1);
 8002fa4:	2101      	movs	r1, #1
 8002fa6:	4828      	ldr	r0, [pc, #160]	; (8003048 <MX_TIM4_Init+0x118>)
 8002fa8:	f7fe fe32 	bl	8001c10 <LL_TIM_OC_EnablePreload>
  TIM_OC_InitStruct.OCMode = LL_TIM_OCMODE_PWM1;
 8002fac:	2360      	movs	r3, #96	; 0x60
 8002fae:	607b      	str	r3, [r7, #4]
  TIM_OC_InitStruct.OCState = LL_TIM_OCSTATE_DISABLE;
 8002fb0:	2300      	movs	r3, #0
 8002fb2:	60bb      	str	r3, [r7, #8]
  TIM_OC_InitStruct.OCNState = LL_TIM_OCSTATE_DISABLE;
 8002fb4:	2300      	movs	r3, #0
 8002fb6:	60fb      	str	r3, [r7, #12]
  TIM_OC_InitStruct.CompareValue = 4500;
 8002fb8:	f241 1394 	movw	r3, #4500	; 0x1194
 8002fbc:	613b      	str	r3, [r7, #16]
  TIM_OC_InitStruct.OCPolarity = LL_TIM_OCPOLARITY_HIGH;
 8002fbe:	2300      	movs	r3, #0
 8002fc0:	617b      	str	r3, [r7, #20]
  LL_TIM_OC_Init(TIM4, LL_TIM_CHANNEL_CH1, &TIM_OC_InitStruct);
 8002fc2:	1d3b      	adds	r3, r7, #4
 8002fc4:	461a      	mov	r2, r3
 8002fc6:	2101      	movs	r1, #1
 8002fc8:	481f      	ldr	r0, [pc, #124]	; (8003048 <MX_TIM4_Init+0x118>)
 8002fca:	f001 ff57 	bl	8004e7c <LL_TIM_OC_Init>
  LL_TIM_OC_DisableFast(TIM4, LL_TIM_CHANNEL_CH1);
 8002fce:	2101      	movs	r1, #1
 8002fd0:	481d      	ldr	r0, [pc, #116]	; (8003048 <MX_TIM4_Init+0x118>)
 8002fd2:	f7fe fddb 	bl	8001b8c <LL_TIM_OC_DisableFast>
  TIM_OC_InitStruct.OCMode = LL_TIM_OCMODE_FROZEN;
 8002fd6:	2300      	movs	r3, #0
 8002fd8:	607b      	str	r3, [r7, #4]
  TIM_OC_InitStruct.OCState = LL_TIM_OCSTATE_DISABLE;
 8002fda:	2300      	movs	r3, #0
 8002fdc:	60bb      	str	r3, [r7, #8]
  TIM_OC_InitStruct.OCNState = LL_TIM_OCSTATE_DISABLE;
 8002fde:	2300      	movs	r3, #0
 8002fe0:	60fb      	str	r3, [r7, #12]
  LL_TIM_OC_Init(TIM4, LL_TIM_CHANNEL_CH2, &TIM_OC_InitStruct);
 8002fe2:	1d3b      	adds	r3, r7, #4
 8002fe4:	461a      	mov	r2, r3
 8002fe6:	2110      	movs	r1, #16
 8002fe8:	4817      	ldr	r0, [pc, #92]	; (8003048 <MX_TIM4_Init+0x118>)
 8002fea:	f001 ff47 	bl	8004e7c <LL_TIM_OC_Init>
  LL_TIM_OC_DisableFast(TIM4, LL_TIM_CHANNEL_CH2);
 8002fee:	2110      	movs	r1, #16
 8002ff0:	4815      	ldr	r0, [pc, #84]	; (8003048 <MX_TIM4_Init+0x118>)
 8002ff2:	f7fe fdcb 	bl	8001b8c <LL_TIM_OC_DisableFast>
  LL_TIM_SetTriggerOutput(TIM4, LL_TIM_TRGO_RESET);
 8002ff6:	2100      	movs	r1, #0
 8002ff8:	4813      	ldr	r0, [pc, #76]	; (8003048 <MX_TIM4_Init+0x118>)
 8002ffa:	f7fe ffd3 	bl	8001fa4 <LL_TIM_SetTriggerOutput>
  LL_TIM_DisableMasterSlaveMode(TIM4);
 8002ffe:	4812      	ldr	r0, [pc, #72]	; (8003048 <MX_TIM4_Init+0x118>)
 8003000:	f7fe ffe2 	bl	8001fc8 <LL_TIM_DisableMasterSlaveMode>
  LL_TIM_OC_DisablePreload(TIM4, LL_TIM_CHANNEL_CH1);
 8003004:	2101      	movs	r1, #1
 8003006:	4810      	ldr	r0, [pc, #64]	; (8003048 <MX_TIM4_Init+0x118>)
 8003008:	f7fe fe44 	bl	8001c94 <LL_TIM_OC_DisablePreload>
  /* USER CODE BEGIN TIM4_Init 2 */

  LL_TIM_EnableIT_UPDATE(TIM4);
 800300c:	480e      	ldr	r0, [pc, #56]	; (8003048 <MX_TIM4_Init+0x118>)
 800300e:	f7ff f820 	bl	8002052 <LL_TIM_EnableIT_UPDATE>
  LL_TIM_ClearFlag_UPDATE(TIM4);
 8003012:	480d      	ldr	r0, [pc, #52]	; (8003048 <MX_TIM4_Init+0x118>)
 8003014:	f7fe fff6 	bl	8002004 <LL_TIM_ClearFlag_UPDATE>

  LL_TIM_EnableIT_CC1(TIM4);
 8003018:	480b      	ldr	r0, [pc, #44]	; (8003048 <MX_TIM4_Init+0x118>)
 800301a:	f7ff f829 	bl	8002070 <LL_TIM_EnableIT_CC1>
  LL_TIM_ClearFlag_CC1(TIM4);
 800301e:	480a      	ldr	r0, [pc, #40]	; (8003048 <MX_TIM4_Init+0x118>)
 8003020:	f7fe fffd 	bl	800201e <LL_TIM_ClearFlag_CC1>
  //
  LL_TIM_EnableIT_CC2(TIM4);
 8003024:	4808      	ldr	r0, [pc, #32]	; (8003048 <MX_TIM4_Init+0x118>)
 8003026:	f7ff f832 	bl	800208e <LL_TIM_EnableIT_CC2>
  LL_TIM_ClearFlag_CC2(TIM4);
 800302a:	4807      	ldr	r0, [pc, #28]	; (8003048 <MX_TIM4_Init+0x118>)
 800302c:	f7ff f804 	bl	8002038 <LL_TIM_ClearFlag_CC2>

  LL_TIM_SetCounter(TIM4, 0);
 8003030:	2100      	movs	r1, #0
 8003032:	4805      	ldr	r0, [pc, #20]	; (8003048 <MX_TIM4_Init+0x118>)
 8003034:	f7fe fd9c 	bl	8001b70 <LL_TIM_SetCounter>
  LL_TIM_EnableCounter(TIM4);
 8003038:	4803      	ldr	r0, [pc, #12]	; (8003048 <MX_TIM4_Init+0x118>)
 800303a:	f7fe fd7b 	bl	8001b34 <LL_TIM_EnableCounter>

  /* USER CODE END TIM4_Init 2 */

}
 800303e:	bf00      	nop
 8003040:	3738      	adds	r7, #56	; 0x38
 8003042:	46bd      	mov	sp, r7
 8003044:	bd80      	pop	{r7, pc}
 8003046:	bf00      	nop
 8003048:	40000800 	.word	0x40000800

0800304c <MX_USART1_UART_Init>:
  * @brief USART1 Initialization Function
  * @param None
  * @retval None
  */
static void MX_USART1_UART_Init(void)
{
 800304c:	b580      	push	{r7, lr}
 800304e:	b08c      	sub	sp, #48	; 0x30
 8003050:	af00      	add	r7, sp, #0

  /* USER CODE BEGIN USART1_Init 0 */

  /* USER CODE END USART1_Init 0 */

  LL_USART_InitTypeDef USART_InitStruct = {0};
 8003052:	f107 0314 	add.w	r3, r7, #20
 8003056:	2200      	movs	r2, #0
 8003058:	601a      	str	r2, [r3, #0]
 800305a:	605a      	str	r2, [r3, #4]
 800305c:	609a      	str	r2, [r3, #8]
 800305e:	60da      	str	r2, [r3, #12]
 8003060:	611a      	str	r2, [r3, #16]
 8003062:	615a      	str	r2, [r3, #20]
 8003064:	619a      	str	r2, [r3, #24]

  LL_GPIO_InitTypeDef GPIO_InitStruct = {0};
 8003066:	463b      	mov	r3, r7
 8003068:	2200      	movs	r2, #0
 800306a:	601a      	str	r2, [r3, #0]
 800306c:	605a      	str	r2, [r3, #4]
 800306e:	609a      	str	r2, [r3, #8]
 8003070:	60da      	str	r2, [r3, #12]
 8003072:	611a      	str	r2, [r3, #16]

  /* Peripheral clock enable */
  LL_APB2_GRP1_EnableClock(LL_APB2_GRP1_PERIPH_USART1);
 8003074:	f44f 4080 	mov.w	r0, #16384	; 0x4000
 8003078:	f7fe fd24 	bl	8001ac4 <LL_APB2_GRP1_EnableClock>

  LL_APB2_GRP1_EnableClock(LL_APB2_GRP1_PERIPH_GPIOB);
 800307c:	2008      	movs	r0, #8
 800307e:	f7fe fd21 	bl	8001ac4 <LL_APB2_GRP1_EnableClock>
  /**USART1 GPIO Configuration
  PB6   ------> USART1_TX
  PB7   ------> USART1_RX
  */
  GPIO_InitStruct.Pin = LL_GPIO_PIN_6;
 8003082:	f244 0340 	movw	r3, #16448	; 0x4040
 8003086:	603b      	str	r3, [r7, #0]
  GPIO_InitStruct.Mode = LL_GPIO_MODE_ALTERNATE;
 8003088:	2309      	movs	r3, #9
 800308a:	607b      	str	r3, [r7, #4]
  GPIO_InitStruct.Speed = LL_GPIO_SPEED_FREQ_HIGH;
 800308c:	2303      	movs	r3, #3
 800308e:	60bb      	str	r3, [r7, #8]
  GPIO_InitStruct.OutputType = LL_GPIO_OUTPUT_PUSHPULL;
 8003090:	2300      	movs	r3, #0
 8003092:	60fb      	str	r3, [r7, #12]
  LL_GPIO_Init(GPIOB, &GPIO_InitStruct);
 8003094:	463b      	mov	r3, r7
 8003096:	4619      	mov	r1, r3
 8003098:	481f      	ldr	r0, [pc, #124]	; (8003118 <MX_USART1_UART_Init+0xcc>)
 800309a:	f001 fb9d 	bl	80047d8 <LL_GPIO_Init>

  GPIO_InitStruct.Pin = LL_GPIO_PIN_7;
 800309e:	f248 0380 	movw	r3, #32896	; 0x8080
 80030a2:	603b      	str	r3, [r7, #0]
  GPIO_InitStruct.Mode = LL_GPIO_MODE_FLOATING;
 80030a4:	2304      	movs	r3, #4
 80030a6:	607b      	str	r3, [r7, #4]
  LL_GPIO_Init(GPIOB, &GPIO_InitStruct);
 80030a8:	463b      	mov	r3, r7
 80030aa:	4619      	mov	r1, r3
 80030ac:	481a      	ldr	r0, [pc, #104]	; (8003118 <MX_USART1_UART_Init+0xcc>)
 80030ae:	f001 fb93 	bl	80047d8 <LL_GPIO_Init>

  LL_GPIO_AF_EnableRemap_USART1();
 80030b2:	f7ff f89f 	bl	80021f4 <LL_GPIO_AF_EnableRemap_USART1>

  /* USART1 interrupt Init */
  NVIC_SetPriority(USART1_IRQn, NVIC_EncodePriority(NVIC_GetPriorityGrouping(),2, 0));
 80030b6:	f7fe f90b 	bl	80012d0 <__NVIC_GetPriorityGrouping>
 80030ba:	4603      	mov	r3, r0
 80030bc:	2200      	movs	r2, #0
 80030be:	2102      	movs	r1, #2
 80030c0:	4618      	mov	r0, r3
 80030c2:	f7fe f959 	bl	8001378 <NVIC_EncodePriority>
 80030c6:	4603      	mov	r3, r0
 80030c8:	4619      	mov	r1, r3
 80030ca:	2025      	movs	r0, #37	; 0x25
 80030cc:	f7fe f92a 	bl	8001324 <__NVIC_SetPriority>
  NVIC_EnableIRQ(USART1_IRQn);
 80030d0:	2025      	movs	r0, #37	; 0x25
 80030d2:	f7fe f90b 	bl	80012ec <__NVIC_EnableIRQ>

  /* USER CODE BEGIN USART1_Init 1 */

  /* USER CODE END USART1_Init 1 */
  USART_InitStruct.BaudRate = 115200;
 80030d6:	f44f 33e1 	mov.w	r3, #115200	; 0x1c200
 80030da:	617b      	str	r3, [r7, #20]
  USART_InitStruct.DataWidth = LL_USART_DATAWIDTH_9B;
 80030dc:	f44f 5380 	mov.w	r3, #4096	; 0x1000
 80030e0:	61bb      	str	r3, [r7, #24]
  USART_InitStruct.StopBits = LL_USART_STOPBITS_1;
 80030e2:	2300      	movs	r3, #0
 80030e4:	61fb      	str	r3, [r7, #28]
  USART_InitStruct.Parity = LL_USART_PARITY_NONE;
 80030e6:	2300      	movs	r3, #0
 80030e8:	623b      	str	r3, [r7, #32]
  USART_InitStruct.TransferDirection = LL_USART_DIRECTION_TX_RX;
 80030ea:	230c      	movs	r3, #12
 80030ec:	627b      	str	r3, [r7, #36]	; 0x24
  USART_InitStruct.HardwareFlowControl = LL_USART_HWCONTROL_NONE;
 80030ee:	2300      	movs	r3, #0
 80030f0:	62bb      	str	r3, [r7, #40]	; 0x28
  USART_InitStruct.OverSampling = LL_USART_OVERSAMPLING_16;
 80030f2:	2300      	movs	r3, #0
 80030f4:	62fb      	str	r3, [r7, #44]	; 0x2c
  LL_USART_Init(USART1, &USART_InitStruct);
 80030f6:	f107 0314 	add.w	r3, r7, #20
 80030fa:	4619      	mov	r1, r3
 80030fc:	4807      	ldr	r0, [pc, #28]	; (800311c <MX_USART1_UART_Init+0xd0>)
 80030fe:	f002 f95f 	bl	80053c0 <LL_USART_Init>
  LL_USART_ConfigAsyncMode(USART1);
 8003102:	4806      	ldr	r0, [pc, #24]	; (800311c <MX_USART1_UART_Init+0xd0>)
 8003104:	f7fe ffe1 	bl	80020ca <LL_USART_ConfigAsyncMode>
  LL_USART_Enable(USART1);
 8003108:	4804      	ldr	r0, [pc, #16]	; (800311c <MX_USART1_UART_Init+0xd0>)
 800310a:	f7fe ffcf 	bl	80020ac <LL_USART_Enable>
  /* USER CODE BEGIN USART1_Init 2 */

  /* USER CODE END USART1_Init 2 */

}
 800310e:	bf00      	nop
 8003110:	3730      	adds	r7, #48	; 0x30
 8003112:	46bd      	mov	sp, r7
 8003114:	bd80      	pop	{r7, pc}
 8003116:	bf00      	nop
 8003118:	40010c00 	.word	0x40010c00
 800311c:	40013800 	.word	0x40013800

08003120 <MX_DMA_Init>:

/**
  * Enable DMA controller clock
  */
static void MX_DMA_Init(void)
{
 8003120:	b580      	push	{r7, lr}
 8003122:	af00      	add	r7, sp, #0

  /* Init with LL driver */
  /* DMA controller clock enable */
  LL_AHB1_GRP1_EnableClock(LL_AHB1_GRP1_PERIPH_DMA1);
 8003124:	2001      	movs	r0, #1
 8003126:	f7fe fc9d 	bl	8001a64 <LL_AHB1_GRP1_EnableClock>

  /* DMA interrupt init */
  /* DMA1_Channel1_IRQn interrupt configuration */
  NVIC_SetPriority(DMA1_Channel1_IRQn, NVIC_EncodePriority(NVIC_GetPriorityGrouping(),1, 0));
 800312a:	f7fe f8d1 	bl	80012d0 <__NVIC_GetPriorityGrouping>
 800312e:	4603      	mov	r3, r0
 8003130:	2200      	movs	r2, #0
 8003132:	2101      	movs	r1, #1
 8003134:	4618      	mov	r0, r3
 8003136:	f7fe f91f 	bl	8001378 <NVIC_EncodePriority>
 800313a:	4603      	mov	r3, r0
 800313c:	4619      	mov	r1, r3
 800313e:	200b      	movs	r0, #11
 8003140:	f7fe f8f0 	bl	8001324 <__NVIC_SetPriority>
  NVIC_EnableIRQ(DMA1_Channel1_IRQn);
 8003144:	200b      	movs	r0, #11
 8003146:	f7fe f8d1 	bl	80012ec <__NVIC_EnableIRQ>

}
 800314a:	bf00      	nop
 800314c:	bd80      	pop	{r7, pc}
	...

08003150 <MX_GPIO_Init>:
  * @brief GPIO Initialization Function
  * @param None
  * @retval None
  */
static void MX_GPIO_Init(void)
{
 8003150:	b580      	push	{r7, lr}
 8003152:	b088      	sub	sp, #32
 8003154:	af00      	add	r7, sp, #0
  LL_EXTI_InitTypeDef EXTI_InitStruct = {0};
 8003156:	f107 0318 	add.w	r3, r7, #24
 800315a:	2200      	movs	r2, #0
 800315c:	601a      	str	r2, [r3, #0]
 800315e:	605a      	str	r2, [r3, #4]
  LL_GPIO_InitTypeDef GPIO_InitStruct = {0};
 8003160:	1d3b      	adds	r3, r7, #4
 8003162:	2200      	movs	r2, #0
 8003164:	601a      	str	r2, [r3, #0]
 8003166:	605a      	str	r2, [r3, #4]
 8003168:	609a      	str	r2, [r3, #8]
 800316a:	60da      	str	r2, [r3, #12]
 800316c:	611a      	str	r2, [r3, #16]

  /* GPIO Ports Clock Enable */
  LL_APB2_GRP1_EnableClock(LL_APB2_GRP1_PERIPH_GPIOC);
 800316e:	2010      	movs	r0, #16
 8003170:	f7fe fca8 	bl	8001ac4 <LL_APB2_GRP1_EnableClock>
  LL_APB2_GRP1_EnableClock(LL_APB2_GRP1_PERIPH_GPIOD);
 8003174:	2020      	movs	r0, #32
 8003176:	f7fe fca5 	bl	8001ac4 <LL_APB2_GRP1_EnableClock>
  LL_APB2_GRP1_EnableClock(LL_APB2_GRP1_PERIPH_GPIOA);
 800317a:	2004      	movs	r0, #4
 800317c:	f7fe fca2 	bl	8001ac4 <LL_APB2_GRP1_EnableClock>
  LL_APB2_GRP1_EnableClock(LL_APB2_GRP1_PERIPH_GPIOB);
 8003180:	2008      	movs	r0, #8
 8003182:	f7fe fc9f 	bl	8001ac4 <LL_APB2_GRP1_EnableClock>

  /**/
  LL_GPIO_ResetOutputPin(GPIOC, LL_GPIO_PIN_13);
 8003186:	494c      	ldr	r1, [pc, #304]	; (80032b8 <MX_GPIO_Init+0x168>)
 8003188:	484c      	ldr	r0, [pc, #304]	; (80032bc <MX_GPIO_Init+0x16c>)
 800318a:	f7ff f814 	bl	80021b6 <LL_GPIO_ResetOutputPin>

  /**/
  LL_GPIO_ResetOutputPin(GPIOB, LL_GPIO_PIN_15);
 800318e:	494c      	ldr	r1, [pc, #304]	; (80032c0 <MX_GPIO_Init+0x170>)
 8003190:	484c      	ldr	r0, [pc, #304]	; (80032c4 <MX_GPIO_Init+0x174>)
 8003192:	f7ff f810 	bl	80021b6 <LL_GPIO_ResetOutputPin>

  /**/
  LL_GPIO_ResetOutputPin(GPIOA, LL_GPIO_PIN_9|LL_GPIO_PIN_11);
 8003196:	494c      	ldr	r1, [pc, #304]	; (80032c8 <MX_GPIO_Init+0x178>)
 8003198:	484c      	ldr	r0, [pc, #304]	; (80032cc <MX_GPIO_Init+0x17c>)
 800319a:	f7ff f80c 	bl	80021b6 <LL_GPIO_ResetOutputPin>

  /**/
  GPIO_InitStruct.Pin = LL_GPIO_PIN_13;
 800319e:	4b46      	ldr	r3, [pc, #280]	; (80032b8 <MX_GPIO_Init+0x168>)
 80031a0:	607b      	str	r3, [r7, #4]
  GPIO_InitStruct.Mode = LL_GPIO_MODE_OUTPUT;
 80031a2:	2301      	movs	r3, #1
 80031a4:	60bb      	str	r3, [r7, #8]
  GPIO_InitStruct.Speed = LL_GPIO_SPEED_FREQ_LOW;
 80031a6:	2302      	movs	r3, #2
 80031a8:	60fb      	str	r3, [r7, #12]
  GPIO_InitStruct.OutputType = LL_GPIO_OUTPUT_PUSHPULL;
 80031aa:	2300      	movs	r3, #0
 80031ac:	613b      	str	r3, [r7, #16]
  LL_GPIO_Init(GPIOC, &GPIO_InitStruct);
 80031ae:	1d3b      	adds	r3, r7, #4
 80031b0:	4619      	mov	r1, r3
 80031b2:	4842      	ldr	r0, [pc, #264]	; (80032bc <MX_GPIO_Init+0x16c>)
 80031b4:	f001 fb10 	bl	80047d8 <LL_GPIO_Init>

  /**/
  GPIO_InitStruct.Pin = LL_GPIO_PIN_15;
 80031b8:	4b41      	ldr	r3, [pc, #260]	; (80032c0 <MX_GPIO_Init+0x170>)
 80031ba:	607b      	str	r3, [r7, #4]
  GPIO_InitStruct.Mode = LL_GPIO_MODE_OUTPUT;
 80031bc:	2301      	movs	r3, #1
 80031be:	60bb      	str	r3, [r7, #8]
  GPIO_InitStruct.Speed = LL_GPIO_SPEED_FREQ_HIGH;
 80031c0:	2303      	movs	r3, #3
 80031c2:	60fb      	str	r3, [r7, #12]
  GPIO_InitStruct.OutputType = LL_GPIO_OUTPUT_PUSHPULL;
 80031c4:	2300      	movs	r3, #0
 80031c6:	613b      	str	r3, [r7, #16]
  LL_GPIO_Init(GPIOB, &GPIO_InitStruct);
 80031c8:	1d3b      	adds	r3, r7, #4
 80031ca:	4619      	mov	r1, r3
 80031cc:	483d      	ldr	r0, [pc, #244]	; (80032c4 <MX_GPIO_Init+0x174>)
 80031ce:	f001 fb03 	bl	80047d8 <LL_GPIO_Init>

  /**/
  GPIO_InitStruct.Pin = LL_GPIO_PIN_9;
 80031d2:	4b3f      	ldr	r3, [pc, #252]	; (80032d0 <MX_GPIO_Init+0x180>)
 80031d4:	607b      	str	r3, [r7, #4]
  GPIO_InitStruct.Mode = LL_GPIO_MODE_OUTPUT;
 80031d6:	2301      	movs	r3, #1
 80031d8:	60bb      	str	r3, [r7, #8]
  GPIO_InitStruct.Speed = LL_GPIO_SPEED_FREQ_LOW;
 80031da:	2302      	movs	r3, #2
 80031dc:	60fb      	str	r3, [r7, #12]
  GPIO_InitStruct.OutputType = LL_GPIO_OUTPUT_PUSHPULL;
 80031de:	2300      	movs	r3, #0
 80031e0:	613b      	str	r3, [r7, #16]
  LL_GPIO_Init(GPIOA, &GPIO_InitStruct);
 80031e2:	1d3b      	adds	r3, r7, #4
 80031e4:	4619      	mov	r1, r3
 80031e6:	4839      	ldr	r0, [pc, #228]	; (80032cc <MX_GPIO_Init+0x17c>)
 80031e8:	f001 faf6 	bl	80047d8 <LL_GPIO_Init>

  /**/
  GPIO_InitStruct.Pin = LL_GPIO_PIN_11;
 80031ec:	4b39      	ldr	r3, [pc, #228]	; (80032d4 <MX_GPIO_Init+0x184>)
 80031ee:	607b      	str	r3, [r7, #4]
  GPIO_InitStruct.Mode = LL_GPIO_MODE_OUTPUT;
 80031f0:	2301      	movs	r3, #1
 80031f2:	60bb      	str	r3, [r7, #8]
  GPIO_InitStruct.Speed = LL_GPIO_SPEED_FREQ_HIGH;
 80031f4:	2303      	movs	r3, #3
 80031f6:	60fb      	str	r3, [r7, #12]
  GPIO_InitStruct.OutputType = LL_GPIO_OUTPUT_PUSHPULL;
 80031f8:	2300      	movs	r3, #0
 80031fa:	613b      	str	r3, [r7, #16]
  LL_GPIO_Init(GPIOA, &GPIO_InitStruct);
 80031fc:	1d3b      	adds	r3, r7, #4
 80031fe:	4619      	mov	r1, r3
 8003200:	4832      	ldr	r0, [pc, #200]	; (80032cc <MX_GPIO_Init+0x17c>)
 8003202:	f001 fae9 	bl	80047d8 <LL_GPIO_Init>

  /**/
  LL_GPIO_AF_SetEXTISource(LL_GPIO_AF_EXTI_PORTB, LL_GPIO_AF_EXTI_LINE12);
 8003206:	4934      	ldr	r1, [pc, #208]	; (80032d8 <MX_GPIO_Init+0x188>)
 8003208:	2001      	movs	r0, #1
 800320a:	f7ff f83b 	bl	8002284 <LL_GPIO_AF_SetEXTISource>

  /**/
  LL_GPIO_AF_SetEXTISource(LL_GPIO_AF_EXTI_PORTB, LL_GPIO_AF_EXTI_LINE13);
 800320e:	4933      	ldr	r1, [pc, #204]	; (80032dc <MX_GPIO_Init+0x18c>)
 8003210:	2001      	movs	r0, #1
 8003212:	f7ff f837 	bl	8002284 <LL_GPIO_AF_SetEXTISource>

  /**/
  LL_GPIO_AF_SetEXTISource(LL_GPIO_AF_EXTI_PORTB, LL_GPIO_AF_EXTI_LINE14);
 8003216:	4932      	ldr	r1, [pc, #200]	; (80032e0 <MX_GPIO_Init+0x190>)
 8003218:	2001      	movs	r0, #1
 800321a:	f7ff f833 	bl	8002284 <LL_GPIO_AF_SetEXTISource>

  /**/
  EXTI_InitStruct.Line_0_31 = LL_EXTI_LINE_12;
 800321e:	f44f 5380 	mov.w	r3, #4096	; 0x1000
 8003222:	61bb      	str	r3, [r7, #24]
  EXTI_InitStruct.LineCommand = ENABLE;
 8003224:	2301      	movs	r3, #1
 8003226:	773b      	strb	r3, [r7, #28]
  EXTI_InitStruct.Mode = LL_EXTI_MODE_IT;
 8003228:	2300      	movs	r3, #0
 800322a:	777b      	strb	r3, [r7, #29]
  EXTI_InitStruct.Trigger = LL_EXTI_TRIGGER_RISING;
 800322c:	2301      	movs	r3, #1
 800322e:	77bb      	strb	r3, [r7, #30]
  LL_EXTI_Init(&EXTI_InitStruct);
 8003230:	f107 0318 	add.w	r3, r7, #24
 8003234:	4618      	mov	r0, r3
 8003236:	f001 f99b 	bl	8004570 <LL_EXTI_Init>

  /**/
  EXTI_InitStruct.Line_0_31 = LL_EXTI_LINE_13;
 800323a:	f44f 5300 	mov.w	r3, #8192	; 0x2000
 800323e:	61bb      	str	r3, [r7, #24]
  EXTI_InitStruct.LineCommand = ENABLE;
 8003240:	2301      	movs	r3, #1
 8003242:	773b      	strb	r3, [r7, #28]
  EXTI_InitStruct.Mode = LL_EXTI_MODE_IT;
 8003244:	2300      	movs	r3, #0
 8003246:	777b      	strb	r3, [r7, #29]
  EXTI_InitStruct.Trigger = LL_EXTI_TRIGGER_RISING;
 8003248:	2301      	movs	r3, #1
 800324a:	77bb      	strb	r3, [r7, #30]
  LL_EXTI_Init(&EXTI_InitStruct);
 800324c:	f107 0318 	add.w	r3, r7, #24
 8003250:	4618      	mov	r0, r3
 8003252:	f001 f98d 	bl	8004570 <LL_EXTI_Init>

  /**/
  EXTI_InitStruct.Line_0_31 = LL_EXTI_LINE_14;
 8003256:	f44f 4380 	mov.w	r3, #16384	; 0x4000
 800325a:	61bb      	str	r3, [r7, #24]
  EXTI_InitStruct.LineCommand = ENABLE;
 800325c:	2301      	movs	r3, #1
 800325e:	773b      	strb	r3, [r7, #28]
  EXTI_InitStruct.Mode = LL_EXTI_MODE_IT;
 8003260:	2300      	movs	r3, #0
 8003262:	777b      	strb	r3, [r7, #29]
  EXTI_InitStruct.Trigger = LL_EXTI_TRIGGER_RISING;
 8003264:	2301      	movs	r3, #1
 8003266:	77bb      	strb	r3, [r7, #30]
  LL_EXTI_Init(&EXTI_InitStruct);
 8003268:	f107 0318 	add.w	r3, r7, #24
 800326c:	4618      	mov	r0, r3
 800326e:	f001 f97f 	bl	8004570 <LL_EXTI_Init>

  /**/
  LL_GPIO_SetPinMode(GPIOB, LL_GPIO_PIN_12, LL_GPIO_MODE_FLOATING);
 8003272:	2204      	movs	r2, #4
 8003274:	491b      	ldr	r1, [pc, #108]	; (80032e4 <MX_GPIO_Init+0x194>)
 8003276:	4813      	ldr	r0, [pc, #76]	; (80032c4 <MX_GPIO_Init+0x174>)
 8003278:	f7fe ff5c 	bl	8002134 <LL_GPIO_SetPinMode>

  /**/
  LL_GPIO_SetPinMode(GPIOB, LL_GPIO_PIN_13, LL_GPIO_MODE_FLOATING);
 800327c:	2204      	movs	r2, #4
 800327e:	490e      	ldr	r1, [pc, #56]	; (80032b8 <MX_GPIO_Init+0x168>)
 8003280:	4810      	ldr	r0, [pc, #64]	; (80032c4 <MX_GPIO_Init+0x174>)
 8003282:	f7fe ff57 	bl	8002134 <LL_GPIO_SetPinMode>

  /**/
  LL_GPIO_SetPinMode(GPIOB, LL_GPIO_PIN_14, LL_GPIO_MODE_FLOATING);
 8003286:	2204      	movs	r2, #4
 8003288:	4917      	ldr	r1, [pc, #92]	; (80032e8 <MX_GPIO_Init+0x198>)
 800328a:	480e      	ldr	r0, [pc, #56]	; (80032c4 <MX_GPIO_Init+0x174>)
 800328c:	f7fe ff52 	bl	8002134 <LL_GPIO_SetPinMode>

  /* EXTI interrupt init*/
  NVIC_SetPriority(EXTI15_10_IRQn, NVIC_EncodePriority(NVIC_GetPriorityGrouping(),2, 0));
 8003290:	f7fe f81e 	bl	80012d0 <__NVIC_GetPriorityGrouping>
 8003294:	4603      	mov	r3, r0
 8003296:	2200      	movs	r2, #0
 8003298:	2102      	movs	r1, #2
 800329a:	4618      	mov	r0, r3
 800329c:	f7fe f86c 	bl	8001378 <NVIC_EncodePriority>
 80032a0:	4603      	mov	r3, r0
 80032a2:	4619      	mov	r1, r3
 80032a4:	2028      	movs	r0, #40	; 0x28
 80032a6:	f7fe f83d 	bl	8001324 <__NVIC_SetPriority>
  NVIC_EnableIRQ(EXTI15_10_IRQn);
 80032aa:	2028      	movs	r0, #40	; 0x28
 80032ac:	f7fe f81e 	bl	80012ec <__NVIC_EnableIRQ>

}
 80032b0:	bf00      	nop
 80032b2:	3720      	adds	r7, #32
 80032b4:	46bd      	mov	sp, r7
 80032b6:	bd80      	pop	{r7, pc}
 80032b8:	04200020 	.word	0x04200020
 80032bc:	40011000 	.word	0x40011000
 80032c0:	04800080 	.word	0x04800080
 80032c4:	40010c00 	.word	0x40010c00
 80032c8:	040a000a 	.word	0x040a000a
 80032cc:	40010800 	.word	0x40010800
 80032d0:	04020002 	.word	0x04020002
 80032d4:	04080008 	.word	0x04080008
 80032d8:	000f0003 	.word	0x000f0003
 80032dc:	00f00003 	.word	0x00f00003
 80032e0:	0f000003 	.word	0x0f000003
 80032e4:	04100010 	.word	0x04100010
 80032e8:	04400040 	.word	0x04400040

080032ec <Sensor_Convert_A2D>:
  {
    Sensor_Threshold[i] = (BlackValue[i] + WhiteValue[i]) / 2;
  }
}
void Sensor_Convert_A2D()
{
 80032ec:	b480      	push	{r7}
 80032ee:	b083      	sub	sp, #12
 80032f0:	af00      	add	r7, sp, #0
	LineDetect = 0;
 80032f2:	4b15      	ldr	r3, [pc, #84]	; (8003348 <Sensor_Convert_A2D+0x5c>)
 80032f4:	2200      	movs	r2, #0
 80032f6:	701a      	strb	r2, [r3, #0]
  for (int i = 0; i < 8; ++i)
 80032f8:	2300      	movs	r3, #0
 80032fa:	607b      	str	r3, [r7, #4]
 80032fc:	e01c      	b.n	8003338 <Sensor_Convert_A2D+0x4c>
  {
    if (Sensor_ADC_Value[i] < Sensor_Threshold[i])
 80032fe:	4a13      	ldr	r2, [pc, #76]	; (800334c <Sensor_Convert_A2D+0x60>)
 8003300:	687b      	ldr	r3, [r7, #4]
 8003302:	f832 3013 	ldrh.w	r3, [r2, r3, lsl #1]
 8003306:	b29a      	uxth	r2, r3
 8003308:	4911      	ldr	r1, [pc, #68]	; (8003350 <Sensor_Convert_A2D+0x64>)
 800330a:	687b      	ldr	r3, [r7, #4]
 800330c:	f831 3013 	ldrh.w	r3, [r1, r3, lsl #1]
 8003310:	429a      	cmp	r2, r3
 8003312:	d20e      	bcs.n	8003332 <Sensor_Convert_A2D+0x46>
    {
      sbi(LineDetect, (7 - i));
 8003314:	687b      	ldr	r3, [r7, #4]
 8003316:	f1c3 0307 	rsb	r3, r3, #7
 800331a:	2201      	movs	r2, #1
 800331c:	fa02 f303 	lsl.w	r3, r2, r3
 8003320:	b25a      	sxtb	r2, r3
 8003322:	4b09      	ldr	r3, [pc, #36]	; (8003348 <Sensor_Convert_A2D+0x5c>)
 8003324:	781b      	ldrb	r3, [r3, #0]
 8003326:	b25b      	sxtb	r3, r3
 8003328:	4313      	orrs	r3, r2
 800332a:	b25b      	sxtb	r3, r3
 800332c:	b2da      	uxtb	r2, r3
 800332e:	4b06      	ldr	r3, [pc, #24]	; (8003348 <Sensor_Convert_A2D+0x5c>)
 8003330:	701a      	strb	r2, [r3, #0]
  for (int i = 0; i < 8; ++i)
 8003332:	687b      	ldr	r3, [r7, #4]
 8003334:	3301      	adds	r3, #1
 8003336:	607b      	str	r3, [r7, #4]
 8003338:	687b      	ldr	r3, [r7, #4]
 800333a:	2b07      	cmp	r3, #7
 800333c:	dddf      	ble.n	80032fe <Sensor_Convert_A2D+0x12>
      //			  printf("1 ");
    }
  };
  //	printf("\n");
  //	LL_mDelay(500);
}
 800333e:	bf00      	nop
 8003340:	370c      	adds	r7, #12
 8003342:	46bd      	mov	sp, r7
 8003344:	bc80      	pop	{r7}
 8003346:	4770      	bx	lr
 8003348:	20000205 	.word	0x20000205
 800334c:	20000220 	.word	0x20000220
 8003350:	20000000 	.word	0x20000000
 8003354:	00000000 	.word	0x00000000

08003358 <Car_BamLine_Process>:
    Servo_SetAngle(ServoAngle);
    printf("Servo Angle: %g \n", ServoAngle);
  }
}
void Car_BamLine_Process()
{
 8003358:	b598      	push	{r3, r4, r7, lr}
 800335a:	af00      	add	r7, sp, #0
  if (CarState == LechTrai)
 800335c:	4bc6      	ldr	r3, [pc, #792]	; (8003678 <Car_BamLine_Process+0x320>)
 800335e:	f993 3000 	ldrsb.w	r3, [r3]
 8003362:	f1b3 3fff 	cmp.w	r3, #4294967295
 8003366:	f040 81bb 	bne.w	80036e0 <Car_BamLine_Process+0x388>
  {
    switch (LineDetect)
 800336a:	4bc4      	ldr	r3, [pc, #784]	; (800367c <Car_BamLine_Process+0x324>)
 800336c:	781b      	ldrb	r3, [r3, #0]
 800336e:	2b08      	cmp	r3, #8
 8003370:	f000 8198 	beq.w	80036a4 <Car_BamLine_Process+0x34c>
 8003374:	2b08      	cmp	r3, #8
 8003376:	dc0e      	bgt.n	8003396 <Car_BamLine_Process+0x3e>
 8003378:	2b01      	cmp	r3, #1
 800337a:	f000 80a2 	beq.w	80034c2 <Car_BamLine_Process+0x16a>
 800337e:	2b01      	cmp	r3, #1
 8003380:	dc02      	bgt.n	8003388 <Car_BamLine_Process+0x30>
 8003382:	2b00      	cmp	r3, #0
 8003384:	d071      	beq.n	800346a <Car_BamLine_Process+0x112>
      //			  case 0b00011100:
      //				  MotorR_SetPWM(MaxSpeed * 0.95);
      //				  MotorL_SetPWM(MaxSpeed * 1);
      //				  Servo_SetAngle(4);
    }
    return;
 8003386:	e391      	b.n	8003aac <Car_BamLine_Process+0x754>
    switch (LineDetect)
 8003388:	2b03      	cmp	r3, #3
 800338a:	f000 80c6 	beq.w	800351a <Car_BamLine_Process+0x1c2>
 800338e:	2b07      	cmp	r3, #7
 8003390:	f000 80e0 	beq.w	8003554 <Car_BamLine_Process+0x1fc>
    return;
 8003394:	e38a      	b.n	8003aac <Car_BamLine_Process+0x754>
    switch (LineDetect)
 8003396:	2b1c      	cmp	r3, #28
 8003398:	f000 8116 	beq.w	80035c8 <Car_BamLine_Process+0x270>
 800339c:	2b1c      	cmp	r3, #28
 800339e:	dc06      	bgt.n	80033ae <Car_BamLine_Process+0x56>
 80033a0:	2b0c      	cmp	r3, #12
 80033a2:	f000 812e 	beq.w	8003602 <Car_BamLine_Process+0x2aa>
 80033a6:	2b0e      	cmp	r3, #14
 80033a8:	f000 80f1 	beq.w	800358e <Car_BamLine_Process+0x236>
    return;
 80033ac:	e37e      	b.n	8003aac <Car_BamLine_Process+0x754>
    switch (LineDetect)
 80033ae:	2b80      	cmp	r3, #128	; 0x80
 80033b0:	d02e      	beq.n	8003410 <Car_BamLine_Process+0xb8>
 80033b2:	2bc0      	cmp	r3, #192	; 0xc0
 80033b4:	d000      	beq.n	80033b8 <Car_BamLine_Process+0x60>
    return;
 80033b6:	e379      	b.n	8003aac <Car_BamLine_Process+0x754>
      MotorR_SetPWM(MaxSpeed * 0.6);
 80033b8:	4bb1      	ldr	r3, [pc, #708]	; (8003680 <Car_BamLine_Process+0x328>)
 80033ba:	881b      	ldrh	r3, [r3, #0]
 80033bc:	4618      	mov	r0, r3
 80033be:	f7fd f821 	bl	8000404 <__aeabi_i2d>
 80033c2:	a39f      	add	r3, pc, #636	; (adr r3, 8003640 <Car_BamLine_Process+0x2e8>)
 80033c4:	e9d3 2300 	ldrd	r2, r3, [r3]
 80033c8:	f7fd f886 	bl	80004d8 <__aeabi_dmul>
 80033cc:	4603      	mov	r3, r0
 80033ce:	460c      	mov	r4, r1
 80033d0:	4618      	mov	r0, r3
 80033d2:	4621      	mov	r1, r4
 80033d4:	f7fd fb30 	bl	8000a38 <__aeabi_d2iz>
 80033d8:	4603      	mov	r3, r0
 80033da:	4618      	mov	r0, r3
 80033dc:	f7fd fede 	bl	800119c <MotorR_SetPWM>
      MotorL_SetPWM(MaxSpeed * 0.8);
 80033e0:	4ba7      	ldr	r3, [pc, #668]	; (8003680 <Car_BamLine_Process+0x328>)
 80033e2:	881b      	ldrh	r3, [r3, #0]
 80033e4:	4618      	mov	r0, r3
 80033e6:	f7fd f80d 	bl	8000404 <__aeabi_i2d>
 80033ea:	a397      	add	r3, pc, #604	; (adr r3, 8003648 <Car_BamLine_Process+0x2f0>)
 80033ec:	e9d3 2300 	ldrd	r2, r3, [r3]
 80033f0:	f7fd f872 	bl	80004d8 <__aeabi_dmul>
 80033f4:	4603      	mov	r3, r0
 80033f6:	460c      	mov	r4, r1
 80033f8:	4618      	mov	r0, r3
 80033fa:	4621      	mov	r1, r4
 80033fc:	f7fd fb1c 	bl	8000a38 <__aeabi_d2iz>
 8003400:	4603      	mov	r3, r0
 8003402:	4618      	mov	r0, r3
 8003404:	f7fd fe92 	bl	800112c <MotorL_SetPWM>
      Servo_SetAngle(73); // 9
 8003408:	489e      	ldr	r0, [pc, #632]	; (8003684 <Car_BamLine_Process+0x32c>)
 800340a:	f7fd feff 	bl	800120c <Servo_SetAngle>
      break;
 800340e:	e166      	b.n	80036de <Car_BamLine_Process+0x386>
      MotorR_SetPWM(MaxSpeed * 0.70);
 8003410:	4b9b      	ldr	r3, [pc, #620]	; (8003680 <Car_BamLine_Process+0x328>)
 8003412:	881b      	ldrh	r3, [r3, #0]
 8003414:	4618      	mov	r0, r3
 8003416:	f7fc fff5 	bl	8000404 <__aeabi_i2d>
 800341a:	a38d      	add	r3, pc, #564	; (adr r3, 8003650 <Car_BamLine_Process+0x2f8>)
 800341c:	e9d3 2300 	ldrd	r2, r3, [r3]
 8003420:	f7fd f85a 	bl	80004d8 <__aeabi_dmul>
 8003424:	4603      	mov	r3, r0
 8003426:	460c      	mov	r4, r1
 8003428:	4618      	mov	r0, r3
 800342a:	4621      	mov	r1, r4
 800342c:	f7fd fb04 	bl	8000a38 <__aeabi_d2iz>
 8003430:	4603      	mov	r3, r0
 8003432:	4618      	mov	r0, r3
 8003434:	f7fd feb2 	bl	800119c <MotorR_SetPWM>
      MotorL_SetPWM(MaxSpeed * 0.85);
 8003438:	4b91      	ldr	r3, [pc, #580]	; (8003680 <Car_BamLine_Process+0x328>)
 800343a:	881b      	ldrh	r3, [r3, #0]
 800343c:	4618      	mov	r0, r3
 800343e:	f7fc ffe1 	bl	8000404 <__aeabi_i2d>
 8003442:	a385      	add	r3, pc, #532	; (adr r3, 8003658 <Car_BamLine_Process+0x300>)
 8003444:	e9d3 2300 	ldrd	r2, r3, [r3]
 8003448:	f7fd f846 	bl	80004d8 <__aeabi_dmul>
 800344c:	4603      	mov	r3, r0
 800344e:	460c      	mov	r4, r1
 8003450:	4618      	mov	r0, r3
 8003452:	4621      	mov	r1, r4
 8003454:	f7fd faf0 	bl	8000a38 <__aeabi_d2iz>
 8003458:	4603      	mov	r3, r0
 800345a:	4618      	mov	r0, r3
 800345c:	f7fd fe66 	bl	800112c <MotorL_SetPWM>
      Servo_SetAngle(64); // 69
 8003460:	f04f 4085 	mov.w	r0, #1115684864	; 0x42800000
 8003464:	f7fd fed2 	bl	800120c <Servo_SetAngle>
      break;
 8003468:	e139      	b.n	80036de <Car_BamLine_Process+0x386>
      MotorR_SetPWM(MaxSpeed * 0.80);
 800346a:	4b85      	ldr	r3, [pc, #532]	; (8003680 <Car_BamLine_Process+0x328>)
 800346c:	881b      	ldrh	r3, [r3, #0]
 800346e:	4618      	mov	r0, r3
 8003470:	f7fc ffc8 	bl	8000404 <__aeabi_i2d>
 8003474:	a374      	add	r3, pc, #464	; (adr r3, 8003648 <Car_BamLine_Process+0x2f0>)
 8003476:	e9d3 2300 	ldrd	r2, r3, [r3]
 800347a:	f7fd f82d 	bl	80004d8 <__aeabi_dmul>
 800347e:	4603      	mov	r3, r0
 8003480:	460c      	mov	r4, r1
 8003482:	4618      	mov	r0, r3
 8003484:	4621      	mov	r1, r4
 8003486:	f7fd fad7 	bl	8000a38 <__aeabi_d2iz>
 800348a:	4603      	mov	r3, r0
 800348c:	4618      	mov	r0, r3
 800348e:	f7fd fe85 	bl	800119c <MotorR_SetPWM>
      MotorL_SetPWM(MaxSpeed * 0.95);
 8003492:	4b7b      	ldr	r3, [pc, #492]	; (8003680 <Car_BamLine_Process+0x328>)
 8003494:	881b      	ldrh	r3, [r3, #0]
 8003496:	4618      	mov	r0, r3
 8003498:	f7fc ffb4 	bl	8000404 <__aeabi_i2d>
 800349c:	a370      	add	r3, pc, #448	; (adr r3, 8003660 <Car_BamLine_Process+0x308>)
 800349e:	e9d3 2300 	ldrd	r2, r3, [r3]
 80034a2:	f7fd f819 	bl	80004d8 <__aeabi_dmul>
 80034a6:	4603      	mov	r3, r0
 80034a8:	460c      	mov	r4, r1
 80034aa:	4618      	mov	r0, r3
 80034ac:	4621      	mov	r1, r4
 80034ae:	f7fd fac3 	bl	8000a38 <__aeabi_d2iz>
 80034b2:	4603      	mov	r3, r0
 80034b4:	4618      	mov	r0, r3
 80034b6:	f7fd fe39 	bl	800112c <MotorL_SetPWM>
      Servo_SetAngle(59); // 43
 80034ba:	4873      	ldr	r0, [pc, #460]	; (8003688 <Car_BamLine_Process+0x330>)
 80034bc:	f7fd fea6 	bl	800120c <Servo_SetAngle>
      break;
 80034c0:	e10d      	b.n	80036de <Car_BamLine_Process+0x386>
      MotorR_SetPWM(MaxSpeed * 0.85);
 80034c2:	4b6f      	ldr	r3, [pc, #444]	; (8003680 <Car_BamLine_Process+0x328>)
 80034c4:	881b      	ldrh	r3, [r3, #0]
 80034c6:	4618      	mov	r0, r3
 80034c8:	f7fc ff9c 	bl	8000404 <__aeabi_i2d>
 80034cc:	a362      	add	r3, pc, #392	; (adr r3, 8003658 <Car_BamLine_Process+0x300>)
 80034ce:	e9d3 2300 	ldrd	r2, r3, [r3]
 80034d2:	f7fd f801 	bl	80004d8 <__aeabi_dmul>
 80034d6:	4603      	mov	r3, r0
 80034d8:	460c      	mov	r4, r1
 80034da:	4618      	mov	r0, r3
 80034dc:	4621      	mov	r1, r4
 80034de:	f7fd faab 	bl	8000a38 <__aeabi_d2iz>
 80034e2:	4603      	mov	r3, r0
 80034e4:	4618      	mov	r0, r3
 80034e6:	f7fd fe59 	bl	800119c <MotorR_SetPWM>
      MotorL_SetPWM(MaxSpeed * 0.95);
 80034ea:	4b65      	ldr	r3, [pc, #404]	; (8003680 <Car_BamLine_Process+0x328>)
 80034ec:	881b      	ldrh	r3, [r3, #0]
 80034ee:	4618      	mov	r0, r3
 80034f0:	f7fc ff88 	bl	8000404 <__aeabi_i2d>
 80034f4:	a35a      	add	r3, pc, #360	; (adr r3, 8003660 <Car_BamLine_Process+0x308>)
 80034f6:	e9d3 2300 	ldrd	r2, r3, [r3]
 80034fa:	f7fc ffed 	bl	80004d8 <__aeabi_dmul>
 80034fe:	4603      	mov	r3, r0
 8003500:	460c      	mov	r4, r1
 8003502:	4618      	mov	r0, r3
 8003504:	4621      	mov	r1, r4
 8003506:	f7fd fa97 	bl	8000a38 <__aeabi_d2iz>
 800350a:	4603      	mov	r3, r0
 800350c:	4618      	mov	r0, r3
 800350e:	f7fd fe0d 	bl	800112c <MotorL_SetPWM>
      Servo_SetAngle(40); // 45
 8003512:	485e      	ldr	r0, [pc, #376]	; (800368c <Car_BamLine_Process+0x334>)
 8003514:	f7fd fe7a 	bl	800120c <Servo_SetAngle>
      break;
 8003518:	e0e1      	b.n	80036de <Car_BamLine_Process+0x386>
      MotorR_SetPWM(MaxSpeed * 0.85);
 800351a:	4b59      	ldr	r3, [pc, #356]	; (8003680 <Car_BamLine_Process+0x328>)
 800351c:	881b      	ldrh	r3, [r3, #0]
 800351e:	4618      	mov	r0, r3
 8003520:	f7fc ff70 	bl	8000404 <__aeabi_i2d>
 8003524:	a34c      	add	r3, pc, #304	; (adr r3, 8003658 <Car_BamLine_Process+0x300>)
 8003526:	e9d3 2300 	ldrd	r2, r3, [r3]
 800352a:	f7fc ffd5 	bl	80004d8 <__aeabi_dmul>
 800352e:	4603      	mov	r3, r0
 8003530:	460c      	mov	r4, r1
 8003532:	4618      	mov	r0, r3
 8003534:	4621      	mov	r1, r4
 8003536:	f7fd fa7f 	bl	8000a38 <__aeabi_d2iz>
 800353a:	4603      	mov	r3, r0
 800353c:	4618      	mov	r0, r3
 800353e:	f7fd fe2d 	bl	800119c <MotorR_SetPWM>
      MotorL_SetPWM(MaxSpeed * 1);
 8003542:	4b4f      	ldr	r3, [pc, #316]	; (8003680 <Car_BamLine_Process+0x328>)
 8003544:	881b      	ldrh	r3, [r3, #0]
 8003546:	4618      	mov	r0, r3
 8003548:	f7fd fdf0 	bl	800112c <MotorL_SetPWM>
      Servo_SetAngle(33); //26
 800354c:	4850      	ldr	r0, [pc, #320]	; (8003690 <Car_BamLine_Process+0x338>)
 800354e:	f7fd fe5d 	bl	800120c <Servo_SetAngle>
      break;
 8003552:	e0c4      	b.n	80036de <Car_BamLine_Process+0x386>
      MotorR_SetPWM(MaxSpeed * 0.90);
 8003554:	4b4a      	ldr	r3, [pc, #296]	; (8003680 <Car_BamLine_Process+0x328>)
 8003556:	881b      	ldrh	r3, [r3, #0]
 8003558:	4618      	mov	r0, r3
 800355a:	f7fc ff53 	bl	8000404 <__aeabi_i2d>
 800355e:	a342      	add	r3, pc, #264	; (adr r3, 8003668 <Car_BamLine_Process+0x310>)
 8003560:	e9d3 2300 	ldrd	r2, r3, [r3]
 8003564:	f7fc ffb8 	bl	80004d8 <__aeabi_dmul>
 8003568:	4603      	mov	r3, r0
 800356a:	460c      	mov	r4, r1
 800356c:	4618      	mov	r0, r3
 800356e:	4621      	mov	r1, r4
 8003570:	f7fd fa62 	bl	8000a38 <__aeabi_d2iz>
 8003574:	4603      	mov	r3, r0
 8003576:	4618      	mov	r0, r3
 8003578:	f7fd fe10 	bl	800119c <MotorR_SetPWM>
      MotorL_SetPWM(MaxSpeed * 1);
 800357c:	4b40      	ldr	r3, [pc, #256]	; (8003680 <Car_BamLine_Process+0x328>)
 800357e:	881b      	ldrh	r3, [r3, #0]
 8003580:	4618      	mov	r0, r3
 8003582:	f7fd fdd3 	bl	800112c <MotorL_SetPWM>
      Servo_SetAngle(25); // 18
 8003586:	4843      	ldr	r0, [pc, #268]	; (8003694 <Car_BamLine_Process+0x33c>)
 8003588:	f7fd fe40 	bl	800120c <Servo_SetAngle>
      break;
 800358c:	e0a7      	b.n	80036de <Car_BamLine_Process+0x386>
      MotorR_SetPWM(MaxSpeed * 0.93);
 800358e:	4b3c      	ldr	r3, [pc, #240]	; (8003680 <Car_BamLine_Process+0x328>)
 8003590:	881b      	ldrh	r3, [r3, #0]
 8003592:	4618      	mov	r0, r3
 8003594:	f7fc ff36 	bl	8000404 <__aeabi_i2d>
 8003598:	a335      	add	r3, pc, #212	; (adr r3, 8003670 <Car_BamLine_Process+0x318>)
 800359a:	e9d3 2300 	ldrd	r2, r3, [r3]
 800359e:	f7fc ff9b 	bl	80004d8 <__aeabi_dmul>
 80035a2:	4603      	mov	r3, r0
 80035a4:	460c      	mov	r4, r1
 80035a6:	4618      	mov	r0, r3
 80035a8:	4621      	mov	r1, r4
 80035aa:	f7fd fa45 	bl	8000a38 <__aeabi_d2iz>
 80035ae:	4603      	mov	r3, r0
 80035b0:	4618      	mov	r0, r3
 80035b2:	f7fd fdf3 	bl	800119c <MotorR_SetPWM>
      MotorL_SetPWM(MaxSpeed * 1);
 80035b6:	4b32      	ldr	r3, [pc, #200]	; (8003680 <Car_BamLine_Process+0x328>)
 80035b8:	881b      	ldrh	r3, [r3, #0]
 80035ba:	4618      	mov	r0, r3
 80035bc:	f7fd fdb6 	bl	800112c <MotorL_SetPWM>
      Servo_SetAngle(20); //11
 80035c0:	4835      	ldr	r0, [pc, #212]	; (8003698 <Car_BamLine_Process+0x340>)
 80035c2:	f7fd fe23 	bl	800120c <Servo_SetAngle>
      break;
 80035c6:	e08a      	b.n	80036de <Car_BamLine_Process+0x386>
      MotorR_SetPWM(MaxSpeed * 0.93);
 80035c8:	4b2d      	ldr	r3, [pc, #180]	; (8003680 <Car_BamLine_Process+0x328>)
 80035ca:	881b      	ldrh	r3, [r3, #0]
 80035cc:	4618      	mov	r0, r3
 80035ce:	f7fc ff19 	bl	8000404 <__aeabi_i2d>
 80035d2:	a327      	add	r3, pc, #156	; (adr r3, 8003670 <Car_BamLine_Process+0x318>)
 80035d4:	e9d3 2300 	ldrd	r2, r3, [r3]
 80035d8:	f7fc ff7e 	bl	80004d8 <__aeabi_dmul>
 80035dc:	4603      	mov	r3, r0
 80035de:	460c      	mov	r4, r1
 80035e0:	4618      	mov	r0, r3
 80035e2:	4621      	mov	r1, r4
 80035e4:	f7fd fa28 	bl	8000a38 <__aeabi_d2iz>
 80035e8:	4603      	mov	r3, r0
 80035ea:	4618      	mov	r0, r3
 80035ec:	f7fd fdd6 	bl	800119c <MotorR_SetPWM>
      MotorL_SetPWM(MaxSpeed * 1);
 80035f0:	4b23      	ldr	r3, [pc, #140]	; (8003680 <Car_BamLine_Process+0x328>)
 80035f2:	881b      	ldrh	r3, [r3, #0]
 80035f4:	4618      	mov	r0, r3
 80035f6:	f7fd fd99 	bl	800112c <MotorL_SetPWM>
      Servo_SetAngle(15); //
 80035fa:	4828      	ldr	r0, [pc, #160]	; (800369c <Car_BamLine_Process+0x344>)
 80035fc:	f7fd fe06 	bl	800120c <Servo_SetAngle>
      break;
 8003600:	e06d      	b.n	80036de <Car_BamLine_Process+0x386>
      MotorR_SetPWM(MaxSpeed * 0.95);
 8003602:	4b1f      	ldr	r3, [pc, #124]	; (8003680 <Car_BamLine_Process+0x328>)
 8003604:	881b      	ldrh	r3, [r3, #0]
 8003606:	4618      	mov	r0, r3
 8003608:	f7fc fefc 	bl	8000404 <__aeabi_i2d>
 800360c:	a314      	add	r3, pc, #80	; (adr r3, 8003660 <Car_BamLine_Process+0x308>)
 800360e:	e9d3 2300 	ldrd	r2, r3, [r3]
 8003612:	f7fc ff61 	bl	80004d8 <__aeabi_dmul>
 8003616:	4603      	mov	r3, r0
 8003618:	460c      	mov	r4, r1
 800361a:	4618      	mov	r0, r3
 800361c:	4621      	mov	r1, r4
 800361e:	f7fd fa0b 	bl	8000a38 <__aeabi_d2iz>
 8003622:	4603      	mov	r3, r0
 8003624:	4618      	mov	r0, r3
 8003626:	f7fd fdb9 	bl	800119c <MotorR_SetPWM>
      MotorL_SetPWM(MaxSpeed * 1);
 800362a:	4b15      	ldr	r3, [pc, #84]	; (8003680 <Car_BamLine_Process+0x328>)
 800362c:	881b      	ldrh	r3, [r3, #0]
 800362e:	4618      	mov	r0, r3
 8003630:	f7fd fd7c 	bl	800112c <MotorL_SetPWM>
      Servo_SetAngle(10);
 8003634:	481a      	ldr	r0, [pc, #104]	; (80036a0 <Car_BamLine_Process+0x348>)
 8003636:	f7fd fde9 	bl	800120c <Servo_SetAngle>
      break;
 800363a:	e050      	b.n	80036de <Car_BamLine_Process+0x386>
 800363c:	f3af 8000 	nop.w
 8003640:	33333333 	.word	0x33333333
 8003644:	3fe33333 	.word	0x3fe33333
 8003648:	9999999a 	.word	0x9999999a
 800364c:	3fe99999 	.word	0x3fe99999
 8003650:	66666666 	.word	0x66666666
 8003654:	3fe66666 	.word	0x3fe66666
 8003658:	33333333 	.word	0x33333333
 800365c:	3feb3333 	.word	0x3feb3333
 8003660:	66666666 	.word	0x66666666
 8003664:	3fee6666 	.word	0x3fee6666
 8003668:	cccccccd 	.word	0xcccccccd
 800366c:	3feccccc 	.word	0x3feccccc
 8003670:	5c28f5c3 	.word	0x5c28f5c3
 8003674:	3fedc28f 	.word	0x3fedc28f
 8003678:	20000206 	.word	0x20000206
 800367c:	20000205 	.word	0x20000205
 8003680:	20000010 	.word	0x20000010
 8003684:	42920000 	.word	0x42920000
 8003688:	426c0000 	.word	0x426c0000
 800368c:	42200000 	.word	0x42200000
 8003690:	42040000 	.word	0x42040000
 8003694:	41c80000 	.word	0x41c80000
 8003698:	41a00000 	.word	0x41a00000
 800369c:	41700000 	.word	0x41700000
 80036a0:	41200000 	.word	0x41200000
      MotorL_SetPWM(MaxSpeed * 0.98);
 80036a4:	4bca      	ldr	r3, [pc, #808]	; (80039d0 <Car_BamLine_Process+0x678>)
 80036a6:	881b      	ldrh	r3, [r3, #0]
 80036a8:	4618      	mov	r0, r3
 80036aa:	f7fc feab 	bl	8000404 <__aeabi_i2d>
 80036ae:	a3b6      	add	r3, pc, #728	; (adr r3, 8003988 <Car_BamLine_Process+0x630>)
 80036b0:	e9d3 2300 	ldrd	r2, r3, [r3]
 80036b4:	f7fc ff10 	bl	80004d8 <__aeabi_dmul>
 80036b8:	4603      	mov	r3, r0
 80036ba:	460c      	mov	r4, r1
 80036bc:	4618      	mov	r0, r3
 80036be:	4621      	mov	r1, r4
 80036c0:	f7fd f9ba 	bl	8000a38 <__aeabi_d2iz>
 80036c4:	4603      	mov	r3, r0
 80036c6:	4618      	mov	r0, r3
 80036c8:	f7fd fd30 	bl	800112c <MotorL_SetPWM>
      MotorR_SetPWM(MaxSpeed * 1);
 80036cc:	4bc0      	ldr	r3, [pc, #768]	; (80039d0 <Car_BamLine_Process+0x678>)
 80036ce:	881b      	ldrh	r3, [r3, #0]
 80036d0:	4618      	mov	r0, r3
 80036d2:	f7fd fd63 	bl	800119c <MotorR_SetPWM>
      Servo_SetAngle(6);
 80036d6:	48bf      	ldr	r0, [pc, #764]	; (80039d4 <Car_BamLine_Process+0x67c>)
 80036d8:	f7fd fd98 	bl	800120c <Servo_SetAngle>
      break;
 80036dc:	bf00      	nop
    return;
 80036de:	e1e5      	b.n	8003aac <Car_BamLine_Process+0x754>
  };
  if (CarState == LechPhai)
 80036e0:	4bbd      	ldr	r3, [pc, #756]	; (80039d8 <Car_BamLine_Process+0x680>)
 80036e2:	f993 3000 	ldrsb.w	r3, [r3]
 80036e6:	2b01      	cmp	r3, #1
 80036e8:	f040 81e0 	bne.w	8003aac <Car_BamLine_Process+0x754>
  {
    switch (LineDetect)
 80036ec:	4bbb      	ldr	r3, [pc, #748]	; (80039dc <Car_BamLine_Process+0x684>)
 80036ee:	781b      	ldrb	r3, [r3, #0]
 80036f0:	2b30      	cmp	r3, #48	; 0x30
 80036f2:	f000 81a0 	beq.w	8003a36 <Car_BamLine_Process+0x6de>
 80036f6:	2b30      	cmp	r3, #48	; 0x30
 80036f8:	dc0c      	bgt.n	8003714 <Car_BamLine_Process+0x3bc>
 80036fa:	2b01      	cmp	r3, #1
 80036fc:	d049      	beq.n	8003792 <Car_BamLine_Process+0x43a>
 80036fe:	2b01      	cmp	r3, #1
 8003700:	dc02      	bgt.n	8003708 <Car_BamLine_Process+0x3b0>
 8003702:	2b00      	cmp	r3, #0
 8003704:	d071      	beq.n	80037ea <Car_BamLine_Process+0x492>
      //			  case 0b00111000:
      //				  MotorL_SetPWM(MaxSpeed * 0.95);
      //				  MotorR_SetPWM(MaxSpeed * 1);
      //				  Servo_SetAngle(-0);
    }
    return;
 8003706:	e1d1      	b.n	8003aac <Car_BamLine_Process+0x754>
    switch (LineDetect)
 8003708:	2b03      	cmp	r3, #3
 800370a:	d016      	beq.n	800373a <Car_BamLine_Process+0x3e2>
 800370c:	2b10      	cmp	r3, #16
 800370e:	f000 81af 	beq.w	8003a70 <Car_BamLine_Process+0x718>
    return;
 8003712:	e1cb      	b.n	8003aac <Car_BamLine_Process+0x754>
    switch (LineDetect)
 8003714:	2b80      	cmp	r3, #128	; 0x80
 8003716:	f000 8094 	beq.w	8003842 <Car_BamLine_Process+0x4ea>
 800371a:	2b80      	cmp	r3, #128	; 0x80
 800371c:	dc06      	bgt.n	800372c <Car_BamLine_Process+0x3d4>
 800371e:	2b60      	cmp	r3, #96	; 0x60
 8003720:	f000 8113 	beq.w	800394a <Car_BamLine_Process+0x5f2>
 8003724:	2b70      	cmp	r3, #112	; 0x70
 8003726:	f000 8169 	beq.w	80039fc <Car_BamLine_Process+0x6a4>
    return;
 800372a:	e1bf      	b.n	8003aac <Car_BamLine_Process+0x754>
    switch (LineDetect)
 800372c:	2bc0      	cmp	r3, #192	; 0xc0
 800372e:	f000 80b4 	beq.w	800389a <Car_BamLine_Process+0x542>
 8003732:	2be0      	cmp	r3, #224	; 0xe0
 8003734:	f000 80dd 	beq.w	80038f2 <Car_BamLine_Process+0x59a>
    return;
 8003738:	e1b8      	b.n	8003aac <Car_BamLine_Process+0x754>
      MotorR_SetPWM(MaxSpeed * 0.6);
 800373a:	4ba5      	ldr	r3, [pc, #660]	; (80039d0 <Car_BamLine_Process+0x678>)
 800373c:	881b      	ldrh	r3, [r3, #0]
 800373e:	4618      	mov	r0, r3
 8003740:	f7fc fe60 	bl	8000404 <__aeabi_i2d>
 8003744:	a392      	add	r3, pc, #584	; (adr r3, 8003990 <Car_BamLine_Process+0x638>)
 8003746:	e9d3 2300 	ldrd	r2, r3, [r3]
 800374a:	f7fc fec5 	bl	80004d8 <__aeabi_dmul>
 800374e:	4603      	mov	r3, r0
 8003750:	460c      	mov	r4, r1
 8003752:	4618      	mov	r0, r3
 8003754:	4621      	mov	r1, r4
 8003756:	f7fd f96f 	bl	8000a38 <__aeabi_d2iz>
 800375a:	4603      	mov	r3, r0
 800375c:	4618      	mov	r0, r3
 800375e:	f7fd fd1d 	bl	800119c <MotorR_SetPWM>
      MotorL_SetPWM(MaxSpeed * 0.8);
 8003762:	4b9b      	ldr	r3, [pc, #620]	; (80039d0 <Car_BamLine_Process+0x678>)
 8003764:	881b      	ldrh	r3, [r3, #0]
 8003766:	4618      	mov	r0, r3
 8003768:	f7fc fe4c 	bl	8000404 <__aeabi_i2d>
 800376c:	a38a      	add	r3, pc, #552	; (adr r3, 8003998 <Car_BamLine_Process+0x640>)
 800376e:	e9d3 2300 	ldrd	r2, r3, [r3]
 8003772:	f7fc feb1 	bl	80004d8 <__aeabi_dmul>
 8003776:	4603      	mov	r3, r0
 8003778:	460c      	mov	r4, r1
 800377a:	4618      	mov	r0, r3
 800377c:	4621      	mov	r1, r4
 800377e:	f7fd f95b 	bl	8000a38 <__aeabi_d2iz>
 8003782:	4603      	mov	r3, r0
 8003784:	4618      	mov	r0, r3
 8003786:	f7fd fcd1 	bl	800112c <MotorL_SetPWM>
      Servo_SetAngle(-67);// -72
 800378a:	4895      	ldr	r0, [pc, #596]	; (80039e0 <Car_BamLine_Process+0x688>)
 800378c:	f7fd fd3e 	bl	800120c <Servo_SetAngle>
      break;
 8003790:	e18b      	b.n	8003aaa <Car_BamLine_Process+0x752>
      MotorL_SetPWM(MaxSpeed * 0.70);
 8003792:	4b8f      	ldr	r3, [pc, #572]	; (80039d0 <Car_BamLine_Process+0x678>)
 8003794:	881b      	ldrh	r3, [r3, #0]
 8003796:	4618      	mov	r0, r3
 8003798:	f7fc fe34 	bl	8000404 <__aeabi_i2d>
 800379c:	a380      	add	r3, pc, #512	; (adr r3, 80039a0 <Car_BamLine_Process+0x648>)
 800379e:	e9d3 2300 	ldrd	r2, r3, [r3]
 80037a2:	f7fc fe99 	bl	80004d8 <__aeabi_dmul>
 80037a6:	4603      	mov	r3, r0
 80037a8:	460c      	mov	r4, r1
 80037aa:	4618      	mov	r0, r3
 80037ac:	4621      	mov	r1, r4
 80037ae:	f7fd f943 	bl	8000a38 <__aeabi_d2iz>
 80037b2:	4603      	mov	r3, r0
 80037b4:	4618      	mov	r0, r3
 80037b6:	f7fd fcb9 	bl	800112c <MotorL_SetPWM>
      MotorR_SetPWM(MaxSpeed * 0.85);
 80037ba:	4b85      	ldr	r3, [pc, #532]	; (80039d0 <Car_BamLine_Process+0x678>)
 80037bc:	881b      	ldrh	r3, [r3, #0]
 80037be:	4618      	mov	r0, r3
 80037c0:	f7fc fe20 	bl	8000404 <__aeabi_i2d>
 80037c4:	a378      	add	r3, pc, #480	; (adr r3, 80039a8 <Car_BamLine_Process+0x650>)
 80037c6:	e9d3 2300 	ldrd	r2, r3, [r3]
 80037ca:	f7fc fe85 	bl	80004d8 <__aeabi_dmul>
 80037ce:	4603      	mov	r3, r0
 80037d0:	460c      	mov	r4, r1
 80037d2:	4618      	mov	r0, r3
 80037d4:	4621      	mov	r1, r4
 80037d6:	f7fd f92f 	bl	8000a38 <__aeabi_d2iz>
 80037da:	4603      	mov	r3, r0
 80037dc:	4618      	mov	r0, r3
 80037de:	f7fd fcdd 	bl	800119c <MotorR_SetPWM>
      Servo_SetAngle(-62); // -69
 80037e2:	4880      	ldr	r0, [pc, #512]	; (80039e4 <Car_BamLine_Process+0x68c>)
 80037e4:	f7fd fd12 	bl	800120c <Servo_SetAngle>
      break;
 80037e8:	e15f      	b.n	8003aaa <Car_BamLine_Process+0x752>
      MotorL_SetPWM(MaxSpeed * 0.85);
 80037ea:	4b79      	ldr	r3, [pc, #484]	; (80039d0 <Car_BamLine_Process+0x678>)
 80037ec:	881b      	ldrh	r3, [r3, #0]
 80037ee:	4618      	mov	r0, r3
 80037f0:	f7fc fe08 	bl	8000404 <__aeabi_i2d>
 80037f4:	a36c      	add	r3, pc, #432	; (adr r3, 80039a8 <Car_BamLine_Process+0x650>)
 80037f6:	e9d3 2300 	ldrd	r2, r3, [r3]
 80037fa:	f7fc fe6d 	bl	80004d8 <__aeabi_dmul>
 80037fe:	4603      	mov	r3, r0
 8003800:	460c      	mov	r4, r1
 8003802:	4618      	mov	r0, r3
 8003804:	4621      	mov	r1, r4
 8003806:	f7fd f917 	bl	8000a38 <__aeabi_d2iz>
 800380a:	4603      	mov	r3, r0
 800380c:	4618      	mov	r0, r3
 800380e:	f7fd fc8d 	bl	800112c <MotorL_SetPWM>
      MotorR_SetPWM(MaxSpeed * 0.90);
 8003812:	4b6f      	ldr	r3, [pc, #444]	; (80039d0 <Car_BamLine_Process+0x678>)
 8003814:	881b      	ldrh	r3, [r3, #0]
 8003816:	4618      	mov	r0, r3
 8003818:	f7fc fdf4 	bl	8000404 <__aeabi_i2d>
 800381c:	a364      	add	r3, pc, #400	; (adr r3, 80039b0 <Car_BamLine_Process+0x658>)
 800381e:	e9d3 2300 	ldrd	r2, r3, [r3]
 8003822:	f7fc fe59 	bl	80004d8 <__aeabi_dmul>
 8003826:	4603      	mov	r3, r0
 8003828:	460c      	mov	r4, r1
 800382a:	4618      	mov	r0, r3
 800382c:	4621      	mov	r1, r4
 800382e:	f7fd f903 	bl	8000a38 <__aeabi_d2iz>
 8003832:	4603      	mov	r3, r0
 8003834:	4618      	mov	r0, r3
 8003836:	f7fd fcb1 	bl	800119c <MotorR_SetPWM>
      Servo_SetAngle(-48);
 800383a:	486b      	ldr	r0, [pc, #428]	; (80039e8 <Car_BamLine_Process+0x690>)
 800383c:	f7fd fce6 	bl	800120c <Servo_SetAngle>
      break;
 8003840:	e133      	b.n	8003aaa <Car_BamLine_Process+0x752>
      MotorL_SetPWM(MaxSpeed * 0.83);
 8003842:	4b63      	ldr	r3, [pc, #396]	; (80039d0 <Car_BamLine_Process+0x678>)
 8003844:	881b      	ldrh	r3, [r3, #0]
 8003846:	4618      	mov	r0, r3
 8003848:	f7fc fddc 	bl	8000404 <__aeabi_i2d>
 800384c:	a35a      	add	r3, pc, #360	; (adr r3, 80039b8 <Car_BamLine_Process+0x660>)
 800384e:	e9d3 2300 	ldrd	r2, r3, [r3]
 8003852:	f7fc fe41 	bl	80004d8 <__aeabi_dmul>
 8003856:	4603      	mov	r3, r0
 8003858:	460c      	mov	r4, r1
 800385a:	4618      	mov	r0, r3
 800385c:	4621      	mov	r1, r4
 800385e:	f7fd f8eb 	bl	8000a38 <__aeabi_d2iz>
 8003862:	4603      	mov	r3, r0
 8003864:	4618      	mov	r0, r3
 8003866:	f7fd fc61 	bl	800112c <MotorL_SetPWM>
      MotorR_SetPWM(MaxSpeed * 0.95);
 800386a:	4b59      	ldr	r3, [pc, #356]	; (80039d0 <Car_BamLine_Process+0x678>)
 800386c:	881b      	ldrh	r3, [r3, #0]
 800386e:	4618      	mov	r0, r3
 8003870:	f7fc fdc8 	bl	8000404 <__aeabi_i2d>
 8003874:	a352      	add	r3, pc, #328	; (adr r3, 80039c0 <Car_BamLine_Process+0x668>)
 8003876:	e9d3 2300 	ldrd	r2, r3, [r3]
 800387a:	f7fc fe2d 	bl	80004d8 <__aeabi_dmul>
 800387e:	4603      	mov	r3, r0
 8003880:	460c      	mov	r4, r1
 8003882:	4618      	mov	r0, r3
 8003884:	4621      	mov	r1, r4
 8003886:	f7fd f8d7 	bl	8000a38 <__aeabi_d2iz>
 800388a:	4603      	mov	r3, r0
 800388c:	4618      	mov	r0, r3
 800388e:	f7fd fc85 	bl	800119c <MotorR_SetPWM>
      Servo_SetAngle(-43);
 8003892:	4856      	ldr	r0, [pc, #344]	; (80039ec <Car_BamLine_Process+0x694>)
 8003894:	f7fd fcba 	bl	800120c <Servo_SetAngle>
      break;
 8003898:	e107      	b.n	8003aaa <Car_BamLine_Process+0x752>
      MotorL_SetPWM(MaxSpeed * 0.87);
 800389a:	4b4d      	ldr	r3, [pc, #308]	; (80039d0 <Car_BamLine_Process+0x678>)
 800389c:	881b      	ldrh	r3, [r3, #0]
 800389e:	4618      	mov	r0, r3
 80038a0:	f7fc fdb0 	bl	8000404 <__aeabi_i2d>
 80038a4:	a348      	add	r3, pc, #288	; (adr r3, 80039c8 <Car_BamLine_Process+0x670>)
 80038a6:	e9d3 2300 	ldrd	r2, r3, [r3]
 80038aa:	f7fc fe15 	bl	80004d8 <__aeabi_dmul>
 80038ae:	4603      	mov	r3, r0
 80038b0:	460c      	mov	r4, r1
 80038b2:	4618      	mov	r0, r3
 80038b4:	4621      	mov	r1, r4
 80038b6:	f7fd f8bf 	bl	8000a38 <__aeabi_d2iz>
 80038ba:	4603      	mov	r3, r0
 80038bc:	4618      	mov	r0, r3
 80038be:	f7fd fc35 	bl	800112c <MotorL_SetPWM>
      MotorR_SetPWM(MaxSpeed * 0.95);
 80038c2:	4b43      	ldr	r3, [pc, #268]	; (80039d0 <Car_BamLine_Process+0x678>)
 80038c4:	881b      	ldrh	r3, [r3, #0]
 80038c6:	4618      	mov	r0, r3
 80038c8:	f7fc fd9c 	bl	8000404 <__aeabi_i2d>
 80038cc:	a33c      	add	r3, pc, #240	; (adr r3, 80039c0 <Car_BamLine_Process+0x668>)
 80038ce:	e9d3 2300 	ldrd	r2, r3, [r3]
 80038d2:	f7fc fe01 	bl	80004d8 <__aeabi_dmul>
 80038d6:	4603      	mov	r3, r0
 80038d8:	460c      	mov	r4, r1
 80038da:	4618      	mov	r0, r3
 80038dc:	4621      	mov	r1, r4
 80038de:	f7fd f8ab 	bl	8000a38 <__aeabi_d2iz>
 80038e2:	4603      	mov	r3, r0
 80038e4:	4618      	mov	r0, r3
 80038e6:	f7fd fc59 	bl	800119c <MotorR_SetPWM>
      Servo_SetAngle(-35);
 80038ea:	4841      	ldr	r0, [pc, #260]	; (80039f0 <Car_BamLine_Process+0x698>)
 80038ec:	f7fd fc8e 	bl	800120c <Servo_SetAngle>
      break;
 80038f0:	e0db      	b.n	8003aaa <Car_BamLine_Process+0x752>
      MotorL_SetPWM(MaxSpeed * 0.90);
 80038f2:	4b37      	ldr	r3, [pc, #220]	; (80039d0 <Car_BamLine_Process+0x678>)
 80038f4:	881b      	ldrh	r3, [r3, #0]
 80038f6:	4618      	mov	r0, r3
 80038f8:	f7fc fd84 	bl	8000404 <__aeabi_i2d>
 80038fc:	a32c      	add	r3, pc, #176	; (adr r3, 80039b0 <Car_BamLine_Process+0x658>)
 80038fe:	e9d3 2300 	ldrd	r2, r3, [r3]
 8003902:	f7fc fde9 	bl	80004d8 <__aeabi_dmul>
 8003906:	4603      	mov	r3, r0
 8003908:	460c      	mov	r4, r1
 800390a:	4618      	mov	r0, r3
 800390c:	4621      	mov	r1, r4
 800390e:	f7fd f893 	bl	8000a38 <__aeabi_d2iz>
 8003912:	4603      	mov	r3, r0
 8003914:	4618      	mov	r0, r3
 8003916:	f7fd fc09 	bl	800112c <MotorL_SetPWM>
      MotorR_SetPWM(MaxSpeed * 0.95);
 800391a:	4b2d      	ldr	r3, [pc, #180]	; (80039d0 <Car_BamLine_Process+0x678>)
 800391c:	881b      	ldrh	r3, [r3, #0]
 800391e:	4618      	mov	r0, r3
 8003920:	f7fc fd70 	bl	8000404 <__aeabi_i2d>
 8003924:	a326      	add	r3, pc, #152	; (adr r3, 80039c0 <Car_BamLine_Process+0x668>)
 8003926:	e9d3 2300 	ldrd	r2, r3, [r3]
 800392a:	f7fc fdd5 	bl	80004d8 <__aeabi_dmul>
 800392e:	4603      	mov	r3, r0
 8003930:	460c      	mov	r4, r1
 8003932:	4618      	mov	r0, r3
 8003934:	4621      	mov	r1, r4
 8003936:	f7fd f87f 	bl	8000a38 <__aeabi_d2iz>
 800393a:	4603      	mov	r3, r0
 800393c:	4618      	mov	r0, r3
 800393e:	f7fd fc2d 	bl	800119c <MotorR_SetPWM>
      Servo_SetAngle(-27);
 8003942:	482c      	ldr	r0, [pc, #176]	; (80039f4 <Car_BamLine_Process+0x69c>)
 8003944:	f7fd fc62 	bl	800120c <Servo_SetAngle>
      break;
 8003948:	e0af      	b.n	8003aaa <Car_BamLine_Process+0x752>
	 MotorL_SetPWM(MaxSpeed * 0.87);
 800394a:	4b21      	ldr	r3, [pc, #132]	; (80039d0 <Car_BamLine_Process+0x678>)
 800394c:	881b      	ldrh	r3, [r3, #0]
 800394e:	4618      	mov	r0, r3
 8003950:	f7fc fd58 	bl	8000404 <__aeabi_i2d>
 8003954:	a31c      	add	r3, pc, #112	; (adr r3, 80039c8 <Car_BamLine_Process+0x670>)
 8003956:	e9d3 2300 	ldrd	r2, r3, [r3]
 800395a:	f7fc fdbd 	bl	80004d8 <__aeabi_dmul>
 800395e:	4603      	mov	r3, r0
 8003960:	460c      	mov	r4, r1
 8003962:	4618      	mov	r0, r3
 8003964:	4621      	mov	r1, r4
 8003966:	f7fd f867 	bl	8000a38 <__aeabi_d2iz>
 800396a:	4603      	mov	r3, r0
 800396c:	4618      	mov	r0, r3
 800396e:	f7fd fbdd 	bl	800112c <MotorL_SetPWM>
	  MotorR_SetPWM(MaxSpeed * 1);
 8003972:	4b17      	ldr	r3, [pc, #92]	; (80039d0 <Car_BamLine_Process+0x678>)
 8003974:	881b      	ldrh	r3, [r3, #0]
 8003976:	4618      	mov	r0, r3
 8003978:	f7fd fc10 	bl	800119c <MotorR_SetPWM>
	  Servo_SetAngle(-24);
 800397c:	481e      	ldr	r0, [pc, #120]	; (80039f8 <Car_BamLine_Process+0x6a0>)
 800397e:	f7fd fc45 	bl	800120c <Servo_SetAngle>
	  break;
 8003982:	e092      	b.n	8003aaa <Car_BamLine_Process+0x752>
 8003984:	f3af 8000 	nop.w
 8003988:	f5c28f5c 	.word	0xf5c28f5c
 800398c:	3fef5c28 	.word	0x3fef5c28
 8003990:	33333333 	.word	0x33333333
 8003994:	3fe33333 	.word	0x3fe33333
 8003998:	9999999a 	.word	0x9999999a
 800399c:	3fe99999 	.word	0x3fe99999
 80039a0:	66666666 	.word	0x66666666
 80039a4:	3fe66666 	.word	0x3fe66666
 80039a8:	33333333 	.word	0x33333333
 80039ac:	3feb3333 	.word	0x3feb3333
 80039b0:	cccccccd 	.word	0xcccccccd
 80039b4:	3feccccc 	.word	0x3feccccc
 80039b8:	28f5c28f 	.word	0x28f5c28f
 80039bc:	3fea8f5c 	.word	0x3fea8f5c
 80039c0:	66666666 	.word	0x66666666
 80039c4:	3fee6666 	.word	0x3fee6666
 80039c8:	3d70a3d7 	.word	0x3d70a3d7
 80039cc:	3febd70a 	.word	0x3febd70a
 80039d0:	20000010 	.word	0x20000010
 80039d4:	40c00000 	.word	0x40c00000
 80039d8:	20000206 	.word	0x20000206
 80039dc:	20000205 	.word	0x20000205
 80039e0:	c2860000 	.word	0xc2860000
 80039e4:	c2780000 	.word	0xc2780000
 80039e8:	c2400000 	.word	0xc2400000
 80039ec:	c22c0000 	.word	0xc22c0000
 80039f0:	c20c0000 	.word	0xc20c0000
 80039f4:	c1d80000 	.word	0xc1d80000
 80039f8:	c1c00000 	.word	0xc1c00000
      MotorL_SetPWM(MaxSpeed * 0.90);
 80039fc:	4b32      	ldr	r3, [pc, #200]	; (8003ac8 <Car_BamLine_Process+0x770>)
 80039fe:	881b      	ldrh	r3, [r3, #0]
 8003a00:	4618      	mov	r0, r3
 8003a02:	f7fc fcff 	bl	8000404 <__aeabi_i2d>
 8003a06:	a32a      	add	r3, pc, #168	; (adr r3, 8003ab0 <Car_BamLine_Process+0x758>)
 8003a08:	e9d3 2300 	ldrd	r2, r3, [r3]
 8003a0c:	f7fc fd64 	bl	80004d8 <__aeabi_dmul>
 8003a10:	4603      	mov	r3, r0
 8003a12:	460c      	mov	r4, r1
 8003a14:	4618      	mov	r0, r3
 8003a16:	4621      	mov	r1, r4
 8003a18:	f7fd f80e 	bl	8000a38 <__aeabi_d2iz>
 8003a1c:	4603      	mov	r3, r0
 8003a1e:	4618      	mov	r0, r3
 8003a20:	f7fd fb84 	bl	800112c <MotorL_SetPWM>
      MotorR_SetPWM(MaxSpeed * 1);
 8003a24:	4b28      	ldr	r3, [pc, #160]	; (8003ac8 <Car_BamLine_Process+0x770>)
 8003a26:	881b      	ldrh	r3, [r3, #0]
 8003a28:	4618      	mov	r0, r3
 8003a2a:	f7fd fbb7 	bl	800119c <MotorR_SetPWM>
      Servo_SetAngle(-22);
 8003a2e:	4827      	ldr	r0, [pc, #156]	; (8003acc <Car_BamLine_Process+0x774>)
 8003a30:	f7fd fbec 	bl	800120c <Servo_SetAngle>
      break;
 8003a34:	e039      	b.n	8003aaa <Car_BamLine_Process+0x752>
      MotorL_SetPWM(MaxSpeed * 0.95);
 8003a36:	4b24      	ldr	r3, [pc, #144]	; (8003ac8 <Car_BamLine_Process+0x770>)
 8003a38:	881b      	ldrh	r3, [r3, #0]
 8003a3a:	4618      	mov	r0, r3
 8003a3c:	f7fc fce2 	bl	8000404 <__aeabi_i2d>
 8003a40:	a31d      	add	r3, pc, #116	; (adr r3, 8003ab8 <Car_BamLine_Process+0x760>)
 8003a42:	e9d3 2300 	ldrd	r2, r3, [r3]
 8003a46:	f7fc fd47 	bl	80004d8 <__aeabi_dmul>
 8003a4a:	4603      	mov	r3, r0
 8003a4c:	460c      	mov	r4, r1
 8003a4e:	4618      	mov	r0, r3
 8003a50:	4621      	mov	r1, r4
 8003a52:	f7fc fff1 	bl	8000a38 <__aeabi_d2iz>
 8003a56:	4603      	mov	r3, r0
 8003a58:	4618      	mov	r0, r3
 8003a5a:	f7fd fb67 	bl	800112c <MotorL_SetPWM>
      MotorR_SetPWM(MaxSpeed * 1);
 8003a5e:	4b1a      	ldr	r3, [pc, #104]	; (8003ac8 <Car_BamLine_Process+0x770>)
 8003a60:	881b      	ldrh	r3, [r3, #0]
 8003a62:	4618      	mov	r0, r3
 8003a64:	f7fd fb9a 	bl	800119c <MotorR_SetPWM>
      Servo_SetAngle(-13);
 8003a68:	4819      	ldr	r0, [pc, #100]	; (8003ad0 <Car_BamLine_Process+0x778>)
 8003a6a:	f7fd fbcf 	bl	800120c <Servo_SetAngle>
      break;
 8003a6e:	e01c      	b.n	8003aaa <Car_BamLine_Process+0x752>
      MotorL_SetPWM(MaxSpeed * 0.98);
 8003a70:	4b15      	ldr	r3, [pc, #84]	; (8003ac8 <Car_BamLine_Process+0x770>)
 8003a72:	881b      	ldrh	r3, [r3, #0]
 8003a74:	4618      	mov	r0, r3
 8003a76:	f7fc fcc5 	bl	8000404 <__aeabi_i2d>
 8003a7a:	a311      	add	r3, pc, #68	; (adr r3, 8003ac0 <Car_BamLine_Process+0x768>)
 8003a7c:	e9d3 2300 	ldrd	r2, r3, [r3]
 8003a80:	f7fc fd2a 	bl	80004d8 <__aeabi_dmul>
 8003a84:	4603      	mov	r3, r0
 8003a86:	460c      	mov	r4, r1
 8003a88:	4618      	mov	r0, r3
 8003a8a:	4621      	mov	r1, r4
 8003a8c:	f7fc ffd4 	bl	8000a38 <__aeabi_d2iz>
 8003a90:	4603      	mov	r3, r0
 8003a92:	4618      	mov	r0, r3
 8003a94:	f7fd fb4a 	bl	800112c <MotorL_SetPWM>
      MotorR_SetPWM(MaxSpeed * 1);
 8003a98:	4b0b      	ldr	r3, [pc, #44]	; (8003ac8 <Car_BamLine_Process+0x770>)
 8003a9a:	881b      	ldrh	r3, [r3, #0]
 8003a9c:	4618      	mov	r0, r3
 8003a9e:	f7fd fb7d 	bl	800119c <MotorR_SetPWM>
      Servo_SetAngle(-5);
 8003aa2:	480c      	ldr	r0, [pc, #48]	; (8003ad4 <Car_BamLine_Process+0x77c>)
 8003aa4:	f7fd fbb2 	bl	800120c <Servo_SetAngle>
      break;
 8003aa8:	bf00      	nop
    return;
 8003aaa:	bf00      	nop
  }
}
 8003aac:	bd98      	pop	{r3, r4, r7, pc}
 8003aae:	bf00      	nop
 8003ab0:	cccccccd 	.word	0xcccccccd
 8003ab4:	3feccccc 	.word	0x3feccccc
 8003ab8:	66666666 	.word	0x66666666
 8003abc:	3fee6666 	.word	0x3fee6666
 8003ac0:	f5c28f5c 	.word	0xf5c28f5c
 8003ac4:	3fef5c28 	.word	0x3fef5c28
 8003ac8:	20000010 	.word	0x20000010
 8003acc:	c1b00000 	.word	0xc1b00000
 8003ad0:	c1500000 	.word	0xc1500000
 8003ad4:	c0a00000 	.word	0xc0a00000

08003ad8 <Car_MatLine_Process>:

void Car_MatLine_Process()
{
 8003ad8:	b598      	push	{r3, r4, r7, lr}
 8003ada:	af00      	add	r7, sp, #0
  switch (LineDetect)
 8003adc:	4b36      	ldr	r3, [pc, #216]	; (8003bb8 <Car_MatLine_Process+0xe0>)
 8003ade:	781b      	ldrb	r3, [r3, #0]
 8003ae0:	2b80      	cmp	r3, #128	; 0x80
 8003ae2:	d002      	beq.n	8003aea <Car_MatLine_Process+0x12>
 8003ae4:	2bc0      	cmp	r3, #192	; 0xc0
 8003ae6:	d02c      	beq.n	8003b42 <Car_MatLine_Process+0x6a>
    MotorL_SetPWM(MaxSpeed * 1.7);
    Servo_SetAngle(20);
    break;

  }
}
 8003ae8:	e057      	b.n	8003b9a <Car_MatLine_Process+0xc2>
	  MotorR_SetPWM(MaxSpeed * 1.7);
 8003aea:	4b34      	ldr	r3, [pc, #208]	; (8003bbc <Car_MatLine_Process+0xe4>)
 8003aec:	881b      	ldrh	r3, [r3, #0]
 8003aee:	4618      	mov	r0, r3
 8003af0:	f7fc fc88 	bl	8000404 <__aeabi_i2d>
 8003af4:	a32a      	add	r3, pc, #168	; (adr r3, 8003ba0 <Car_MatLine_Process+0xc8>)
 8003af6:	e9d3 2300 	ldrd	r2, r3, [r3]
 8003afa:	f7fc fced 	bl	80004d8 <__aeabi_dmul>
 8003afe:	4603      	mov	r3, r0
 8003b00:	460c      	mov	r4, r1
 8003b02:	4618      	mov	r0, r3
 8003b04:	4621      	mov	r1, r4
 8003b06:	f7fc ff97 	bl	8000a38 <__aeabi_d2iz>
 8003b0a:	4603      	mov	r3, r0
 8003b0c:	4618      	mov	r0, r3
 8003b0e:	f7fd fb45 	bl	800119c <MotorR_SetPWM>
	  MotorL_SetPWM(MaxSpeed * 1.8);
 8003b12:	4b2a      	ldr	r3, [pc, #168]	; (8003bbc <Car_MatLine_Process+0xe4>)
 8003b14:	881b      	ldrh	r3, [r3, #0]
 8003b16:	4618      	mov	r0, r3
 8003b18:	f7fc fc74 	bl	8000404 <__aeabi_i2d>
 8003b1c:	a322      	add	r3, pc, #136	; (adr r3, 8003ba8 <Car_MatLine_Process+0xd0>)
 8003b1e:	e9d3 2300 	ldrd	r2, r3, [r3]
 8003b22:	f7fc fcd9 	bl	80004d8 <__aeabi_dmul>
 8003b26:	4603      	mov	r3, r0
 8003b28:	460c      	mov	r4, r1
 8003b2a:	4618      	mov	r0, r3
 8003b2c:	4621      	mov	r1, r4
 8003b2e:	f7fc ff83 	bl	8000a38 <__aeabi_d2iz>
 8003b32:	4603      	mov	r3, r0
 8003b34:	4618      	mov	r0, r3
 8003b36:	f7fd faf9 	bl	800112c <MotorL_SetPWM>
	  Servo_SetAngle(18);
 8003b3a:	4821      	ldr	r0, [pc, #132]	; (8003bc0 <Car_MatLine_Process+0xe8>)
 8003b3c:	f7fd fb66 	bl	800120c <Servo_SetAngle>
	  break;
 8003b40:	e02b      	b.n	8003b9a <Car_MatLine_Process+0xc2>
    MotorR_SetPWM(MaxSpeed * 1.9);
 8003b42:	4b1e      	ldr	r3, [pc, #120]	; (8003bbc <Car_MatLine_Process+0xe4>)
 8003b44:	881b      	ldrh	r3, [r3, #0]
 8003b46:	4618      	mov	r0, r3
 8003b48:	f7fc fc5c 	bl	8000404 <__aeabi_i2d>
 8003b4c:	a318      	add	r3, pc, #96	; (adr r3, 8003bb0 <Car_MatLine_Process+0xd8>)
 8003b4e:	e9d3 2300 	ldrd	r2, r3, [r3]
 8003b52:	f7fc fcc1 	bl	80004d8 <__aeabi_dmul>
 8003b56:	4603      	mov	r3, r0
 8003b58:	460c      	mov	r4, r1
 8003b5a:	4618      	mov	r0, r3
 8003b5c:	4621      	mov	r1, r4
 8003b5e:	f7fc ff6b 	bl	8000a38 <__aeabi_d2iz>
 8003b62:	4603      	mov	r3, r0
 8003b64:	4618      	mov	r0, r3
 8003b66:	f7fd fb19 	bl	800119c <MotorR_SetPWM>
    MotorL_SetPWM(MaxSpeed * 1.7);
 8003b6a:	4b14      	ldr	r3, [pc, #80]	; (8003bbc <Car_MatLine_Process+0xe4>)
 8003b6c:	881b      	ldrh	r3, [r3, #0]
 8003b6e:	4618      	mov	r0, r3
 8003b70:	f7fc fc48 	bl	8000404 <__aeabi_i2d>
 8003b74:	a30a      	add	r3, pc, #40	; (adr r3, 8003ba0 <Car_MatLine_Process+0xc8>)
 8003b76:	e9d3 2300 	ldrd	r2, r3, [r3]
 8003b7a:	f7fc fcad 	bl	80004d8 <__aeabi_dmul>
 8003b7e:	4603      	mov	r3, r0
 8003b80:	460c      	mov	r4, r1
 8003b82:	4618      	mov	r0, r3
 8003b84:	4621      	mov	r1, r4
 8003b86:	f7fc ff57 	bl	8000a38 <__aeabi_d2iz>
 8003b8a:	4603      	mov	r3, r0
 8003b8c:	4618      	mov	r0, r3
 8003b8e:	f7fd facd 	bl	800112c <MotorL_SetPWM>
    Servo_SetAngle(20);
 8003b92:	480c      	ldr	r0, [pc, #48]	; (8003bc4 <Car_MatLine_Process+0xec>)
 8003b94:	f7fd fb3a 	bl	800120c <Servo_SetAngle>
    break;
 8003b98:	bf00      	nop
}
 8003b9a:	bf00      	nop
 8003b9c:	bd98      	pop	{r3, r4, r7, pc}
 8003b9e:	bf00      	nop
 8003ba0:	33333333 	.word	0x33333333
 8003ba4:	3ffb3333 	.word	0x3ffb3333
 8003ba8:	cccccccd 	.word	0xcccccccd
 8003bac:	3ffccccc 	.word	0x3ffccccc
 8003bb0:	66666666 	.word	0x66666666
 8003bb4:	3ffe6666 	.word	0x3ffe6666
 8003bb8:	20000205 	.word	0x20000205
 8003bbc:	20000010 	.word	0x20000010
 8003bc0:	41900000 	.word	0x41900000
 8003bc4:	41a00000 	.word	0x41a00000

08003bc8 <Car_ChuyenLanePhai_Process>:
void Car_ChuyenLanePhai_Process()
{
 8003bc8:	b598      	push	{r3, r4, r7, lr}
 8003bca:	af00      	add	r7, sp, #0
	MaxSpeed = MaximumSpeed;
 8003bcc:	4b1c      	ldr	r3, [pc, #112]	; (8003c40 <Car_ChuyenLanePhai_Process+0x78>)
 8003bce:	f44f 52e1 	mov.w	r2, #7200	; 0x1c20
 8003bd2:	801a      	strh	r2, [r3, #0]
	MotorL_SetPWM(MaxSpeed * 0.70);
 8003bd4:	4b1a      	ldr	r3, [pc, #104]	; (8003c40 <Car_ChuyenLanePhai_Process+0x78>)
 8003bd6:	881b      	ldrh	r3, [r3, #0]
 8003bd8:	4618      	mov	r0, r3
 8003bda:	f7fc fc13 	bl	8000404 <__aeabi_i2d>
 8003bde:	a316      	add	r3, pc, #88	; (adr r3, 8003c38 <Car_ChuyenLanePhai_Process+0x70>)
 8003be0:	e9d3 2300 	ldrd	r2, r3, [r3]
 8003be4:	f7fc fc78 	bl	80004d8 <__aeabi_dmul>
 8003be8:	4603      	mov	r3, r0
 8003bea:	460c      	mov	r4, r1
 8003bec:	4618      	mov	r0, r3
 8003bee:	4621      	mov	r1, r4
 8003bf0:	f7fc ff22 	bl	8000a38 <__aeabi_d2iz>
 8003bf4:	4603      	mov	r3, r0
 8003bf6:	4618      	mov	r0, r3
 8003bf8:	f7fd fa98 	bl	800112c <MotorL_SetPWM>
	MotorR_SetPWM(MaxSpeed * 0.5);
 8003bfc:	4b10      	ldr	r3, [pc, #64]	; (8003c40 <Car_ChuyenLanePhai_Process+0x78>)
 8003bfe:	881b      	ldrh	r3, [r3, #0]
 8003c00:	4618      	mov	r0, r3
 8003c02:	f7fc fbff 	bl	8000404 <__aeabi_i2d>
 8003c06:	f04f 0200 	mov.w	r2, #0
 8003c0a:	4b0e      	ldr	r3, [pc, #56]	; (8003c44 <Car_ChuyenLanePhai_Process+0x7c>)
 8003c0c:	f7fc fc64 	bl	80004d8 <__aeabi_dmul>
 8003c10:	4603      	mov	r3, r0
 8003c12:	460c      	mov	r4, r1
 8003c14:	4618      	mov	r0, r3
 8003c16:	4621      	mov	r1, r4
 8003c18:	f7fc ff0e 	bl	8000a38 <__aeabi_d2iz>
 8003c1c:	4603      	mov	r3, r0
 8003c1e:	4618      	mov	r0, r3
 8003c20:	f7fd fabc 	bl	800119c <MotorR_SetPWM>
	Servo_SetAngle(50);
 8003c24:	4808      	ldr	r0, [pc, #32]	; (8003c48 <Car_ChuyenLanePhai_Process+0x80>)
 8003c26:	f7fd faf1 	bl	800120c <Servo_SetAngle>
	CarState = LechTrai;
 8003c2a:	4b08      	ldr	r3, [pc, #32]	; (8003c4c <Car_ChuyenLanePhai_Process+0x84>)
 8003c2c:	22ff      	movs	r2, #255	; 0xff
 8003c2e:	701a      	strb	r2, [r3, #0]
}
 8003c30:	bf00      	nop
 8003c32:	bd98      	pop	{r3, r4, r7, pc}
 8003c34:	f3af 8000 	nop.w
 8003c38:	66666666 	.word	0x66666666
 8003c3c:	3fe66666 	.word	0x3fe66666
 8003c40:	20000010 	.word	0x20000010
 8003c44:	3fe00000 	.word	0x3fe00000
 8003c48:	42480000 	.word	0x42480000
 8003c4c:	20000206 	.word	0x20000206

08003c50 <Car_ChuyenLaneTrai_Process>:
void Car_ChuyenLaneTrai_Process()
{
 8003c50:	b598      	push	{r3, r4, r7, lr}
 8003c52:	af00      	add	r7, sp, #0
	MaxSpeed = MaximumSpeed;
 8003c54:	4b1c      	ldr	r3, [pc, #112]	; (8003cc8 <Car_ChuyenLaneTrai_Process+0x78>)
 8003c56:	f44f 52e1 	mov.w	r2, #7200	; 0x1c20
 8003c5a:	801a      	strh	r2, [r3, #0]
	MotorR_SetPWM(MaxSpeed * 0.6);
 8003c5c:	4b1a      	ldr	r3, [pc, #104]	; (8003cc8 <Car_ChuyenLaneTrai_Process+0x78>)
 8003c5e:	881b      	ldrh	r3, [r3, #0]
 8003c60:	4618      	mov	r0, r3
 8003c62:	f7fc fbcf 	bl	8000404 <__aeabi_i2d>
 8003c66:	a316      	add	r3, pc, #88	; (adr r3, 8003cc0 <Car_ChuyenLaneTrai_Process+0x70>)
 8003c68:	e9d3 2300 	ldrd	r2, r3, [r3]
 8003c6c:	f7fc fc34 	bl	80004d8 <__aeabi_dmul>
 8003c70:	4603      	mov	r3, r0
 8003c72:	460c      	mov	r4, r1
 8003c74:	4618      	mov	r0, r3
 8003c76:	4621      	mov	r1, r4
 8003c78:	f7fc fede 	bl	8000a38 <__aeabi_d2iz>
 8003c7c:	4603      	mov	r3, r0
 8003c7e:	4618      	mov	r0, r3
 8003c80:	f7fd fa8c 	bl	800119c <MotorR_SetPWM>
	MotorL_SetPWM(MaxSpeed * 0.5);
 8003c84:	4b10      	ldr	r3, [pc, #64]	; (8003cc8 <Car_ChuyenLaneTrai_Process+0x78>)
 8003c86:	881b      	ldrh	r3, [r3, #0]
 8003c88:	4618      	mov	r0, r3
 8003c8a:	f7fc fbbb 	bl	8000404 <__aeabi_i2d>
 8003c8e:	f04f 0200 	mov.w	r2, #0
 8003c92:	4b0e      	ldr	r3, [pc, #56]	; (8003ccc <Car_ChuyenLaneTrai_Process+0x7c>)
 8003c94:	f7fc fc20 	bl	80004d8 <__aeabi_dmul>
 8003c98:	4603      	mov	r3, r0
 8003c9a:	460c      	mov	r4, r1
 8003c9c:	4618      	mov	r0, r3
 8003c9e:	4621      	mov	r1, r4
 8003ca0:	f7fc feca 	bl	8000a38 <__aeabi_d2iz>
 8003ca4:	4603      	mov	r3, r0
 8003ca6:	4618      	mov	r0, r3
 8003ca8:	f7fd fa40 	bl	800112c <MotorL_SetPWM>
	Servo_SetAngle(-50);
 8003cac:	4808      	ldr	r0, [pc, #32]	; (8003cd0 <Car_ChuyenLaneTrai_Process+0x80>)
 8003cae:	f7fd faad 	bl	800120c <Servo_SetAngle>
	CarState = LechPhai;
 8003cb2:	4b08      	ldr	r3, [pc, #32]	; (8003cd4 <Car_ChuyenLaneTrai_Process+0x84>)
 8003cb4:	2201      	movs	r2, #1
 8003cb6:	701a      	strb	r2, [r3, #0]
}
 8003cb8:	bf00      	nop
 8003cba:	bd98      	pop	{r3, r4, r7, pc}
 8003cbc:	f3af 8000 	nop.w
 8003cc0:	33333333 	.word	0x33333333
 8003cc4:	3fe33333 	.word	0x3fe33333
 8003cc8:	20000010 	.word	0x20000010
 8003ccc:	3fe00000 	.word	0x3fe00000
 8003cd0:	c2480000 	.word	0xc2480000
 8003cd4:	20000206 	.word	0x20000206

08003cd8 <Car_CuaPhai_Process>:
void Car_CuaPhai_Process()
{
 8003cd8:	b598      	push	{r3, r4, r7, lr}
 8003cda:	af00      	add	r7, sp, #0
	LL_GPIO_SetOutputPin(GPIOC, LL_GPIO_PIN_13);
 8003cdc:	4924      	ldr	r1, [pc, #144]	; (8003d70 <Car_CuaPhai_Process+0x98>)
 8003cde:	4825      	ldr	r0, [pc, #148]	; (8003d74 <Car_CuaPhai_Process+0x9c>)
 8003ce0:	f7fe fa5a 	bl	8002198 <LL_GPIO_SetOutputPin>
	Servo_SetAngle(80);
 8003ce4:	4824      	ldr	r0, [pc, #144]	; (8003d78 <Car_CuaPhai_Process+0xa0>)
 8003ce6:	f7fd fa91 	bl	800120c <Servo_SetAngle>
	MotorL_SetPWM(MaxSpeed * 1.4);
 8003cea:	4b24      	ldr	r3, [pc, #144]	; (8003d7c <Car_CuaPhai_Process+0xa4>)
 8003cec:	881b      	ldrh	r3, [r3, #0]
 8003cee:	4618      	mov	r0, r3
 8003cf0:	f7fc fb88 	bl	8000404 <__aeabi_i2d>
 8003cf4:	a31a      	add	r3, pc, #104	; (adr r3, 8003d60 <Car_CuaPhai_Process+0x88>)
 8003cf6:	e9d3 2300 	ldrd	r2, r3, [r3]
 8003cfa:	f7fc fbed 	bl	80004d8 <__aeabi_dmul>
 8003cfe:	4603      	mov	r3, r0
 8003d00:	460c      	mov	r4, r1
 8003d02:	4618      	mov	r0, r3
 8003d04:	4621      	mov	r1, r4
 8003d06:	f7fc fe97 	bl	8000a38 <__aeabi_d2iz>
 8003d0a:	4603      	mov	r3, r0
 8003d0c:	4618      	mov	r0, r3
 8003d0e:	f7fd fa0d 	bl	800112c <MotorL_SetPWM>
	MotorR_SetPWM(MaxSpeed * 1.7);
 8003d12:	4b1a      	ldr	r3, [pc, #104]	; (8003d7c <Car_CuaPhai_Process+0xa4>)
 8003d14:	881b      	ldrh	r3, [r3, #0]
 8003d16:	4618      	mov	r0, r3
 8003d18:	f7fc fb74 	bl	8000404 <__aeabi_i2d>
 8003d1c:	a312      	add	r3, pc, #72	; (adr r3, 8003d68 <Car_CuaPhai_Process+0x90>)
 8003d1e:	e9d3 2300 	ldrd	r2, r3, [r3]
 8003d22:	f7fc fbd9 	bl	80004d8 <__aeabi_dmul>
 8003d26:	4603      	mov	r3, r0
 8003d28:	460c      	mov	r4, r1
 8003d2a:	4618      	mov	r0, r3
 8003d2c:	4621      	mov	r1, r4
 8003d2e:	f7fc fe83 	bl	8000a38 <__aeabi_d2iz>
 8003d32:	4603      	mov	r3, r0
 8003d34:	4618      	mov	r0, r3
 8003d36:	f7fd fa31 	bl	800119c <MotorR_SetPWM>
	while(!(LineDetect == 0b00011000 || LineDetect == 0b00011100 || LineDetect == 0b00111000))
 8003d3a:	e001      	b.n	8003d40 <Car_CuaPhai_Process+0x68>
	{
		Sensor_Convert_A2D();
 8003d3c:	f7ff fad6 	bl	80032ec <Sensor_Convert_A2D>
	while(!(LineDetect == 0b00011000 || LineDetect == 0b00011100 || LineDetect == 0b00111000))
 8003d40:	4b0f      	ldr	r3, [pc, #60]	; (8003d80 <Car_CuaPhai_Process+0xa8>)
 8003d42:	781b      	ldrb	r3, [r3, #0]
 8003d44:	2b18      	cmp	r3, #24
 8003d46:	d007      	beq.n	8003d58 <Car_CuaPhai_Process+0x80>
 8003d48:	4b0d      	ldr	r3, [pc, #52]	; (8003d80 <Car_CuaPhai_Process+0xa8>)
 8003d4a:	781b      	ldrb	r3, [r3, #0]
 8003d4c:	2b1c      	cmp	r3, #28
 8003d4e:	d003      	beq.n	8003d58 <Car_CuaPhai_Process+0x80>
 8003d50:	4b0b      	ldr	r3, [pc, #44]	; (8003d80 <Car_CuaPhai_Process+0xa8>)
 8003d52:	781b      	ldrb	r3, [r3, #0]
 8003d54:	2b38      	cmp	r3, #56	; 0x38
 8003d56:	d1f1      	bne.n	8003d3c <Car_CuaPhai_Process+0x64>
	}
}
 8003d58:	bf00      	nop
 8003d5a:	bd98      	pop	{r3, r4, r7, pc}
 8003d5c:	f3af 8000 	nop.w
 8003d60:	66666666 	.word	0x66666666
 8003d64:	3ff66666 	.word	0x3ff66666
 8003d68:	33333333 	.word	0x33333333
 8003d6c:	3ffb3333 	.word	0x3ffb3333
 8003d70:	04200020 	.word	0x04200020
 8003d74:	40011000 	.word	0x40011000
 8003d78:	42a00000 	.word	0x42a00000
 8003d7c:	20000010 	.word	0x20000010
 8003d80:	20000205 	.word	0x20000205
 8003d84:	00000000 	.word	0x00000000

08003d88 <Car_CuaTrai_Process>:
void Car_CuaTrai_Process()
{
 8003d88:	b598      	push	{r3, r4, r7, lr}
 8003d8a:	af00      	add	r7, sp, #0
	Servo_SetAngle(-80);
 8003d8c:	4822      	ldr	r0, [pc, #136]	; (8003e18 <Car_CuaTrai_Process+0x90>)
 8003d8e:	f7fd fa3d 	bl	800120c <Servo_SetAngle>
	MotorR_SetPWM(MaxSpeed * 1.4);
 8003d92:	4b22      	ldr	r3, [pc, #136]	; (8003e1c <Car_CuaTrai_Process+0x94>)
 8003d94:	881b      	ldrh	r3, [r3, #0]
 8003d96:	4618      	mov	r0, r3
 8003d98:	f7fc fb34 	bl	8000404 <__aeabi_i2d>
 8003d9c:	a31a      	add	r3, pc, #104	; (adr r3, 8003e08 <Car_CuaTrai_Process+0x80>)
 8003d9e:	e9d3 2300 	ldrd	r2, r3, [r3]
 8003da2:	f7fc fb99 	bl	80004d8 <__aeabi_dmul>
 8003da6:	4603      	mov	r3, r0
 8003da8:	460c      	mov	r4, r1
 8003daa:	4618      	mov	r0, r3
 8003dac:	4621      	mov	r1, r4
 8003dae:	f7fc fe43 	bl	8000a38 <__aeabi_d2iz>
 8003db2:	4603      	mov	r3, r0
 8003db4:	4618      	mov	r0, r3
 8003db6:	f7fd f9f1 	bl	800119c <MotorR_SetPWM>
	MotorL_SetPWM(MaxSpeed * 1.7);
 8003dba:	4b18      	ldr	r3, [pc, #96]	; (8003e1c <Car_CuaTrai_Process+0x94>)
 8003dbc:	881b      	ldrh	r3, [r3, #0]
 8003dbe:	4618      	mov	r0, r3
 8003dc0:	f7fc fb20 	bl	8000404 <__aeabi_i2d>
 8003dc4:	a312      	add	r3, pc, #72	; (adr r3, 8003e10 <Car_CuaTrai_Process+0x88>)
 8003dc6:	e9d3 2300 	ldrd	r2, r3, [r3]
 8003dca:	f7fc fb85 	bl	80004d8 <__aeabi_dmul>
 8003dce:	4603      	mov	r3, r0
 8003dd0:	460c      	mov	r4, r1
 8003dd2:	4618      	mov	r0, r3
 8003dd4:	4621      	mov	r1, r4
 8003dd6:	f7fc fe2f 	bl	8000a38 <__aeabi_d2iz>
 8003dda:	4603      	mov	r3, r0
 8003ddc:	4618      	mov	r0, r3
 8003dde:	f7fd f9a5 	bl	800112c <MotorL_SetPWM>
	while(!(LineDetect == 0b00011000 || LineDetect == 0b00011100 || LineDetect == 0b00111000))
 8003de2:	e001      	b.n	8003de8 <Car_CuaTrai_Process+0x60>
	{
		Sensor_Convert_A2D();
 8003de4:	f7ff fa82 	bl	80032ec <Sensor_Convert_A2D>
	while(!(LineDetect == 0b00011000 || LineDetect == 0b00011100 || LineDetect == 0b00111000))
 8003de8:	4b0d      	ldr	r3, [pc, #52]	; (8003e20 <Car_CuaTrai_Process+0x98>)
 8003dea:	781b      	ldrb	r3, [r3, #0]
 8003dec:	2b18      	cmp	r3, #24
 8003dee:	d007      	beq.n	8003e00 <Car_CuaTrai_Process+0x78>
 8003df0:	4b0b      	ldr	r3, [pc, #44]	; (8003e20 <Car_CuaTrai_Process+0x98>)
 8003df2:	781b      	ldrb	r3, [r3, #0]
 8003df4:	2b1c      	cmp	r3, #28
 8003df6:	d003      	beq.n	8003e00 <Car_CuaTrai_Process+0x78>
 8003df8:	4b09      	ldr	r3, [pc, #36]	; (8003e20 <Car_CuaTrai_Process+0x98>)
 8003dfa:	781b      	ldrb	r3, [r3, #0]
 8003dfc:	2b38      	cmp	r3, #56	; 0x38
 8003dfe:	d1f1      	bne.n	8003de4 <Car_CuaTrai_Process+0x5c>
	}
}
 8003e00:	bf00      	nop
 8003e02:	bd98      	pop	{r3, r4, r7, pc}
 8003e04:	f3af 8000 	nop.w
 8003e08:	66666666 	.word	0x66666666
 8003e0c:	3ff66666 	.word	0x3ff66666
 8003e10:	33333333 	.word	0x33333333
 8003e14:	3ffb3333 	.word	0x3ffb3333
 8003e18:	c2a00000 	.word	0xc2a00000
 8003e1c:	20000010 	.word	0x20000010
 8003e20:	20000205 	.word	0x20000205

08003e24 <LL_EXTI_IsActiveFlag_0_31>:
  *         @arg @ref LL_EXTI_LINE_19
  * @note   Please check each device line mapping for EXTI Line availability
  * @retval State of bit (1 or 0).
  */
__STATIC_INLINE uint32_t LL_EXTI_IsActiveFlag_0_31(uint32_t ExtiLine)
{
 8003e24:	b480      	push	{r7}
 8003e26:	b083      	sub	sp, #12
 8003e28:	af00      	add	r7, sp, #0
 8003e2a:	6078      	str	r0, [r7, #4]
  return (READ_BIT(EXTI->PR, ExtiLine) == (ExtiLine));
 8003e2c:	4b07      	ldr	r3, [pc, #28]	; (8003e4c <LL_EXTI_IsActiveFlag_0_31+0x28>)
 8003e2e:	695a      	ldr	r2, [r3, #20]
 8003e30:	687b      	ldr	r3, [r7, #4]
 8003e32:	4013      	ands	r3, r2
 8003e34:	687a      	ldr	r2, [r7, #4]
 8003e36:	429a      	cmp	r2, r3
 8003e38:	bf0c      	ite	eq
 8003e3a:	2301      	moveq	r3, #1
 8003e3c:	2300      	movne	r3, #0
 8003e3e:	b2db      	uxtb	r3, r3
}
 8003e40:	4618      	mov	r0, r3
 8003e42:	370c      	adds	r7, #12
 8003e44:	46bd      	mov	sp, r7
 8003e46:	bc80      	pop	{r7}
 8003e48:	4770      	bx	lr
 8003e4a:	bf00      	nop
 8003e4c:	40010400 	.word	0x40010400

08003e50 <LL_EXTI_ClearFlag_0_31>:
  *         @arg @ref LL_EXTI_LINE_19
  * @note   Please check each device line mapping for EXTI Line availability
  * @retval None
  */
__STATIC_INLINE void LL_EXTI_ClearFlag_0_31(uint32_t ExtiLine)
{
 8003e50:	b480      	push	{r7}
 8003e52:	b083      	sub	sp, #12
 8003e54:	af00      	add	r7, sp, #0
 8003e56:	6078      	str	r0, [r7, #4]
  WRITE_REG(EXTI->PR, ExtiLine);
 8003e58:	4a03      	ldr	r2, [pc, #12]	; (8003e68 <LL_EXTI_ClearFlag_0_31+0x18>)
 8003e5a:	687b      	ldr	r3, [r7, #4]
 8003e5c:	6153      	str	r3, [r2, #20]
}
 8003e5e:	bf00      	nop
 8003e60:	370c      	adds	r7, #12
 8003e62:	46bd      	mov	sp, r7
 8003e64:	bc80      	pop	{r7}
 8003e66:	4770      	bx	lr
 8003e68:	40010400 	.word	0x40010400

08003e6c <LL_TIM_ClearFlag_UPDATE>:
{
 8003e6c:	b480      	push	{r7}
 8003e6e:	b083      	sub	sp, #12
 8003e70:	af00      	add	r7, sp, #0
 8003e72:	6078      	str	r0, [r7, #4]
  WRITE_REG(TIMx->SR, ~(TIM_SR_UIF));
 8003e74:	687b      	ldr	r3, [r7, #4]
 8003e76:	f06f 0201 	mvn.w	r2, #1
 8003e7a:	611a      	str	r2, [r3, #16]
}
 8003e7c:	bf00      	nop
 8003e7e:	370c      	adds	r7, #12
 8003e80:	46bd      	mov	sp, r7
 8003e82:	bc80      	pop	{r7}
 8003e84:	4770      	bx	lr

08003e86 <LL_TIM_IsActiveFlag_UPDATE>:
{
 8003e86:	b480      	push	{r7}
 8003e88:	b083      	sub	sp, #12
 8003e8a:	af00      	add	r7, sp, #0
 8003e8c:	6078      	str	r0, [r7, #4]
  return ((READ_BIT(TIMx->SR, TIM_SR_UIF) == (TIM_SR_UIF)) ? 1UL : 0UL);
 8003e8e:	687b      	ldr	r3, [r7, #4]
 8003e90:	691b      	ldr	r3, [r3, #16]
 8003e92:	f003 0301 	and.w	r3, r3, #1
 8003e96:	2b01      	cmp	r3, #1
 8003e98:	d101      	bne.n	8003e9e <LL_TIM_IsActiveFlag_UPDATE+0x18>
 8003e9a:	2301      	movs	r3, #1
 8003e9c:	e000      	b.n	8003ea0 <LL_TIM_IsActiveFlag_UPDATE+0x1a>
 8003e9e:	2300      	movs	r3, #0
}
 8003ea0:	4618      	mov	r0, r3
 8003ea2:	370c      	adds	r7, #12
 8003ea4:	46bd      	mov	sp, r7
 8003ea6:	bc80      	pop	{r7}
 8003ea8:	4770      	bx	lr

08003eaa <LL_TIM_ClearFlag_CC1>:
{
 8003eaa:	b480      	push	{r7}
 8003eac:	b083      	sub	sp, #12
 8003eae:	af00      	add	r7, sp, #0
 8003eb0:	6078      	str	r0, [r7, #4]
  WRITE_REG(TIMx->SR, ~(TIM_SR_CC1IF));
 8003eb2:	687b      	ldr	r3, [r7, #4]
 8003eb4:	f06f 0202 	mvn.w	r2, #2
 8003eb8:	611a      	str	r2, [r3, #16]
}
 8003eba:	bf00      	nop
 8003ebc:	370c      	adds	r7, #12
 8003ebe:	46bd      	mov	sp, r7
 8003ec0:	bc80      	pop	{r7}
 8003ec2:	4770      	bx	lr

08003ec4 <LL_TIM_IsActiveFlag_CC1>:
{
 8003ec4:	b480      	push	{r7}
 8003ec6:	b083      	sub	sp, #12
 8003ec8:	af00      	add	r7, sp, #0
 8003eca:	6078      	str	r0, [r7, #4]
  return ((READ_BIT(TIMx->SR, TIM_SR_CC1IF) == (TIM_SR_CC1IF)) ? 1UL : 0UL);
 8003ecc:	687b      	ldr	r3, [r7, #4]
 8003ece:	691b      	ldr	r3, [r3, #16]
 8003ed0:	f003 0302 	and.w	r3, r3, #2
 8003ed4:	2b02      	cmp	r3, #2
 8003ed6:	d101      	bne.n	8003edc <LL_TIM_IsActiveFlag_CC1+0x18>
 8003ed8:	2301      	movs	r3, #1
 8003eda:	e000      	b.n	8003ede <LL_TIM_IsActiveFlag_CC1+0x1a>
 8003edc:	2300      	movs	r3, #0
}
 8003ede:	4618      	mov	r0, r3
 8003ee0:	370c      	adds	r7, #12
 8003ee2:	46bd      	mov	sp, r7
 8003ee4:	bc80      	pop	{r7}
 8003ee6:	4770      	bx	lr

08003ee8 <LL_TIM_ClearFlag_CC2>:
{
 8003ee8:	b480      	push	{r7}
 8003eea:	b083      	sub	sp, #12
 8003eec:	af00      	add	r7, sp, #0
 8003eee:	6078      	str	r0, [r7, #4]
  WRITE_REG(TIMx->SR, ~(TIM_SR_CC2IF));
 8003ef0:	687b      	ldr	r3, [r7, #4]
 8003ef2:	f06f 0204 	mvn.w	r2, #4
 8003ef6:	611a      	str	r2, [r3, #16]
}
 8003ef8:	bf00      	nop
 8003efa:	370c      	adds	r7, #12
 8003efc:	46bd      	mov	sp, r7
 8003efe:	bc80      	pop	{r7}
 8003f00:	4770      	bx	lr

08003f02 <LL_TIM_IsActiveFlag_CC2>:
{
 8003f02:	b480      	push	{r7}
 8003f04:	b083      	sub	sp, #12
 8003f06:	af00      	add	r7, sp, #0
 8003f08:	6078      	str	r0, [r7, #4]
  return ((READ_BIT(TIMx->SR, TIM_SR_CC2IF) == (TIM_SR_CC2IF)) ? 1UL : 0UL);
 8003f0a:	687b      	ldr	r3, [r7, #4]
 8003f0c:	691b      	ldr	r3, [r3, #16]
 8003f0e:	f003 0304 	and.w	r3, r3, #4
 8003f12:	2b04      	cmp	r3, #4
 8003f14:	d101      	bne.n	8003f1a <LL_TIM_IsActiveFlag_CC2+0x18>
 8003f16:	2301      	movs	r3, #1
 8003f18:	e000      	b.n	8003f1c <LL_TIM_IsActiveFlag_CC2+0x1a>
 8003f1a:	2300      	movs	r3, #0
}
 8003f1c:	4618      	mov	r0, r3
 8003f1e:	370c      	adds	r7, #12
 8003f20:	46bd      	mov	sp, r7
 8003f22:	bc80      	pop	{r7}
 8003f24:	4770      	bx	lr

08003f26 <LL_GPIO_SetOutputPin>:
{
 8003f26:	b480      	push	{r7}
 8003f28:	b083      	sub	sp, #12
 8003f2a:	af00      	add	r7, sp, #0
 8003f2c:	6078      	str	r0, [r7, #4]
 8003f2e:	6039      	str	r1, [r7, #0]
  WRITE_REG(GPIOx->BSRR, (PinMask >> GPIO_PIN_MASK_POS) & 0x0000FFFFU);
 8003f30:	683b      	ldr	r3, [r7, #0]
 8003f32:	0a1b      	lsrs	r3, r3, #8
 8003f34:	b29a      	uxth	r2, r3
 8003f36:	687b      	ldr	r3, [r7, #4]
 8003f38:	611a      	str	r2, [r3, #16]
}
 8003f3a:	bf00      	nop
 8003f3c:	370c      	adds	r7, #12
 8003f3e:	46bd      	mov	sp, r7
 8003f40:	bc80      	pop	{r7}
 8003f42:	4770      	bx	lr

08003f44 <LL_GPIO_ResetOutputPin>:
{
 8003f44:	b480      	push	{r7}
 8003f46:	b083      	sub	sp, #12
 8003f48:	af00      	add	r7, sp, #0
 8003f4a:	6078      	str	r0, [r7, #4]
 8003f4c:	6039      	str	r1, [r7, #0]
  WRITE_REG(GPIOx->BRR, (PinMask >> GPIO_PIN_MASK_POS) & 0x0000FFFFU);
 8003f4e:	683b      	ldr	r3, [r7, #0]
 8003f50:	0a1b      	lsrs	r3, r3, #8
 8003f52:	b29a      	uxth	r2, r3
 8003f54:	687b      	ldr	r3, [r7, #4]
 8003f56:	615a      	str	r2, [r3, #20]
}
 8003f58:	bf00      	nop
 8003f5a:	370c      	adds	r7, #12
 8003f5c:	46bd      	mov	sp, r7
 8003f5e:	bc80      	pop	{r7}
 8003f60:	4770      	bx	lr

08003f62 <NMI_Handler>:
/******************************************************************************/
/**
  * @brief This function handles Non maskable interrupt.
  */
void NMI_Handler(void)
{
 8003f62:	b480      	push	{r7}
 8003f64:	af00      	add	r7, sp, #0

  /* USER CODE END NonMaskableInt_IRQn 0 */
  /* USER CODE BEGIN NonMaskableInt_IRQn 1 */

  /* USER CODE END NonMaskableInt_IRQn 1 */
}
 8003f66:	bf00      	nop
 8003f68:	46bd      	mov	sp, r7
 8003f6a:	bc80      	pop	{r7}
 8003f6c:	4770      	bx	lr

08003f6e <HardFault_Handler>:

/**
  * @brief This function handles Hard fault interrupt.
  */
void HardFault_Handler(void)
{
 8003f6e:	b480      	push	{r7}
 8003f70:	af00      	add	r7, sp, #0
  /* USER CODE BEGIN HardFault_IRQn 0 */

  /* USER CODE END HardFault_IRQn 0 */
  while (1)
 8003f72:	e7fe      	b.n	8003f72 <HardFault_Handler+0x4>

08003f74 <MemManage_Handler>:

/**
  * @brief This function handles Memory management fault.
  */
void MemManage_Handler(void)
{
 8003f74:	b480      	push	{r7}
 8003f76:	af00      	add	r7, sp, #0
  /* USER CODE BEGIN MemoryManagement_IRQn 0 */

  /* USER CODE END MemoryManagement_IRQn 0 */
  while (1)
 8003f78:	e7fe      	b.n	8003f78 <MemManage_Handler+0x4>

08003f7a <BusFault_Handler>:

/**
  * @brief This function handles Prefetch fault, memory access fault.
  */
void BusFault_Handler(void)
{
 8003f7a:	b480      	push	{r7}
 8003f7c:	af00      	add	r7, sp, #0
  /* USER CODE BEGIN BusFault_IRQn 0 */

  /* USER CODE END BusFault_IRQn 0 */
  while (1)
 8003f7e:	e7fe      	b.n	8003f7e <BusFault_Handler+0x4>

08003f80 <UsageFault_Handler>:

/**
  * @brief This function handles Undefined instruction or illegal state.
  */
void UsageFault_Handler(void)
{
 8003f80:	b480      	push	{r7}
 8003f82:	af00      	add	r7, sp, #0
  /* USER CODE BEGIN UsageFault_IRQn 0 */

  /* USER CODE END UsageFault_IRQn 0 */
  while (1)
 8003f84:	e7fe      	b.n	8003f84 <UsageFault_Handler+0x4>

08003f86 <SVC_Handler>:

/**
  * @brief This function handles System service call via SWI instruction.
  */
void SVC_Handler(void)
{
 8003f86:	b480      	push	{r7}
 8003f88:	af00      	add	r7, sp, #0

  /* USER CODE END SVCall_IRQn 0 */
  /* USER CODE BEGIN SVCall_IRQn 1 */

  /* USER CODE END SVCall_IRQn 1 */
}
 8003f8a:	bf00      	nop
 8003f8c:	46bd      	mov	sp, r7
 8003f8e:	bc80      	pop	{r7}
 8003f90:	4770      	bx	lr

08003f92 <DebugMon_Handler>:

/**
  * @brief This function handles Debug monitor.
  */
void DebugMon_Handler(void)
{
 8003f92:	b480      	push	{r7}
 8003f94:	af00      	add	r7, sp, #0

  /* USER CODE END DebugMonitor_IRQn 0 */
  /* USER CODE BEGIN DebugMonitor_IRQn 1 */

  /* USER CODE END DebugMonitor_IRQn 1 */
}
 8003f96:	bf00      	nop
 8003f98:	46bd      	mov	sp, r7
 8003f9a:	bc80      	pop	{r7}
 8003f9c:	4770      	bx	lr

08003f9e <PendSV_Handler>:

/**
  * @brief This function handles Pendable request for system service.
  */
void PendSV_Handler(void)
{
 8003f9e:	b480      	push	{r7}
 8003fa0:	af00      	add	r7, sp, #0

  /* USER CODE END PendSV_IRQn 0 */
  /* USER CODE BEGIN PendSV_IRQn 1 */

  /* USER CODE END PendSV_IRQn 1 */
}
 8003fa2:	bf00      	nop
 8003fa4:	46bd      	mov	sp, r7
 8003fa6:	bc80      	pop	{r7}
 8003fa8:	4770      	bx	lr
	...

08003fac <SysTick_Handler>:

/**
  * @brief This function handles System tick timer.
  */
void SysTick_Handler(void)
{
 8003fac:	b480      	push	{r7}
 8003fae:	af00      	add	r7, sp, #0
  /* USER CODE BEGIN SysTick_IRQn 0 */
	RunTimeMillis++;
 8003fb0:	4b04      	ldr	r3, [pc, #16]	; (8003fc4 <SysTick_Handler+0x18>)
 8003fb2:	681b      	ldr	r3, [r3, #0]
 8003fb4:	3301      	adds	r3, #1
 8003fb6:	4a03      	ldr	r2, [pc, #12]	; (8003fc4 <SysTick_Handler+0x18>)
 8003fb8:	6013      	str	r3, [r2, #0]
  /* USER CODE END SysTick_IRQn 0 */

  /* USER CODE BEGIN SysTick_IRQn 1 */

  /* USER CODE END SysTick_IRQn 1 */
}
 8003fba:	bf00      	nop
 8003fbc:	46bd      	mov	sp, r7
 8003fbe:	bc80      	pop	{r7}
 8003fc0:	4770      	bx	lr
 8003fc2:	bf00      	nop
 8003fc4:	2000020c 	.word	0x2000020c

08003fc8 <DMA1_Channel1_IRQHandler>:

/**
  * @brief This function handles DMA1 channel1 global interrupt.
  */
void DMA1_Channel1_IRQHandler(void)
{
 8003fc8:	b480      	push	{r7}
 8003fca:	af00      	add	r7, sp, #0
  /* USER CODE END DMA1_Channel1_IRQn 0 */

  /* USER CODE BEGIN DMA1_Channel1_IRQn 1 */

  /* USER CODE END DMA1_Channel1_IRQn 1 */
}
 8003fcc:	bf00      	nop
 8003fce:	46bd      	mov	sp, r7
 8003fd0:	bc80      	pop	{r7}
 8003fd2:	4770      	bx	lr

08003fd4 <TIM2_IRQHandler>:

/**
  * @brief This function handles TIM2 global interrupt.
  */
void TIM2_IRQHandler(void)
{
 8003fd4:	b580      	push	{r7, lr}
 8003fd6:	af00      	add	r7, sp, #0
  /* USER CODE BEGIN TIM2_IRQn 0 */
	LL_TIM_ClearFlag_UPDATE(TIM2);
 8003fd8:	f04f 4080 	mov.w	r0, #1073741824	; 0x40000000
 8003fdc:	f7ff ff46 	bl	8003e6c <LL_TIM_ClearFlag_UPDATE>

  /* USER CODE END TIM2_IRQn 0 */
  /* USER CODE BEGIN TIM2_IRQn 1 */

  /* USER CODE END TIM2_IRQn 1 */
}
 8003fe0:	bf00      	nop
 8003fe2:	bd80      	pop	{r7, pc}

08003fe4 <TIM3_IRQHandler>:

/**
  * @brief This function handles TIM3 global interrupt.
  */
void TIM3_IRQHandler(void)
{
 8003fe4:	b580      	push	{r7, lr}
 8003fe6:	af00      	add	r7, sp, #0
  /* USER CODE BEGIN TIM3_IRQn 0 */
	LL_TIM_ClearFlag_UPDATE(TIM3);
 8003fe8:	4802      	ldr	r0, [pc, #8]	; (8003ff4 <TIM3_IRQHandler+0x10>)
 8003fea:	f7ff ff3f 	bl	8003e6c <LL_TIM_ClearFlag_UPDATE>
  /* USER CODE END TIM3_IRQn 0 */
  /* USER CODE BEGIN TIM3_IRQn 1 */

  /* USER CODE END TIM3_IRQn 1 */
}
 8003fee:	bf00      	nop
 8003ff0:	bd80      	pop	{r7, pc}
 8003ff2:	bf00      	nop
 8003ff4:	40000400 	.word	0x40000400

08003ff8 <TIM4_IRQHandler>:

/**
  * @brief This function handles TIM4 global interrupt.
  */
void TIM4_IRQHandler(void)
{
 8003ff8:	b580      	push	{r7, lr}
 8003ffa:	b082      	sub	sp, #8
 8003ffc:	af00      	add	r7, sp, #0
  /* USER CODE BEGIN TIM4_IRQn 0 */
	if(LL_TIM_IsActiveFlag_CC1(TIM4))
 8003ffe:	4819      	ldr	r0, [pc, #100]	; (8004064 <TIM4_IRQHandler+0x6c>)
 8004000:	f7ff ff60 	bl	8003ec4 <LL_TIM_IsActiveFlag_CC1>
 8004004:	4603      	mov	r3, r0
 8004006:	2b00      	cmp	r3, #0
 8004008:	d006      	beq.n	8004018 <TIM4_IRQHandler+0x20>
	{
		LL_TIM_ClearFlag_CC1(TIM4);
 800400a:	4816      	ldr	r0, [pc, #88]	; (8004064 <TIM4_IRQHandler+0x6c>)
 800400c:	f7ff ff4d 	bl	8003eaa <LL_TIM_ClearFlag_CC1>
		LL_GPIO_ResetOutputPin(GPIOA, LL_GPIO_PIN_11);
 8004010:	4915      	ldr	r1, [pc, #84]	; (8004068 <TIM4_IRQHandler+0x70>)
 8004012:	4816      	ldr	r0, [pc, #88]	; (800406c <TIM4_IRQHandler+0x74>)
 8004014:	f7ff ff96 	bl	8003f44 <LL_GPIO_ResetOutputPin>
	}
	if(LL_TIM_IsActiveFlag_UPDATE(TIM4))
 8004018:	4812      	ldr	r0, [pc, #72]	; (8004064 <TIM4_IRQHandler+0x6c>)
 800401a:	f7ff ff34 	bl	8003e86 <LL_TIM_IsActiveFlag_UPDATE>
 800401e:	4603      	mov	r3, r0
 8004020:	2b00      	cmp	r3, #0
 8004022:	d006      	beq.n	8004032 <TIM4_IRQHandler+0x3a>
	{
		LL_TIM_ClearFlag_UPDATE(TIM4);
 8004024:	480f      	ldr	r0, [pc, #60]	; (8004064 <TIM4_IRQHandler+0x6c>)
 8004026:	f7ff ff21 	bl	8003e6c <LL_TIM_ClearFlag_UPDATE>
		LL_GPIO_SetOutputPin(GPIOA, LL_GPIO_PIN_11);
 800402a:	490f      	ldr	r1, [pc, #60]	; (8004068 <TIM4_IRQHandler+0x70>)
 800402c:	480f      	ldr	r0, [pc, #60]	; (800406c <TIM4_IRQHandler+0x74>)
 800402e:	f7ff ff7a 	bl	8003f26 <LL_GPIO_SetOutputPin>
	}
	if(LL_TIM_IsActiveFlag_CC2(TIM4))
 8004032:	480c      	ldr	r0, [pc, #48]	; (8004064 <TIM4_IRQHandler+0x6c>)
 8004034:	f7ff ff65 	bl	8003f02 <LL_TIM_IsActiveFlag_CC2>
 8004038:	4603      	mov	r3, r0
 800403a:	2b00      	cmp	r3, #0
 800403c:	d00e      	beq.n	800405c <TIM4_IRQHandler+0x64>
	{
//		LL_GPIO_TogglePin(GPIOC, LL_GPIO_PIN_13);
		uint16_t newCPR = TIM4->CNT + AddCPRTime - 1;
 800403e:	4b09      	ldr	r3, [pc, #36]	; (8004064 <TIM4_IRQHandler+0x6c>)
 8004040:	6a5b      	ldr	r3, [r3, #36]	; 0x24
 8004042:	b29a      	uxth	r2, r3
 8004044:	4b0a      	ldr	r3, [pc, #40]	; (8004070 <TIM4_IRQHandler+0x78>)
 8004046:	881b      	ldrh	r3, [r3, #0]
 8004048:	4413      	add	r3, r2
 800404a:	b29b      	uxth	r3, r3
 800404c:	3b01      	subs	r3, #1
 800404e:	80fb      	strh	r3, [r7, #6]
		TIM4->CCR2 = newCPR;
 8004050:	4a04      	ldr	r2, [pc, #16]	; (8004064 <TIM4_IRQHandler+0x6c>)
 8004052:	88fb      	ldrh	r3, [r7, #6]
 8004054:	6393      	str	r3, [r2, #56]	; 0x38
		LL_TIM_ClearFlag_CC2(TIM4);
 8004056:	4803      	ldr	r0, [pc, #12]	; (8004064 <TIM4_IRQHandler+0x6c>)
 8004058:	f7ff ff46 	bl	8003ee8 <LL_TIM_ClearFlag_CC2>
	}
  /* USER CODE END TIM4_IRQn 0 */
  /* USER CODE BEGIN TIM4_IRQn 1 */

  /* USER CODE END TIM4_IRQn 1 */
}
 800405c:	bf00      	nop
 800405e:	3708      	adds	r7, #8
 8004060:	46bd      	mov	sp, r7
 8004062:	bd80      	pop	{r7, pc}
 8004064:	40000800 	.word	0x40000800
 8004068:	04080008 	.word	0x04080008
 800406c:	40010800 	.word	0x40010800
 8004070:	20000210 	.word	0x20000210

08004074 <USART1_IRQHandler>:

/**
  * @brief This function handles USART1 global interrupt.
  */
void USART1_IRQHandler(void)
{
 8004074:	b480      	push	{r7}
 8004076:	af00      	add	r7, sp, #0

  /* USER CODE END USART1_IRQn 0 */
  /* USER CODE BEGIN USART1_IRQn 1 */

  /* USER CODE END USART1_IRQn 1 */
}
 8004078:	bf00      	nop
 800407a:	46bd      	mov	sp, r7
 800407c:	bc80      	pop	{r7}
 800407e:	4770      	bx	lr

08004080 <EXTI15_10_IRQHandler>:

/**
  * @brief This function handles EXTI line[15:10] interrupts.
  */
void EXTI15_10_IRQHandler(void)
{
 8004080:	b580      	push	{r7, lr}
 8004082:	af00      	add	r7, sp, #0
  /* USER CODE BEGIN EXTI15_10_IRQn 0 */

  /* USER CODE END EXTI15_10_IRQn 0 */
  if (LL_EXTI_IsActiveFlag_0_31(LL_EXTI_LINE_12) != RESET)
 8004084:	f44f 5080 	mov.w	r0, #4096	; 0x1000
 8004088:	f7ff fecc 	bl	8003e24 <LL_EXTI_IsActiveFlag_0_31>
 800408c:	4603      	mov	r3, r0
 800408e:	2b00      	cmp	r3, #0
 8004090:	d006      	beq.n	80040a0 <EXTI15_10_IRQHandler+0x20>
  {
    LL_EXTI_ClearFlag_0_31(LL_EXTI_LINE_12);
 8004092:	f44f 5080 	mov.w	r0, #4096	; 0x1000
 8004096:	f7ff fedb 	bl	8003e50 <LL_EXTI_ClearFlag_0_31>
    /* USER CODE BEGIN LL_EXTI_LINE_12 */
//    printf("Hello");
    GetThreshold_Flag = 1;
 800409a:	4b10      	ldr	r3, [pc, #64]	; (80040dc <EXTI15_10_IRQHandler+0x5c>)
 800409c:	2201      	movs	r2, #1
 800409e:	701a      	strb	r2, [r3, #0]
    /* USER CODE END LL_EXTI_LINE_12 */
  }
  if (LL_EXTI_IsActiveFlag_0_31(LL_EXTI_LINE_13) != RESET)
 80040a0:	f44f 5000 	mov.w	r0, #8192	; 0x2000
 80040a4:	f7ff febe 	bl	8003e24 <LL_EXTI_IsActiveFlag_0_31>
 80040a8:	4603      	mov	r3, r0
 80040aa:	2b00      	cmp	r3, #0
 80040ac:	d006      	beq.n	80040bc <EXTI15_10_IRQHandler+0x3c>
  {
    LL_EXTI_ClearFlag_0_31(LL_EXTI_LINE_13);
 80040ae:	f44f 5000 	mov.w	r0, #8192	; 0x2000
 80040b2:	f7ff fecd 	bl	8003e50 <LL_EXTI_ClearFlag_0_31>
    /* USER CODE BEGIN LL_EXTI_LINE_13 */
    BTN2_Flag = 1;
 80040b6:	4b0a      	ldr	r3, [pc, #40]	; (80040e0 <EXTI15_10_IRQHandler+0x60>)
 80040b8:	2201      	movs	r2, #1
 80040ba:	701a      	strb	r2, [r3, #0]
    /* USER CODE END LL_EXTI_LINE_13 */
  }
  if (LL_EXTI_IsActiveFlag_0_31(LL_EXTI_LINE_14) != RESET)
 80040bc:	f44f 4080 	mov.w	r0, #16384	; 0x4000
 80040c0:	f7ff feb0 	bl	8003e24 <LL_EXTI_IsActiveFlag_0_31>
 80040c4:	4603      	mov	r3, r0
 80040c6:	2b00      	cmp	r3, #0
 80040c8:	d006      	beq.n	80040d8 <EXTI15_10_IRQHandler+0x58>
  {
    LL_EXTI_ClearFlag_0_31(LL_EXTI_LINE_14);
 80040ca:	f44f 4080 	mov.w	r0, #16384	; 0x4000
 80040ce:	f7ff febf 	bl	8003e50 <LL_EXTI_ClearFlag_0_31>
    /* USER CODE BEGIN LL_EXTI_LINE_14 */
    BTN3_Flag = 1;
 80040d2:	4b04      	ldr	r3, [pc, #16]	; (80040e4 <EXTI15_10_IRQHandler+0x64>)
 80040d4:	2201      	movs	r2, #1
 80040d6:	701a      	strb	r2, [r3, #0]
    /* USER CODE END LL_EXTI_LINE_14 */
  }
  /* USER CODE BEGIN EXTI15_10_IRQn 1 */

  /* USER CODE END EXTI15_10_IRQn 1 */
}
 80040d8:	bf00      	nop
 80040da:	bd80      	pop	{r7, pc}
 80040dc:	20000204 	.word	0x20000204
 80040e0:	20000212 	.word	0x20000212
 80040e4:	20000213 	.word	0x20000213

080040e8 <_read>:
	_kill(status, -1);
	while (1) {}		/* Make sure we hang here */
}

__attribute__((weak)) int _read(int file, char *ptr, int len)
{
 80040e8:	b580      	push	{r7, lr}
 80040ea:	b086      	sub	sp, #24
 80040ec:	af00      	add	r7, sp, #0
 80040ee:	60f8      	str	r0, [r7, #12]
 80040f0:	60b9      	str	r1, [r7, #8]
 80040f2:	607a      	str	r2, [r7, #4]
	int DataIdx;

	for (DataIdx = 0; DataIdx < len; DataIdx++)
 80040f4:	2300      	movs	r3, #0
 80040f6:	617b      	str	r3, [r7, #20]
 80040f8:	e00a      	b.n	8004110 <_read+0x28>
	{
		*ptr++ = __io_getchar();
 80040fa:	f3af 8000 	nop.w
 80040fe:	4601      	mov	r1, r0
 8004100:	68bb      	ldr	r3, [r7, #8]
 8004102:	1c5a      	adds	r2, r3, #1
 8004104:	60ba      	str	r2, [r7, #8]
 8004106:	b2ca      	uxtb	r2, r1
 8004108:	701a      	strb	r2, [r3, #0]
	for (DataIdx = 0; DataIdx < len; DataIdx++)
 800410a:	697b      	ldr	r3, [r7, #20]
 800410c:	3301      	adds	r3, #1
 800410e:	617b      	str	r3, [r7, #20]
 8004110:	697a      	ldr	r2, [r7, #20]
 8004112:	687b      	ldr	r3, [r7, #4]
 8004114:	429a      	cmp	r2, r3
 8004116:	dbf0      	blt.n	80040fa <_read+0x12>
	}

return len;
 8004118:	687b      	ldr	r3, [r7, #4]
}
 800411a:	4618      	mov	r0, r3
 800411c:	3718      	adds	r7, #24
 800411e:	46bd      	mov	sp, r7
 8004120:	bd80      	pop	{r7, pc}

08004122 <_write>:

__attribute__((weak)) int _write(int file, char *ptr, int len)
{
 8004122:	b580      	push	{r7, lr}
 8004124:	b086      	sub	sp, #24
 8004126:	af00      	add	r7, sp, #0
 8004128:	60f8      	str	r0, [r7, #12]
 800412a:	60b9      	str	r1, [r7, #8]
 800412c:	607a      	str	r2, [r7, #4]
	int DataIdx;

	for (DataIdx = 0; DataIdx < len; DataIdx++)
 800412e:	2300      	movs	r3, #0
 8004130:	617b      	str	r3, [r7, #20]
 8004132:	e009      	b.n	8004148 <_write+0x26>
	{
		__io_putchar(*ptr++);
 8004134:	68bb      	ldr	r3, [r7, #8]
 8004136:	1c5a      	adds	r2, r3, #1
 8004138:	60ba      	str	r2, [r7, #8]
 800413a:	781b      	ldrb	r3, [r3, #0]
 800413c:	4618      	mov	r0, r3
 800413e:	f7fe f8cf 	bl	80022e0 <__io_putchar>
	for (DataIdx = 0; DataIdx < len; DataIdx++)
 8004142:	697b      	ldr	r3, [r7, #20]
 8004144:	3301      	adds	r3, #1
 8004146:	617b      	str	r3, [r7, #20]
 8004148:	697a      	ldr	r2, [r7, #20]
 800414a:	687b      	ldr	r3, [r7, #4]
 800414c:	429a      	cmp	r2, r3
 800414e:	dbf1      	blt.n	8004134 <_write+0x12>
	}
	return len;
 8004150:	687b      	ldr	r3, [r7, #4]
}
 8004152:	4618      	mov	r0, r3
 8004154:	3718      	adds	r7, #24
 8004156:	46bd      	mov	sp, r7
 8004158:	bd80      	pop	{r7, pc}

0800415a <_close>:

int _close(int file)
{
 800415a:	b480      	push	{r7}
 800415c:	b083      	sub	sp, #12
 800415e:	af00      	add	r7, sp, #0
 8004160:	6078      	str	r0, [r7, #4]
	return -1;
 8004162:	f04f 33ff 	mov.w	r3, #4294967295
}
 8004166:	4618      	mov	r0, r3
 8004168:	370c      	adds	r7, #12
 800416a:	46bd      	mov	sp, r7
 800416c:	bc80      	pop	{r7}
 800416e:	4770      	bx	lr

08004170 <_fstat>:


int _fstat(int file, struct stat *st)
{
 8004170:	b480      	push	{r7}
 8004172:	b083      	sub	sp, #12
 8004174:	af00      	add	r7, sp, #0
 8004176:	6078      	str	r0, [r7, #4]
 8004178:	6039      	str	r1, [r7, #0]
	st->st_mode = S_IFCHR;
 800417a:	683b      	ldr	r3, [r7, #0]
 800417c:	f44f 5200 	mov.w	r2, #8192	; 0x2000
 8004180:	605a      	str	r2, [r3, #4]
	return 0;
 8004182:	2300      	movs	r3, #0
}
 8004184:	4618      	mov	r0, r3
 8004186:	370c      	adds	r7, #12
 8004188:	46bd      	mov	sp, r7
 800418a:	bc80      	pop	{r7}
 800418c:	4770      	bx	lr

0800418e <_lseek>:
{
	return 1;
}

int _lseek(int file, int ptr, int dir)
{
 800418e:	b480      	push	{r7}
 8004190:	b085      	sub	sp, #20
 8004192:	af00      	add	r7, sp, #0
 8004194:	60f8      	str	r0, [r7, #12]
 8004196:	60b9      	str	r1, [r7, #8]
 8004198:	607a      	str	r2, [r7, #4]
	return 0;
 800419a:	2300      	movs	r3, #0
}
 800419c:	4618      	mov	r0, r3
 800419e:	3714      	adds	r7, #20
 80041a0:	46bd      	mov	sp, r7
 80041a2:	bc80      	pop	{r7}
 80041a4:	4770      	bx	lr
	...

080041a8 <_sbrk>:
 *
 * @param incr Memory size
 * @return Pointer to allocated memory
 */
void *_sbrk(ptrdiff_t incr)
{
 80041a8:	b580      	push	{r7, lr}
 80041aa:	b086      	sub	sp, #24
 80041ac:	af00      	add	r7, sp, #0
 80041ae:	6078      	str	r0, [r7, #4]
  extern uint8_t _end; /* Symbol defined in the linker script */
  extern uint8_t _estack; /* Symbol defined in the linker script */
  extern uint32_t _Min_Stack_Size; /* Symbol defined in the linker script */
  const uint32_t stack_limit = (uint32_t)&_estack - (uint32_t)&_Min_Stack_Size;
 80041b0:	4a14      	ldr	r2, [pc, #80]	; (8004204 <_sbrk+0x5c>)
 80041b2:	4b15      	ldr	r3, [pc, #84]	; (8004208 <_sbrk+0x60>)
 80041b4:	1ad3      	subs	r3, r2, r3
 80041b6:	617b      	str	r3, [r7, #20]
  const uint8_t *max_heap = (uint8_t *)stack_limit;
 80041b8:	697b      	ldr	r3, [r7, #20]
 80041ba:	613b      	str	r3, [r7, #16]
  uint8_t *prev_heap_end;

  /* Initalize heap end at first call */
  if (NULL == __sbrk_heap_end)
 80041bc:	4b13      	ldr	r3, [pc, #76]	; (800420c <_sbrk+0x64>)
 80041be:	681b      	ldr	r3, [r3, #0]
 80041c0:	2b00      	cmp	r3, #0
 80041c2:	d102      	bne.n	80041ca <_sbrk+0x22>
  {
    __sbrk_heap_end = &_end;
 80041c4:	4b11      	ldr	r3, [pc, #68]	; (800420c <_sbrk+0x64>)
 80041c6:	4a12      	ldr	r2, [pc, #72]	; (8004210 <_sbrk+0x68>)
 80041c8:	601a      	str	r2, [r3, #0]
  }

  /* Protect heap from growing into the reserved MSP stack */
  if (__sbrk_heap_end + incr > max_heap)
 80041ca:	4b10      	ldr	r3, [pc, #64]	; (800420c <_sbrk+0x64>)
 80041cc:	681a      	ldr	r2, [r3, #0]
 80041ce:	687b      	ldr	r3, [r7, #4]
 80041d0:	4413      	add	r3, r2
 80041d2:	693a      	ldr	r2, [r7, #16]
 80041d4:	429a      	cmp	r2, r3
 80041d6:	d207      	bcs.n	80041e8 <_sbrk+0x40>
  {
    errno = ENOMEM;
 80041d8:	f001 f988 	bl	80054ec <__errno>
 80041dc:	4602      	mov	r2, r0
 80041de:	230c      	movs	r3, #12
 80041e0:	6013      	str	r3, [r2, #0]
    return (void *)-1;
 80041e2:	f04f 33ff 	mov.w	r3, #4294967295
 80041e6:	e009      	b.n	80041fc <_sbrk+0x54>
  }

  prev_heap_end = __sbrk_heap_end;
 80041e8:	4b08      	ldr	r3, [pc, #32]	; (800420c <_sbrk+0x64>)
 80041ea:	681b      	ldr	r3, [r3, #0]
 80041ec:	60fb      	str	r3, [r7, #12]
  __sbrk_heap_end += incr;
 80041ee:	4b07      	ldr	r3, [pc, #28]	; (800420c <_sbrk+0x64>)
 80041f0:	681a      	ldr	r2, [r3, #0]
 80041f2:	687b      	ldr	r3, [r7, #4]
 80041f4:	4413      	add	r3, r2
 80041f6:	4a05      	ldr	r2, [pc, #20]	; (800420c <_sbrk+0x64>)
 80041f8:	6013      	str	r3, [r2, #0]

  return (void *)prev_heap_end;
 80041fa:	68fb      	ldr	r3, [r7, #12]
}
 80041fc:	4618      	mov	r0, r3
 80041fe:	3718      	adds	r7, #24
 8004200:	46bd      	mov	sp, r7
 8004202:	bd80      	pop	{r7, pc}
 8004204:	20005000 	.word	0x20005000
 8004208:	00000400 	.word	0x00000400
 800420c:	20000214 	.word	0x20000214
 8004210:	20000238 	.word	0x20000238

08004214 <SystemInit>:
  * @note   This function should be used only after reset.
  * @param  None
  * @retval None
  */
void SystemInit (void)
{
 8004214:	b480      	push	{r7}
 8004216:	af00      	add	r7, sp, #0
  /* Reset the RCC clock configuration to the default reset state(for debug purpose) */
  /* Set HSION bit */
  RCC->CR |= 0x00000001U;
 8004218:	4b15      	ldr	r3, [pc, #84]	; (8004270 <SystemInit+0x5c>)
 800421a:	681b      	ldr	r3, [r3, #0]
 800421c:	4a14      	ldr	r2, [pc, #80]	; (8004270 <SystemInit+0x5c>)
 800421e:	f043 0301 	orr.w	r3, r3, #1
 8004222:	6013      	str	r3, [r2, #0]

  /* Reset SW, HPRE, PPRE1, PPRE2, ADCPRE and MCO bits */
#if !defined(STM32F105xC) && !defined(STM32F107xC)
  RCC->CFGR &= 0xF8FF0000U;
 8004224:	4b12      	ldr	r3, [pc, #72]	; (8004270 <SystemInit+0x5c>)
 8004226:	685a      	ldr	r2, [r3, #4]
 8004228:	4911      	ldr	r1, [pc, #68]	; (8004270 <SystemInit+0x5c>)
 800422a:	4b12      	ldr	r3, [pc, #72]	; (8004274 <SystemInit+0x60>)
 800422c:	4013      	ands	r3, r2
 800422e:	604b      	str	r3, [r1, #4]
#else
  RCC->CFGR &= 0xF0FF0000U;
#endif /* STM32F105xC */   
  
  /* Reset HSEON, CSSON and PLLON bits */
  RCC->CR &= 0xFEF6FFFFU;
 8004230:	4b0f      	ldr	r3, [pc, #60]	; (8004270 <SystemInit+0x5c>)
 8004232:	681b      	ldr	r3, [r3, #0]
 8004234:	4a0e      	ldr	r2, [pc, #56]	; (8004270 <SystemInit+0x5c>)
 8004236:	f023 7384 	bic.w	r3, r3, #17301504	; 0x1080000
 800423a:	f423 3380 	bic.w	r3, r3, #65536	; 0x10000
 800423e:	6013      	str	r3, [r2, #0]

  /* Reset HSEBYP bit */
  RCC->CR &= 0xFFFBFFFFU;
 8004240:	4b0b      	ldr	r3, [pc, #44]	; (8004270 <SystemInit+0x5c>)
 8004242:	681b      	ldr	r3, [r3, #0]
 8004244:	4a0a      	ldr	r2, [pc, #40]	; (8004270 <SystemInit+0x5c>)
 8004246:	f423 2380 	bic.w	r3, r3, #262144	; 0x40000
 800424a:	6013      	str	r3, [r2, #0]

  /* Reset PLLSRC, PLLXTPRE, PLLMUL and USBPRE/OTGFSPRE bits */
  RCC->CFGR &= 0xFF80FFFFU;
 800424c:	4b08      	ldr	r3, [pc, #32]	; (8004270 <SystemInit+0x5c>)
 800424e:	685b      	ldr	r3, [r3, #4]
 8004250:	4a07      	ldr	r2, [pc, #28]	; (8004270 <SystemInit+0x5c>)
 8004252:	f423 03fe 	bic.w	r3, r3, #8323072	; 0x7f0000
 8004256:	6053      	str	r3, [r2, #4]

  /* Reset CFGR2 register */
  RCC->CFGR2 = 0x00000000U;      
#else
  /* Disable all interrupts and clear pending bits  */
  RCC->CIR = 0x009F0000U;
 8004258:	4b05      	ldr	r3, [pc, #20]	; (8004270 <SystemInit+0x5c>)
 800425a:	f44f 021f 	mov.w	r2, #10420224	; 0x9f0000
 800425e:	609a      	str	r2, [r3, #8]
#endif 

#ifdef VECT_TAB_SRAM
  SCB->VTOR = SRAM_BASE | VECT_TAB_OFFSET; /* Vector Table Relocation in Internal SRAM. */
#else
  SCB->VTOR = FLASH_BASE | VECT_TAB_OFFSET; /* Vector Table Relocation in Internal FLASH. */
 8004260:	4b05      	ldr	r3, [pc, #20]	; (8004278 <SystemInit+0x64>)
 8004262:	f04f 6200 	mov.w	r2, #134217728	; 0x8000000
 8004266:	609a      	str	r2, [r3, #8]
#endif 
}
 8004268:	bf00      	nop
 800426a:	46bd      	mov	sp, r7
 800426c:	bc80      	pop	{r7}
 800426e:	4770      	bx	lr
 8004270:	40021000 	.word	0x40021000
 8004274:	f8ff0000 	.word	0xf8ff0000
 8004278:	e000ed00 	.word	0xe000ed00

0800427c <Reset_Handler>:
  .weak Reset_Handler
  .type Reset_Handler, %function
Reset_Handler:

/* Copy the data segment initializers from flash to SRAM */
  movs r1, #0
 800427c:	2100      	movs	r1, #0
  b LoopCopyDataInit
 800427e:	e003      	b.n	8004288 <LoopCopyDataInit>

08004280 <CopyDataInit>:

CopyDataInit:
  ldr r3, =_sidata
 8004280:	4b0b      	ldr	r3, [pc, #44]	; (80042b0 <LoopFillZerobss+0x14>)
  ldr r3, [r3, r1]
 8004282:	585b      	ldr	r3, [r3, r1]
  str r3, [r0, r1]
 8004284:	5043      	str	r3, [r0, r1]
  adds r1, r1, #4
 8004286:	3104      	adds	r1, #4

08004288 <LoopCopyDataInit>:

LoopCopyDataInit:
  ldr r0, =_sdata
 8004288:	480a      	ldr	r0, [pc, #40]	; (80042b4 <LoopFillZerobss+0x18>)
  ldr r3, =_edata
 800428a:	4b0b      	ldr	r3, [pc, #44]	; (80042b8 <LoopFillZerobss+0x1c>)
  adds r2, r0, r1
 800428c:	1842      	adds	r2, r0, r1
  cmp r2, r3
 800428e:	429a      	cmp	r2, r3
  bcc CopyDataInit
 8004290:	d3f6      	bcc.n	8004280 <CopyDataInit>
  ldr r2, =_sbss
 8004292:	4a0a      	ldr	r2, [pc, #40]	; (80042bc <LoopFillZerobss+0x20>)
  b LoopFillZerobss
 8004294:	e002      	b.n	800429c <LoopFillZerobss>

08004296 <FillZerobss>:
/* Zero fill the bss segment. */
FillZerobss:
  movs r3, #0
 8004296:	2300      	movs	r3, #0
  str r3, [r2], #4
 8004298:	f842 3b04 	str.w	r3, [r2], #4

0800429c <LoopFillZerobss>:

LoopFillZerobss:
  ldr r3, = _ebss
 800429c:	4b08      	ldr	r3, [pc, #32]	; (80042c0 <LoopFillZerobss+0x24>)
  cmp r2, r3
 800429e:	429a      	cmp	r2, r3
  bcc FillZerobss
 80042a0:	d3f9      	bcc.n	8004296 <FillZerobss>

/* Call the clock system intitialization function.*/
    bl  SystemInit
 80042a2:	f7ff ffb7 	bl	8004214 <SystemInit>
/* Call static constructors */
    bl __libc_init_array
 80042a6:	f001 f927 	bl	80054f8 <__libc_init_array>
/* Call the application's entry point.*/
  bl main
 80042aa:	f7fe f831 	bl	8002310 <main>
  bx lr
 80042ae:	4770      	bx	lr
  ldr r3, =_sidata
 80042b0:	080078e0 	.word	0x080078e0
  ldr r0, =_sdata
 80042b4:	20000000 	.word	0x20000000
  ldr r3, =_edata
 80042b8:	200001e8 	.word	0x200001e8
  ldr r2, =_sbss
 80042bc:	200001e8 	.word	0x200001e8
  ldr r3, = _ebss
 80042c0:	20000234 	.word	0x20000234

080042c4 <ADC1_2_IRQHandler>:
 * @retval : None
*/
    .section .text.Default_Handler,"ax",%progbits
Default_Handler:
Infinite_Loop:
  b Infinite_Loop
 80042c4:	e7fe      	b.n	80042c4 <ADC1_2_IRQHandler>

080042c6 <LL_ADC_REG_SetSequencerLength>:
{
 80042c6:	b480      	push	{r7}
 80042c8:	b083      	sub	sp, #12
 80042ca:	af00      	add	r7, sp, #0
 80042cc:	6078      	str	r0, [r7, #4]
 80042ce:	6039      	str	r1, [r7, #0]
  MODIFY_REG(ADCx->SQR1, ADC_SQR1_L, SequencerNbRanks);
 80042d0:	687b      	ldr	r3, [r7, #4]
 80042d2:	6adb      	ldr	r3, [r3, #44]	; 0x2c
 80042d4:	f423 0270 	bic.w	r2, r3, #15728640	; 0xf00000
 80042d8:	683b      	ldr	r3, [r7, #0]
 80042da:	431a      	orrs	r2, r3
 80042dc:	687b      	ldr	r3, [r7, #4]
 80042de:	62da      	str	r2, [r3, #44]	; 0x2c
}
 80042e0:	bf00      	nop
 80042e2:	370c      	adds	r7, #12
 80042e4:	46bd      	mov	sp, r7
 80042e6:	bc80      	pop	{r7}
 80042e8:	4770      	bx	lr

080042ea <LL_ADC_IsEnabled>:
{
 80042ea:	b480      	push	{r7}
 80042ec:	b083      	sub	sp, #12
 80042ee:	af00      	add	r7, sp, #0
 80042f0:	6078      	str	r0, [r7, #4]
  return (READ_BIT(ADCx->CR2, ADC_CR2_ADON) == (ADC_CR2_ADON));
 80042f2:	687b      	ldr	r3, [r7, #4]
 80042f4:	689b      	ldr	r3, [r3, #8]
 80042f6:	f003 0301 	and.w	r3, r3, #1
 80042fa:	2b01      	cmp	r3, #1
 80042fc:	bf0c      	ite	eq
 80042fe:	2301      	moveq	r3, #1
 8004300:	2300      	movne	r3, #0
 8004302:	b2db      	uxtb	r3, r3
}
 8004304:	4618      	mov	r0, r3
 8004306:	370c      	adds	r7, #12
 8004308:	46bd      	mov	sp, r7
 800430a:	bc80      	pop	{r7}
 800430c:	4770      	bx	lr
	...

08004310 <LL_ADC_CommonInit>:
  * @retval An ErrorStatus enumeration value:
  *          - SUCCESS: ADC common registers are initialized
  *          - ERROR: ADC common registers are not initialized
  */
ErrorStatus LL_ADC_CommonInit(ADC_Common_TypeDef *ADCxy_COMMON, LL_ADC_CommonInitTypeDef *ADC_CommonInitStruct)
{
 8004310:	b590      	push	{r4, r7, lr}
 8004312:	b085      	sub	sp, #20
 8004314:	af00      	add	r7, sp, #0
 8004316:	6078      	str	r0, [r7, #4]
 8004318:	6039      	str	r1, [r7, #0]
  ErrorStatus status = SUCCESS;
 800431a:	2300      	movs	r3, #0
 800431c:	73fb      	strb	r3, [r7, #15]
  /* Note: Hardware constraint (refer to description of functions             */
  /*       "LL_ADC_SetCommonXXX()" and "LL_ADC_SetMultiXXX()"):               */
  /*       On this STM32 serie, setting of these features is conditioned to   */
  /*       ADC state:                                                         */
  /*       All ADC instances of the ADC common group must be disabled.        */
  if(__LL_ADC_IS_ENABLED_ALL_COMMON_INSTANCE(ADCxy_COMMON) == 0U)
 800431e:	4813      	ldr	r0, [pc, #76]	; (800436c <LL_ADC_CommonInit+0x5c>)
 8004320:	f7ff ffe3 	bl	80042ea <LL_ADC_IsEnabled>
 8004324:	4604      	mov	r4, r0
 8004326:	4812      	ldr	r0, [pc, #72]	; (8004370 <LL_ADC_CommonInit+0x60>)
 8004328:	f7ff ffdf 	bl	80042ea <LL_ADC_IsEnabled>
 800432c:	4603      	mov	r3, r0
 800432e:	4323      	orrs	r3, r4
 8004330:	2b00      	cmp	r3, #0
 8004332:	d114      	bne.n	800435e <LL_ADC_CommonInit+0x4e>
    /*    selected device)                                                    */
    /*    - Set ADC multimode configuration                                   */
    /*    - Set ADC multimode DMA transfer                                    */
    /*    - Set ADC multimode: delay between 2 sampling phases                */
#if defined(ADC_MULTIMODE_SUPPORT)
    if(ADC_CommonInitStruct->Multimode != LL_ADC_MULTI_INDEPENDENT)
 8004334:	683b      	ldr	r3, [r7, #0]
 8004336:	681b      	ldr	r3, [r3, #0]
 8004338:	2b00      	cmp	r3, #0
 800433a:	d009      	beq.n	8004350 <LL_ADC_CommonInit+0x40>
    {
      MODIFY_REG(ADCxy_COMMON->CR1,
 800433c:	687b      	ldr	r3, [r7, #4]
 800433e:	685b      	ldr	r3, [r3, #4]
 8004340:	f423 2270 	bic.w	r2, r3, #983040	; 0xf0000
 8004344:	683b      	ldr	r3, [r7, #0]
 8004346:	681b      	ldr	r3, [r3, #0]
 8004348:	431a      	orrs	r2, r3
 800434a:	687b      	ldr	r3, [r7, #4]
 800434c:	605a      	str	r2, [r3, #4]
 800434e:	e008      	b.n	8004362 <LL_ADC_CommonInit+0x52>
                 ADC_CommonInitStruct->Multimode
                );
    }
    else
    {
      MODIFY_REG(ADCxy_COMMON->CR1,
 8004350:	687b      	ldr	r3, [r7, #4]
 8004352:	685b      	ldr	r3, [r3, #4]
 8004354:	f423 2270 	bic.w	r2, r3, #983040	; 0xf0000
 8004358:	687b      	ldr	r3, [r7, #4]
 800435a:	605a      	str	r2, [r3, #4]
 800435c:	e001      	b.n	8004362 <LL_ADC_CommonInit+0x52>
  }
  else
  {
    /* Initialization error: One or several ADC instances belonging to        */
    /* the same ADC common instance are not disabled.                         */
    status = ERROR;
 800435e:	2301      	movs	r3, #1
 8004360:	73fb      	strb	r3, [r7, #15]
  }
  
  return status;
 8004362:	7bfb      	ldrb	r3, [r7, #15]
}
 8004364:	4618      	mov	r0, r3
 8004366:	3714      	adds	r7, #20
 8004368:	46bd      	mov	sp, r7
 800436a:	bd90      	pop	{r4, r7, pc}
 800436c:	40012400 	.word	0x40012400
 8004370:	40012800 	.word	0x40012800

08004374 <LL_ADC_Init>:
  * @retval An ErrorStatus enumeration value:
  *          - SUCCESS: ADC registers are initialized
  *          - ERROR: ADC registers are not initialized
  */
ErrorStatus LL_ADC_Init(ADC_TypeDef *ADCx, LL_ADC_InitTypeDef *ADC_InitStruct)
{
 8004374:	b580      	push	{r7, lr}
 8004376:	b084      	sub	sp, #16
 8004378:	af00      	add	r7, sp, #0
 800437a:	6078      	str	r0, [r7, #4]
 800437c:	6039      	str	r1, [r7, #0]
  ErrorStatus status = SUCCESS;
 800437e:	2300      	movs	r3, #0
 8004380:	73fb      	strb	r3, [r7, #15]
  assert_param(IS_LL_ADC_DATA_ALIGN(ADC_InitStruct->DataAlignment));
  assert_param(IS_LL_ADC_SCAN_SELECTION(ADC_InitStruct->SequencersScanMode));
  
  /* Note: Hardware constraint (refer to description of this function):       */
  /*       ADC instance must be disabled.                                     */
  if(LL_ADC_IsEnabled(ADCx) == 0U)
 8004382:	6878      	ldr	r0, [r7, #4]
 8004384:	f7ff ffb1 	bl	80042ea <LL_ADC_IsEnabled>
 8004388:	4603      	mov	r3, r0
 800438a:	2b00      	cmp	r3, #0
 800438c:	d112      	bne.n	80043b4 <LL_ADC_Init+0x40>
  {
    /* Configuration of ADC hierarchical scope:                               */
    /*  - ADC instance                                                        */
    /*    - Set ADC conversion data alignment                                 */
    MODIFY_REG(ADCx->CR1,
 800438e:	687b      	ldr	r3, [r7, #4]
 8004390:	685b      	ldr	r3, [r3, #4]
 8004392:	f423 7280 	bic.w	r2, r3, #256	; 0x100
 8004396:	683b      	ldr	r3, [r7, #0]
 8004398:	685b      	ldr	r3, [r3, #4]
 800439a:	431a      	orrs	r2, r3
 800439c:	687b      	ldr	r3, [r7, #4]
 800439e:	605a      	str	r2, [r3, #4]
                 ADC_CR1_SCAN
              ,
                 ADC_InitStruct->SequencersScanMode
              );
    
    MODIFY_REG(ADCx->CR2,
 80043a0:	687b      	ldr	r3, [r7, #4]
 80043a2:	689b      	ldr	r3, [r3, #8]
 80043a4:	f423 6200 	bic.w	r2, r3, #2048	; 0x800
 80043a8:	683b      	ldr	r3, [r7, #0]
 80043aa:	681b      	ldr	r3, [r3, #0]
 80043ac:	431a      	orrs	r2, r3
 80043ae:	687b      	ldr	r3, [r7, #4]
 80043b0:	609a      	str	r2, [r3, #8]
 80043b2:	e001      	b.n	80043b8 <LL_ADC_Init+0x44>

  }
  else
  {
    /* Initialization error: ADC instance is not disabled. */
    status = ERROR;
 80043b4:	2301      	movs	r3, #1
 80043b6:	73fb      	strb	r3, [r7, #15]
  }
  return status;
 80043b8:	7bfb      	ldrb	r3, [r7, #15]
}
 80043ba:	4618      	mov	r0, r3
 80043bc:	3710      	adds	r7, #16
 80043be:	46bd      	mov	sp, r7
 80043c0:	bd80      	pop	{r7, pc}

080043c2 <LL_ADC_REG_Init>:
  * @retval An ErrorStatus enumeration value:
  *          - SUCCESS: ADC registers are initialized
  *          - ERROR: ADC registers are not initialized
  */
ErrorStatus LL_ADC_REG_Init(ADC_TypeDef *ADCx, LL_ADC_REG_InitTypeDef *ADC_REG_InitStruct)
{
 80043c2:	b580      	push	{r7, lr}
 80043c4:	b084      	sub	sp, #16
 80043c6:	af00      	add	r7, sp, #0
 80043c8:	6078      	str	r0, [r7, #4]
 80043ca:	6039      	str	r1, [r7, #0]
  ErrorStatus status = SUCCESS;
 80043cc:	2300      	movs	r3, #0
 80043ce:	73fb      	strb	r3, [r7, #15]
  assert_param(IS_LL_ADC_REG_CONTINUOUS_MODE(ADC_REG_InitStruct->ContinuousMode));
  assert_param(IS_LL_ADC_REG_DMA_TRANSFER(ADC_REG_InitStruct->DMATransfer));
  
  /* Note: Hardware constraint (refer to description of this function):       */
  /*       ADC instance must be disabled.                                     */
  if(LL_ADC_IsEnabled(ADCx) == 0U)
 80043d0:	6878      	ldr	r0, [r7, #4]
 80043d2:	f7ff ff8a 	bl	80042ea <LL_ADC_IsEnabled>
 80043d6:	4603      	mov	r3, r0
 80043d8:	2b00      	cmp	r3, #0
 80043da:	d131      	bne.n	8004440 <LL_ADC_REG_Init+0x7e>
    /*    - Set ADC group regular conversion data transfer: no transfer or    */
    /*      transfer by DMA, and DMA requests mode                            */
    /* Note: On this STM32 serie, ADC trigger edge is set when starting       */
    /*       ADC conversion.                                                  */
    /*       Refer to function @ref LL_ADC_REG_StartConversionExtTrig().      */
    if(ADC_REG_InitStruct->SequencerLength != LL_ADC_REG_SEQ_SCAN_DISABLE)
 80043dc:	683b      	ldr	r3, [r7, #0]
 80043de:	685b      	ldr	r3, [r3, #4]
 80043e0:	2b00      	cmp	r3, #0
 80043e2:	d00c      	beq.n	80043fe <LL_ADC_REG_Init+0x3c>
    {
      MODIFY_REG(ADCx->CR1,
 80043e4:	687b      	ldr	r3, [r7, #4]
 80043e6:	685b      	ldr	r3, [r3, #4]
 80043e8:	f423 4268 	bic.w	r2, r3, #59392	; 0xe800
 80043ec:	683b      	ldr	r3, [r7, #0]
 80043ee:	6859      	ldr	r1, [r3, #4]
 80043f0:	683b      	ldr	r3, [r7, #0]
 80043f2:	689b      	ldr	r3, [r3, #8]
 80043f4:	430b      	orrs	r3, r1
 80043f6:	431a      	orrs	r2, r3
 80043f8:	687b      	ldr	r3, [r7, #4]
 80043fa:	605a      	str	r2, [r3, #4]
 80043fc:	e008      	b.n	8004410 <LL_ADC_REG_Init+0x4e>
                 | ADC_REG_InitStruct->SequencerDiscont
                );
    }
    else
    {
      MODIFY_REG(ADCx->CR1,
 80043fe:	687b      	ldr	r3, [r7, #4]
 8004400:	685b      	ldr	r3, [r3, #4]
 8004402:	f423 4268 	bic.w	r2, r3, #59392	; 0xe800
 8004406:	683b      	ldr	r3, [r7, #0]
 8004408:	685b      	ldr	r3, [r3, #4]
 800440a:	431a      	orrs	r2, r3
 800440c:	687b      	ldr	r3, [r7, #4]
 800440e:	605a      	str	r2, [r3, #4]
                   ADC_REG_InitStruct->SequencerLength
                 | LL_ADC_REG_SEQ_DISCONT_DISABLE
                );
    }
    
    MODIFY_REG(ADCx->CR2,
 8004410:	687b      	ldr	r3, [r7, #4]
 8004412:	689b      	ldr	r3, [r3, #8]
 8004414:	f423 2360 	bic.w	r3, r3, #917504	; 0xe0000
 8004418:	f423 7381 	bic.w	r3, r3, #258	; 0x102
 800441c:	683a      	ldr	r2, [r7, #0]
 800441e:	6811      	ldr	r1, [r2, #0]
 8004420:	683a      	ldr	r2, [r7, #0]
 8004422:	68d2      	ldr	r2, [r2, #12]
 8004424:	4311      	orrs	r1, r2
 8004426:	683a      	ldr	r2, [r7, #0]
 8004428:	6912      	ldr	r2, [r2, #16]
 800442a:	430a      	orrs	r2, r1
 800442c:	431a      	orrs	r2, r3
 800442e:	687b      	ldr	r3, [r7, #4]
 8004430:	609a      	str	r2, [r3, #8]
    /* Note: If ADC instance feature scan mode is disabled                    */
    /*       (refer to  ADC instance initialization structure                 */
    /*       parameter @ref SequencersScanMode                                */
    /*       or function @ref LL_ADC_SetSequencersScanMode() ),               */
    /*       this parameter is discarded.                                     */
    LL_ADC_REG_SetSequencerLength(ADCx, ADC_REG_InitStruct->SequencerLength);
 8004432:	683b      	ldr	r3, [r7, #0]
 8004434:	685b      	ldr	r3, [r3, #4]
 8004436:	4619      	mov	r1, r3
 8004438:	6878      	ldr	r0, [r7, #4]
 800443a:	f7ff ff44 	bl	80042c6 <LL_ADC_REG_SetSequencerLength>
 800443e:	e001      	b.n	8004444 <LL_ADC_REG_Init+0x82>
  }
  else
  {
    /* Initialization error: ADC instance is not disabled. */
    status = ERROR;
 8004440:	2301      	movs	r3, #1
 8004442:	73fb      	strb	r3, [r7, #15]
  }
  return status;
 8004444:	7bfb      	ldrb	r3, [r7, #15]
}
 8004446:	4618      	mov	r0, r3
 8004448:	3710      	adds	r7, #16
 800444a:	46bd      	mov	sp, r7
 800444c:	bd80      	pop	{r7, pc}
	...

08004450 <LL_EXTI_EnableIT_0_31>:
{
 8004450:	b480      	push	{r7}
 8004452:	b083      	sub	sp, #12
 8004454:	af00      	add	r7, sp, #0
 8004456:	6078      	str	r0, [r7, #4]
  SET_BIT(EXTI->IMR, ExtiLine);
 8004458:	4b05      	ldr	r3, [pc, #20]	; (8004470 <LL_EXTI_EnableIT_0_31+0x20>)
 800445a:	681a      	ldr	r2, [r3, #0]
 800445c:	4904      	ldr	r1, [pc, #16]	; (8004470 <LL_EXTI_EnableIT_0_31+0x20>)
 800445e:	687b      	ldr	r3, [r7, #4]
 8004460:	4313      	orrs	r3, r2
 8004462:	600b      	str	r3, [r1, #0]
}
 8004464:	bf00      	nop
 8004466:	370c      	adds	r7, #12
 8004468:	46bd      	mov	sp, r7
 800446a:	bc80      	pop	{r7}
 800446c:	4770      	bx	lr
 800446e:	bf00      	nop
 8004470:	40010400 	.word	0x40010400

08004474 <LL_EXTI_DisableIT_0_31>:
{
 8004474:	b480      	push	{r7}
 8004476:	b083      	sub	sp, #12
 8004478:	af00      	add	r7, sp, #0
 800447a:	6078      	str	r0, [r7, #4]
  CLEAR_BIT(EXTI->IMR, ExtiLine);
 800447c:	4b05      	ldr	r3, [pc, #20]	; (8004494 <LL_EXTI_DisableIT_0_31+0x20>)
 800447e:	681a      	ldr	r2, [r3, #0]
 8004480:	687b      	ldr	r3, [r7, #4]
 8004482:	43db      	mvns	r3, r3
 8004484:	4903      	ldr	r1, [pc, #12]	; (8004494 <LL_EXTI_DisableIT_0_31+0x20>)
 8004486:	4013      	ands	r3, r2
 8004488:	600b      	str	r3, [r1, #0]
}
 800448a:	bf00      	nop
 800448c:	370c      	adds	r7, #12
 800448e:	46bd      	mov	sp, r7
 8004490:	bc80      	pop	{r7}
 8004492:	4770      	bx	lr
 8004494:	40010400 	.word	0x40010400

08004498 <LL_EXTI_EnableEvent_0_31>:
{
 8004498:	b480      	push	{r7}
 800449a:	b083      	sub	sp, #12
 800449c:	af00      	add	r7, sp, #0
 800449e:	6078      	str	r0, [r7, #4]
  SET_BIT(EXTI->EMR, ExtiLine);
 80044a0:	4b05      	ldr	r3, [pc, #20]	; (80044b8 <LL_EXTI_EnableEvent_0_31+0x20>)
 80044a2:	685a      	ldr	r2, [r3, #4]
 80044a4:	4904      	ldr	r1, [pc, #16]	; (80044b8 <LL_EXTI_EnableEvent_0_31+0x20>)
 80044a6:	687b      	ldr	r3, [r7, #4]
 80044a8:	4313      	orrs	r3, r2
 80044aa:	604b      	str	r3, [r1, #4]
}
 80044ac:	bf00      	nop
 80044ae:	370c      	adds	r7, #12
 80044b0:	46bd      	mov	sp, r7
 80044b2:	bc80      	pop	{r7}
 80044b4:	4770      	bx	lr
 80044b6:	bf00      	nop
 80044b8:	40010400 	.word	0x40010400

080044bc <LL_EXTI_DisableEvent_0_31>:
{
 80044bc:	b480      	push	{r7}
 80044be:	b083      	sub	sp, #12
 80044c0:	af00      	add	r7, sp, #0
 80044c2:	6078      	str	r0, [r7, #4]
  CLEAR_BIT(EXTI->EMR, ExtiLine);
 80044c4:	4b05      	ldr	r3, [pc, #20]	; (80044dc <LL_EXTI_DisableEvent_0_31+0x20>)
 80044c6:	685a      	ldr	r2, [r3, #4]
 80044c8:	687b      	ldr	r3, [r7, #4]
 80044ca:	43db      	mvns	r3, r3
 80044cc:	4903      	ldr	r1, [pc, #12]	; (80044dc <LL_EXTI_DisableEvent_0_31+0x20>)
 80044ce:	4013      	ands	r3, r2
 80044d0:	604b      	str	r3, [r1, #4]
}
 80044d2:	bf00      	nop
 80044d4:	370c      	adds	r7, #12
 80044d6:	46bd      	mov	sp, r7
 80044d8:	bc80      	pop	{r7}
 80044da:	4770      	bx	lr
 80044dc:	40010400 	.word	0x40010400

080044e0 <LL_EXTI_EnableRisingTrig_0_31>:
{
 80044e0:	b480      	push	{r7}
 80044e2:	b083      	sub	sp, #12
 80044e4:	af00      	add	r7, sp, #0
 80044e6:	6078      	str	r0, [r7, #4]
  SET_BIT(EXTI->RTSR, ExtiLine);
 80044e8:	4b05      	ldr	r3, [pc, #20]	; (8004500 <LL_EXTI_EnableRisingTrig_0_31+0x20>)
 80044ea:	689a      	ldr	r2, [r3, #8]
 80044ec:	4904      	ldr	r1, [pc, #16]	; (8004500 <LL_EXTI_EnableRisingTrig_0_31+0x20>)
 80044ee:	687b      	ldr	r3, [r7, #4]
 80044f0:	4313      	orrs	r3, r2
 80044f2:	608b      	str	r3, [r1, #8]
}
 80044f4:	bf00      	nop
 80044f6:	370c      	adds	r7, #12
 80044f8:	46bd      	mov	sp, r7
 80044fa:	bc80      	pop	{r7}
 80044fc:	4770      	bx	lr
 80044fe:	bf00      	nop
 8004500:	40010400 	.word	0x40010400

08004504 <LL_EXTI_DisableRisingTrig_0_31>:
{
 8004504:	b480      	push	{r7}
 8004506:	b083      	sub	sp, #12
 8004508:	af00      	add	r7, sp, #0
 800450a:	6078      	str	r0, [r7, #4]
  CLEAR_BIT(EXTI->RTSR, ExtiLine);
 800450c:	4b05      	ldr	r3, [pc, #20]	; (8004524 <LL_EXTI_DisableRisingTrig_0_31+0x20>)
 800450e:	689a      	ldr	r2, [r3, #8]
 8004510:	687b      	ldr	r3, [r7, #4]
 8004512:	43db      	mvns	r3, r3
 8004514:	4903      	ldr	r1, [pc, #12]	; (8004524 <LL_EXTI_DisableRisingTrig_0_31+0x20>)
 8004516:	4013      	ands	r3, r2
 8004518:	608b      	str	r3, [r1, #8]
}
 800451a:	bf00      	nop
 800451c:	370c      	adds	r7, #12
 800451e:	46bd      	mov	sp, r7
 8004520:	bc80      	pop	{r7}
 8004522:	4770      	bx	lr
 8004524:	40010400 	.word	0x40010400

08004528 <LL_EXTI_EnableFallingTrig_0_31>:
{
 8004528:	b480      	push	{r7}
 800452a:	b083      	sub	sp, #12
 800452c:	af00      	add	r7, sp, #0
 800452e:	6078      	str	r0, [r7, #4]
  SET_BIT(EXTI->FTSR, ExtiLine);
 8004530:	4b05      	ldr	r3, [pc, #20]	; (8004548 <LL_EXTI_EnableFallingTrig_0_31+0x20>)
 8004532:	68da      	ldr	r2, [r3, #12]
 8004534:	4904      	ldr	r1, [pc, #16]	; (8004548 <LL_EXTI_EnableFallingTrig_0_31+0x20>)
 8004536:	687b      	ldr	r3, [r7, #4]
 8004538:	4313      	orrs	r3, r2
 800453a:	60cb      	str	r3, [r1, #12]
}
 800453c:	bf00      	nop
 800453e:	370c      	adds	r7, #12
 8004540:	46bd      	mov	sp, r7
 8004542:	bc80      	pop	{r7}
 8004544:	4770      	bx	lr
 8004546:	bf00      	nop
 8004548:	40010400 	.word	0x40010400

0800454c <LL_EXTI_DisableFallingTrig_0_31>:
{
 800454c:	b480      	push	{r7}
 800454e:	b083      	sub	sp, #12
 8004550:	af00      	add	r7, sp, #0
 8004552:	6078      	str	r0, [r7, #4]
  CLEAR_BIT(EXTI->FTSR, ExtiLine);
 8004554:	4b05      	ldr	r3, [pc, #20]	; (800456c <LL_EXTI_DisableFallingTrig_0_31+0x20>)
 8004556:	68da      	ldr	r2, [r3, #12]
 8004558:	687b      	ldr	r3, [r7, #4]
 800455a:	43db      	mvns	r3, r3
 800455c:	4903      	ldr	r1, [pc, #12]	; (800456c <LL_EXTI_DisableFallingTrig_0_31+0x20>)
 800455e:	4013      	ands	r3, r2
 8004560:	60cb      	str	r3, [r1, #12]
}
 8004562:	bf00      	nop
 8004564:	370c      	adds	r7, #12
 8004566:	46bd      	mov	sp, r7
 8004568:	bc80      	pop	{r7}
 800456a:	4770      	bx	lr
 800456c:	40010400 	.word	0x40010400

08004570 <LL_EXTI_Init>:
  * @retval An ErrorStatus enumeration value:
  *          - SUCCESS: EXTI registers are initialized
  *          - ERROR: not applicable
  */
uint32_t LL_EXTI_Init(LL_EXTI_InitTypeDef *EXTI_InitStruct)
{
 8004570:	b580      	push	{r7, lr}
 8004572:	b084      	sub	sp, #16
 8004574:	af00      	add	r7, sp, #0
 8004576:	6078      	str	r0, [r7, #4]
  ErrorStatus status = SUCCESS;
 8004578:	2300      	movs	r3, #0
 800457a:	73fb      	strb	r3, [r7, #15]
  assert_param(IS_LL_EXTI_LINE_0_31(EXTI_InitStruct->Line_0_31));
  assert_param(IS_FUNCTIONAL_STATE(EXTI_InitStruct->LineCommand));
  assert_param(IS_LL_EXTI_MODE(EXTI_InitStruct->Mode));

  /* ENABLE LineCommand */
  if (EXTI_InitStruct->LineCommand != DISABLE)
 800457c:	687b      	ldr	r3, [r7, #4]
 800457e:	791b      	ldrb	r3, [r3, #4]
 8004580:	2b00      	cmp	r3, #0
 8004582:	d060      	beq.n	8004646 <LL_EXTI_Init+0xd6>
  {
    assert_param(IS_LL_EXTI_TRIGGER(EXTI_InitStruct->Trigger));

    /* Configure EXTI Lines in range from 0 to 31 */
    if (EXTI_InitStruct->Line_0_31 != LL_EXTI_LINE_NONE)
 8004584:	687b      	ldr	r3, [r7, #4]
 8004586:	681b      	ldr	r3, [r3, #0]
 8004588:	2b00      	cmp	r3, #0
 800458a:	d067      	beq.n	800465c <LL_EXTI_Init+0xec>
    {
      switch (EXTI_InitStruct->Mode)
 800458c:	687b      	ldr	r3, [r7, #4]
 800458e:	795b      	ldrb	r3, [r3, #5]
 8004590:	2b01      	cmp	r3, #1
 8004592:	d00e      	beq.n	80045b2 <LL_EXTI_Init+0x42>
 8004594:	2b02      	cmp	r3, #2
 8004596:	d017      	beq.n	80045c8 <LL_EXTI_Init+0x58>
 8004598:	2b00      	cmp	r3, #0
 800459a:	d120      	bne.n	80045de <LL_EXTI_Init+0x6e>
      {
        case LL_EXTI_MODE_IT:
          /* First Disable Event on provided Lines */
          LL_EXTI_DisableEvent_0_31(EXTI_InitStruct->Line_0_31);
 800459c:	687b      	ldr	r3, [r7, #4]
 800459e:	681b      	ldr	r3, [r3, #0]
 80045a0:	4618      	mov	r0, r3
 80045a2:	f7ff ff8b 	bl	80044bc <LL_EXTI_DisableEvent_0_31>
          /* Then Enable IT on provided Lines */
          LL_EXTI_EnableIT_0_31(EXTI_InitStruct->Line_0_31);
 80045a6:	687b      	ldr	r3, [r7, #4]
 80045a8:	681b      	ldr	r3, [r3, #0]
 80045aa:	4618      	mov	r0, r3
 80045ac:	f7ff ff50 	bl	8004450 <LL_EXTI_EnableIT_0_31>
          break;
 80045b0:	e018      	b.n	80045e4 <LL_EXTI_Init+0x74>
        case LL_EXTI_MODE_EVENT:
          /* First Disable IT on provided Lines */
          LL_EXTI_DisableIT_0_31(EXTI_InitStruct->Line_0_31);
 80045b2:	687b      	ldr	r3, [r7, #4]
 80045b4:	681b      	ldr	r3, [r3, #0]
 80045b6:	4618      	mov	r0, r3
 80045b8:	f7ff ff5c 	bl	8004474 <LL_EXTI_DisableIT_0_31>
          /* Then Enable Event on provided Lines */
          LL_EXTI_EnableEvent_0_31(EXTI_InitStruct->Line_0_31);
 80045bc:	687b      	ldr	r3, [r7, #4]
 80045be:	681b      	ldr	r3, [r3, #0]
 80045c0:	4618      	mov	r0, r3
 80045c2:	f7ff ff69 	bl	8004498 <LL_EXTI_EnableEvent_0_31>
          break;
 80045c6:	e00d      	b.n	80045e4 <LL_EXTI_Init+0x74>
        case LL_EXTI_MODE_IT_EVENT:
          /* Directly Enable IT & Event on provided Lines */
          LL_EXTI_EnableIT_0_31(EXTI_InitStruct->Line_0_31);
 80045c8:	687b      	ldr	r3, [r7, #4]
 80045ca:	681b      	ldr	r3, [r3, #0]
 80045cc:	4618      	mov	r0, r3
 80045ce:	f7ff ff3f 	bl	8004450 <LL_EXTI_EnableIT_0_31>
          LL_EXTI_EnableEvent_0_31(EXTI_InitStruct->Line_0_31);
 80045d2:	687b      	ldr	r3, [r7, #4]
 80045d4:	681b      	ldr	r3, [r3, #0]
 80045d6:	4618      	mov	r0, r3
 80045d8:	f7ff ff5e 	bl	8004498 <LL_EXTI_EnableEvent_0_31>
          break;
 80045dc:	e002      	b.n	80045e4 <LL_EXTI_Init+0x74>
        default:
          status = ERROR;
 80045de:	2301      	movs	r3, #1
 80045e0:	73fb      	strb	r3, [r7, #15]
          break;
 80045e2:	bf00      	nop
      }
      if (EXTI_InitStruct->Trigger != LL_EXTI_TRIGGER_NONE)
 80045e4:	687b      	ldr	r3, [r7, #4]
 80045e6:	799b      	ldrb	r3, [r3, #6]
 80045e8:	2b00      	cmp	r3, #0
 80045ea:	d037      	beq.n	800465c <LL_EXTI_Init+0xec>
      {
        switch (EXTI_InitStruct->Trigger)
 80045ec:	687b      	ldr	r3, [r7, #4]
 80045ee:	799b      	ldrb	r3, [r3, #6]
 80045f0:	2b02      	cmp	r3, #2
 80045f2:	d00e      	beq.n	8004612 <LL_EXTI_Init+0xa2>
 80045f4:	2b03      	cmp	r3, #3
 80045f6:	d017      	beq.n	8004628 <LL_EXTI_Init+0xb8>
 80045f8:	2b01      	cmp	r3, #1
 80045fa:	d120      	bne.n	800463e <LL_EXTI_Init+0xce>
        {
          case LL_EXTI_TRIGGER_RISING:
            /* First Disable Falling Trigger on provided Lines */
            LL_EXTI_DisableFallingTrig_0_31(EXTI_InitStruct->Line_0_31);
 80045fc:	687b      	ldr	r3, [r7, #4]
 80045fe:	681b      	ldr	r3, [r3, #0]
 8004600:	4618      	mov	r0, r3
 8004602:	f7ff ffa3 	bl	800454c <LL_EXTI_DisableFallingTrig_0_31>
            /* Then Enable Rising Trigger on provided Lines */
            LL_EXTI_EnableRisingTrig_0_31(EXTI_InitStruct->Line_0_31);
 8004606:	687b      	ldr	r3, [r7, #4]
 8004608:	681b      	ldr	r3, [r3, #0]
 800460a:	4618      	mov	r0, r3
 800460c:	f7ff ff68 	bl	80044e0 <LL_EXTI_EnableRisingTrig_0_31>
            break;
 8004610:	e025      	b.n	800465e <LL_EXTI_Init+0xee>
          case LL_EXTI_TRIGGER_FALLING:
            /* First Disable Rising Trigger on provided Lines */
            LL_EXTI_DisableRisingTrig_0_31(EXTI_InitStruct->Line_0_31);
 8004612:	687b      	ldr	r3, [r7, #4]
 8004614:	681b      	ldr	r3, [r3, #0]
 8004616:	4618      	mov	r0, r3
 8004618:	f7ff ff74 	bl	8004504 <LL_EXTI_DisableRisingTrig_0_31>
            /* Then Enable Falling Trigger on provided Lines */
            LL_EXTI_EnableFallingTrig_0_31(EXTI_InitStruct->Line_0_31);
 800461c:	687b      	ldr	r3, [r7, #4]
 800461e:	681b      	ldr	r3, [r3, #0]
 8004620:	4618      	mov	r0, r3
 8004622:	f7ff ff81 	bl	8004528 <LL_EXTI_EnableFallingTrig_0_31>
            break;
 8004626:	e01a      	b.n	800465e <LL_EXTI_Init+0xee>
          case LL_EXTI_TRIGGER_RISING_FALLING:
            LL_EXTI_EnableRisingTrig_0_31(EXTI_InitStruct->Line_0_31);
 8004628:	687b      	ldr	r3, [r7, #4]
 800462a:	681b      	ldr	r3, [r3, #0]
 800462c:	4618      	mov	r0, r3
 800462e:	f7ff ff57 	bl	80044e0 <LL_EXTI_EnableRisingTrig_0_31>
            LL_EXTI_EnableFallingTrig_0_31(EXTI_InitStruct->Line_0_31);
 8004632:	687b      	ldr	r3, [r7, #4]
 8004634:	681b      	ldr	r3, [r3, #0]
 8004636:	4618      	mov	r0, r3
 8004638:	f7ff ff76 	bl	8004528 <LL_EXTI_EnableFallingTrig_0_31>
            break;
 800463c:	e00f      	b.n	800465e <LL_EXTI_Init+0xee>
          default:
            status = ERROR;
 800463e:	2301      	movs	r3, #1
 8004640:	73fb      	strb	r3, [r7, #15]
            break;
 8004642:	bf00      	nop
 8004644:	e00b      	b.n	800465e <LL_EXTI_Init+0xee>
  }
  /* DISABLE LineCommand */
  else
  {
    /* De-configure EXTI Lines in range from 0 to 31 */
    LL_EXTI_DisableIT_0_31(EXTI_InitStruct->Line_0_31);
 8004646:	687b      	ldr	r3, [r7, #4]
 8004648:	681b      	ldr	r3, [r3, #0]
 800464a:	4618      	mov	r0, r3
 800464c:	f7ff ff12 	bl	8004474 <LL_EXTI_DisableIT_0_31>
    LL_EXTI_DisableEvent_0_31(EXTI_InitStruct->Line_0_31);
 8004650:	687b      	ldr	r3, [r7, #4]
 8004652:	681b      	ldr	r3, [r3, #0]
 8004654:	4618      	mov	r0, r3
 8004656:	f7ff ff31 	bl	80044bc <LL_EXTI_DisableEvent_0_31>
 800465a:	e000      	b.n	800465e <LL_EXTI_Init+0xee>
      }
 800465c:	bf00      	nop
  }
  return status;
 800465e:	7bfb      	ldrb	r3, [r7, #15]
}
 8004660:	4618      	mov	r0, r3
 8004662:	3710      	adds	r7, #16
 8004664:	46bd      	mov	sp, r7
 8004666:	bd80      	pop	{r7, pc}

08004668 <LL_GPIO_SetPinMode>:
{
 8004668:	b490      	push	{r4, r7}
 800466a:	b088      	sub	sp, #32
 800466c:	af00      	add	r7, sp, #0
 800466e:	60f8      	str	r0, [r7, #12]
 8004670:	60b9      	str	r1, [r7, #8]
 8004672:	607a      	str	r2, [r7, #4]
  register uint32_t *pReg = (uint32_t *)((uint32_t)(&GPIOx->CRL) + (Pin >> 24));
 8004674:	68fb      	ldr	r3, [r7, #12]
 8004676:	461a      	mov	r2, r3
 8004678:	68bb      	ldr	r3, [r7, #8]
 800467a:	0e1b      	lsrs	r3, r3, #24
 800467c:	4413      	add	r3, r2
 800467e:	461c      	mov	r4, r3
  MODIFY_REG(*pReg, ((GPIO_CRL_CNF0 | GPIO_CRL_MODE0) << (POSITION_VAL(Pin) * 4U)), (Mode << (POSITION_VAL(Pin) * 4U)));
 8004680:	6822      	ldr	r2, [r4, #0]
 8004682:	68bb      	ldr	r3, [r7, #8]
 8004684:	617b      	str	r3, [r7, #20]
   __ASM volatile ("rbit %0, %1" : "=r" (result) : "r" (value) );
 8004686:	697b      	ldr	r3, [r7, #20]
 8004688:	fa93 f3a3 	rbit	r3, r3
 800468c:	613b      	str	r3, [r7, #16]
  return result;
 800468e:	693b      	ldr	r3, [r7, #16]
 8004690:	fab3 f383 	clz	r3, r3
 8004694:	b2db      	uxtb	r3, r3
 8004696:	009b      	lsls	r3, r3, #2
 8004698:	210f      	movs	r1, #15
 800469a:	fa01 f303 	lsl.w	r3, r1, r3
 800469e:	43db      	mvns	r3, r3
 80046a0:	401a      	ands	r2, r3
 80046a2:	68bb      	ldr	r3, [r7, #8]
 80046a4:	61fb      	str	r3, [r7, #28]
   __ASM volatile ("rbit %0, %1" : "=r" (result) : "r" (value) );
 80046a6:	69fb      	ldr	r3, [r7, #28]
 80046a8:	fa93 f3a3 	rbit	r3, r3
 80046ac:	61bb      	str	r3, [r7, #24]
  return result;
 80046ae:	69bb      	ldr	r3, [r7, #24]
 80046b0:	fab3 f383 	clz	r3, r3
 80046b4:	b2db      	uxtb	r3, r3
 80046b6:	009b      	lsls	r3, r3, #2
 80046b8:	6879      	ldr	r1, [r7, #4]
 80046ba:	fa01 f303 	lsl.w	r3, r1, r3
 80046be:	4313      	orrs	r3, r2
 80046c0:	6023      	str	r3, [r4, #0]
}
 80046c2:	bf00      	nop
 80046c4:	3720      	adds	r7, #32
 80046c6:	46bd      	mov	sp, r7
 80046c8:	bc90      	pop	{r4, r7}
 80046ca:	4770      	bx	lr

080046cc <LL_GPIO_SetPinSpeed>:
{
 80046cc:	b490      	push	{r4, r7}
 80046ce:	b088      	sub	sp, #32
 80046d0:	af00      	add	r7, sp, #0
 80046d2:	60f8      	str	r0, [r7, #12]
 80046d4:	60b9      	str	r1, [r7, #8]
 80046d6:	607a      	str	r2, [r7, #4]
  register uint32_t *pReg = (uint32_t *)((uint32_t)(&GPIOx->CRL) + (Pin >> 24));
 80046d8:	68fb      	ldr	r3, [r7, #12]
 80046da:	461a      	mov	r2, r3
 80046dc:	68bb      	ldr	r3, [r7, #8]
 80046de:	0e1b      	lsrs	r3, r3, #24
 80046e0:	4413      	add	r3, r2
 80046e2:	461c      	mov	r4, r3
  MODIFY_REG(*pReg, (GPIO_CRL_MODE0 << (POSITION_VAL(Pin) * 4U)),
 80046e4:	6822      	ldr	r2, [r4, #0]
 80046e6:	68bb      	ldr	r3, [r7, #8]
 80046e8:	617b      	str	r3, [r7, #20]
   __ASM volatile ("rbit %0, %1" : "=r" (result) : "r" (value) );
 80046ea:	697b      	ldr	r3, [r7, #20]
 80046ec:	fa93 f3a3 	rbit	r3, r3
 80046f0:	613b      	str	r3, [r7, #16]
  return result;
 80046f2:	693b      	ldr	r3, [r7, #16]
 80046f4:	fab3 f383 	clz	r3, r3
 80046f8:	b2db      	uxtb	r3, r3
 80046fa:	009b      	lsls	r3, r3, #2
 80046fc:	2103      	movs	r1, #3
 80046fe:	fa01 f303 	lsl.w	r3, r1, r3
 8004702:	43db      	mvns	r3, r3
 8004704:	401a      	ands	r2, r3
 8004706:	68bb      	ldr	r3, [r7, #8]
 8004708:	61fb      	str	r3, [r7, #28]
   __ASM volatile ("rbit %0, %1" : "=r" (result) : "r" (value) );
 800470a:	69fb      	ldr	r3, [r7, #28]
 800470c:	fa93 f3a3 	rbit	r3, r3
 8004710:	61bb      	str	r3, [r7, #24]
  return result;
 8004712:	69bb      	ldr	r3, [r7, #24]
 8004714:	fab3 f383 	clz	r3, r3
 8004718:	b2db      	uxtb	r3, r3
 800471a:	009b      	lsls	r3, r3, #2
 800471c:	6879      	ldr	r1, [r7, #4]
 800471e:	fa01 f303 	lsl.w	r3, r1, r3
 8004722:	4313      	orrs	r3, r2
 8004724:	6023      	str	r3, [r4, #0]
}
 8004726:	bf00      	nop
 8004728:	3720      	adds	r7, #32
 800472a:	46bd      	mov	sp, r7
 800472c:	bc90      	pop	{r4, r7}
 800472e:	4770      	bx	lr

08004730 <LL_GPIO_SetPinOutputType>:
{
 8004730:	b490      	push	{r4, r7}
 8004732:	b088      	sub	sp, #32
 8004734:	af00      	add	r7, sp, #0
 8004736:	60f8      	str	r0, [r7, #12]
 8004738:	60b9      	str	r1, [r7, #8]
 800473a:	607a      	str	r2, [r7, #4]
  register uint32_t *pReg = (uint32_t *)((uint32_t)(&GPIOx->CRL) + (Pin >> 24));
 800473c:	68fb      	ldr	r3, [r7, #12]
 800473e:	461a      	mov	r2, r3
 8004740:	68bb      	ldr	r3, [r7, #8]
 8004742:	0e1b      	lsrs	r3, r3, #24
 8004744:	4413      	add	r3, r2
 8004746:	461c      	mov	r4, r3
  MODIFY_REG(*pReg, (GPIO_CRL_CNF0_0 << (POSITION_VAL(Pin) * 4U)),
 8004748:	6822      	ldr	r2, [r4, #0]
 800474a:	68bb      	ldr	r3, [r7, #8]
 800474c:	617b      	str	r3, [r7, #20]
   __ASM volatile ("rbit %0, %1" : "=r" (result) : "r" (value) );
 800474e:	697b      	ldr	r3, [r7, #20]
 8004750:	fa93 f3a3 	rbit	r3, r3
 8004754:	613b      	str	r3, [r7, #16]
  return result;
 8004756:	693b      	ldr	r3, [r7, #16]
 8004758:	fab3 f383 	clz	r3, r3
 800475c:	b2db      	uxtb	r3, r3
 800475e:	009b      	lsls	r3, r3, #2
 8004760:	2104      	movs	r1, #4
 8004762:	fa01 f303 	lsl.w	r3, r1, r3
 8004766:	43db      	mvns	r3, r3
 8004768:	401a      	ands	r2, r3
 800476a:	68bb      	ldr	r3, [r7, #8]
 800476c:	61fb      	str	r3, [r7, #28]
   __ASM volatile ("rbit %0, %1" : "=r" (result) : "r" (value) );
 800476e:	69fb      	ldr	r3, [r7, #28]
 8004770:	fa93 f3a3 	rbit	r3, r3
 8004774:	61bb      	str	r3, [r7, #24]
  return result;
 8004776:	69bb      	ldr	r3, [r7, #24]
 8004778:	fab3 f383 	clz	r3, r3
 800477c:	b2db      	uxtb	r3, r3
 800477e:	009b      	lsls	r3, r3, #2
 8004780:	6879      	ldr	r1, [r7, #4]
 8004782:	fa01 f303 	lsl.w	r3, r1, r3
 8004786:	4313      	orrs	r3, r2
 8004788:	6023      	str	r3, [r4, #0]
}
 800478a:	bf00      	nop
 800478c:	3720      	adds	r7, #32
 800478e:	46bd      	mov	sp, r7
 8004790:	bc90      	pop	{r4, r7}
 8004792:	4770      	bx	lr

08004794 <LL_GPIO_SetPinPull>:
{
 8004794:	b480      	push	{r7}
 8004796:	b087      	sub	sp, #28
 8004798:	af00      	add	r7, sp, #0
 800479a:	60f8      	str	r0, [r7, #12]
 800479c:	60b9      	str	r1, [r7, #8]
 800479e:	607a      	str	r2, [r7, #4]
  MODIFY_REG(GPIOx->ODR, (Pin >> GPIO_PIN_MASK_POS), Pull << (POSITION_VAL(Pin >> GPIO_PIN_MASK_POS)));
 80047a0:	68fb      	ldr	r3, [r7, #12]
 80047a2:	68da      	ldr	r2, [r3, #12]
 80047a4:	68bb      	ldr	r3, [r7, #8]
 80047a6:	0a1b      	lsrs	r3, r3, #8
 80047a8:	43db      	mvns	r3, r3
 80047aa:	401a      	ands	r2, r3
 80047ac:	68bb      	ldr	r3, [r7, #8]
 80047ae:	0a1b      	lsrs	r3, r3, #8
 80047b0:	617b      	str	r3, [r7, #20]
   __ASM volatile ("rbit %0, %1" : "=r" (result) : "r" (value) );
 80047b2:	697b      	ldr	r3, [r7, #20]
 80047b4:	fa93 f3a3 	rbit	r3, r3
 80047b8:	613b      	str	r3, [r7, #16]
  return result;
 80047ba:	693b      	ldr	r3, [r7, #16]
 80047bc:	fab3 f383 	clz	r3, r3
 80047c0:	b2db      	uxtb	r3, r3
 80047c2:	4619      	mov	r1, r3
 80047c4:	687b      	ldr	r3, [r7, #4]
 80047c6:	408b      	lsls	r3, r1
 80047c8:	431a      	orrs	r2, r3
 80047ca:	68fb      	ldr	r3, [r7, #12]
 80047cc:	60da      	str	r2, [r3, #12]
}
 80047ce:	bf00      	nop
 80047d0:	371c      	adds	r7, #28
 80047d2:	46bd      	mov	sp, r7
 80047d4:	bc80      	pop	{r7}
 80047d6:	4770      	bx	lr

080047d8 <LL_GPIO_Init>:
  * @retval An ErrorStatus enumeration value:
  *          - SUCCESS: GPIO registers are initialized according to GPIO_InitStruct content
  *          - ERROR:   Not applicable
  */
ErrorStatus LL_GPIO_Init(GPIO_TypeDef *GPIOx, LL_GPIO_InitTypeDef *GPIO_InitStruct)
{
 80047d8:	b580      	push	{r7, lr}
 80047da:	b088      	sub	sp, #32
 80047dc:	af00      	add	r7, sp, #0
 80047de:	6078      	str	r0, [r7, #4]
 80047e0:	6039      	str	r1, [r7, #0]
  assert_param(IS_LL_GPIO_PIN(GPIO_InitStruct->Pin));

  /* ------------------------- Configure the port pins ---------------- */
  /* Initialize  pinpos on first pin set */

  pinmask = ((GPIO_InitStruct->Pin) << GPIO_PIN_MASK_POS) >> GPIO_PIN_NB;
 80047e2:	683b      	ldr	r3, [r7, #0]
 80047e4:	681b      	ldr	r3, [r3, #0]
 80047e6:	021b      	lsls	r3, r3, #8
 80047e8:	0c1b      	lsrs	r3, r3, #16
 80047ea:	617b      	str	r3, [r7, #20]
 80047ec:	697b      	ldr	r3, [r7, #20]
 80047ee:	613b      	str	r3, [r7, #16]
   __ASM volatile ("rbit %0, %1" : "=r" (result) : "r" (value) );
 80047f0:	693b      	ldr	r3, [r7, #16]
 80047f2:	fa93 f3a3 	rbit	r3, r3
 80047f6:	60fb      	str	r3, [r7, #12]
  return result;
 80047f8:	68fb      	ldr	r3, [r7, #12]
  pinpos = POSITION_VAL(pinmask);
 80047fa:	fab3 f383 	clz	r3, r3
 80047fe:	b2db      	uxtb	r3, r3
 8004800:	61fb      	str	r3, [r7, #28]

  /* Configure the port pins */
  while ((pinmask  >> pinpos) != 0u)
 8004802:	e040      	b.n	8004886 <LL_GPIO_Init+0xae>
  {
    /* skip if bit is not set */
    if ((pinmask & (1u << pinpos)) != 0u)
 8004804:	2201      	movs	r2, #1
 8004806:	69fb      	ldr	r3, [r7, #28]
 8004808:	409a      	lsls	r2, r3
 800480a:	697b      	ldr	r3, [r7, #20]
 800480c:	4013      	ands	r3, r2
 800480e:	2b00      	cmp	r3, #0
 8004810:	d036      	beq.n	8004880 <LL_GPIO_Init+0xa8>
    {
      /* Get current io position */
      if (pinpos < GPIO_PIN_MASK_POS)
 8004812:	69fb      	ldr	r3, [r7, #28]
 8004814:	2b07      	cmp	r3, #7
 8004816:	d806      	bhi.n	8004826 <LL_GPIO_Init+0x4e>
      {
        currentpin = (0x00000101uL << pinpos);
 8004818:	f240 1201 	movw	r2, #257	; 0x101
 800481c:	69fb      	ldr	r3, [r7, #28]
 800481e:	fa02 f303 	lsl.w	r3, r2, r3
 8004822:	61bb      	str	r3, [r7, #24]
 8004824:	e008      	b.n	8004838 <LL_GPIO_Init+0x60>
      }
      else
      {
        currentpin = ((0x00010001u << (pinpos - GPIO_PIN_MASK_POS)) | 0x04000000u);
 8004826:	69fb      	ldr	r3, [r7, #28]
 8004828:	3b08      	subs	r3, #8
 800482a:	f04f 1201 	mov.w	r2, #65537	; 0x10001
 800482e:	fa02 f303 	lsl.w	r3, r2, r3
 8004832:	f043 6380 	orr.w	r3, r3, #67108864	; 0x4000000
 8004836:	61bb      	str	r3, [r7, #24]
      /* Check Pin Mode and Pin Pull parameters */
      assert_param(IS_LL_GPIO_MODE(GPIO_InitStruct->Mode));
      assert_param(IS_LL_GPIO_PULL(GPIO_InitStruct->Pull));

      /* Pin Mode configuration */
      LL_GPIO_SetPinMode(GPIOx, currentpin, GPIO_InitStruct->Mode);
 8004838:	683b      	ldr	r3, [r7, #0]
 800483a:	685b      	ldr	r3, [r3, #4]
 800483c:	461a      	mov	r2, r3
 800483e:	69b9      	ldr	r1, [r7, #24]
 8004840:	6878      	ldr	r0, [r7, #4]
 8004842:	f7ff ff11 	bl	8004668 <LL_GPIO_SetPinMode>

      /* Pull-up Pull-down resistor configuration*/
      LL_GPIO_SetPinPull(GPIOx, currentpin, GPIO_InitStruct->Pull);
 8004846:	683b      	ldr	r3, [r7, #0]
 8004848:	691b      	ldr	r3, [r3, #16]
 800484a:	461a      	mov	r2, r3
 800484c:	69b9      	ldr	r1, [r7, #24]
 800484e:	6878      	ldr	r0, [r7, #4]
 8004850:	f7ff ffa0 	bl	8004794 <LL_GPIO_SetPinPull>

      if ((GPIO_InitStruct->Mode == LL_GPIO_MODE_OUTPUT) || (GPIO_InitStruct->Mode == LL_GPIO_MODE_ALTERNATE))
 8004854:	683b      	ldr	r3, [r7, #0]
 8004856:	685b      	ldr	r3, [r3, #4]
 8004858:	2b01      	cmp	r3, #1
 800485a:	d003      	beq.n	8004864 <LL_GPIO_Init+0x8c>
 800485c:	683b      	ldr	r3, [r7, #0]
 800485e:	685b      	ldr	r3, [r3, #4]
 8004860:	2b09      	cmp	r3, #9
 8004862:	d10d      	bne.n	8004880 <LL_GPIO_Init+0xa8>
        /* Check speed and Output mode parameters */
        assert_param(IS_LL_GPIO_SPEED(GPIO_InitStruct->Speed));
        assert_param(IS_LL_GPIO_OUTPUT_TYPE(GPIO_InitStruct->OutputType));

        /* Speed mode configuration */
        LL_GPIO_SetPinSpeed(GPIOx, currentpin, GPIO_InitStruct->Speed);
 8004864:	683b      	ldr	r3, [r7, #0]
 8004866:	689b      	ldr	r3, [r3, #8]
 8004868:	461a      	mov	r2, r3
 800486a:	69b9      	ldr	r1, [r7, #24]
 800486c:	6878      	ldr	r0, [r7, #4]
 800486e:	f7ff ff2d 	bl	80046cc <LL_GPIO_SetPinSpeed>

        /* Output mode configuration*/
        LL_GPIO_SetPinOutputType(GPIOx, currentpin, GPIO_InitStruct->OutputType);
 8004872:	683b      	ldr	r3, [r7, #0]
 8004874:	68db      	ldr	r3, [r3, #12]
 8004876:	461a      	mov	r2, r3
 8004878:	69b9      	ldr	r1, [r7, #24]
 800487a:	6878      	ldr	r0, [r7, #4]
 800487c:	f7ff ff58 	bl	8004730 <LL_GPIO_SetPinOutputType>
      }
    }
    pinpos++;
 8004880:	69fb      	ldr	r3, [r7, #28]
 8004882:	3301      	adds	r3, #1
 8004884:	61fb      	str	r3, [r7, #28]
  while ((pinmask  >> pinpos) != 0u)
 8004886:	697a      	ldr	r2, [r7, #20]
 8004888:	69fb      	ldr	r3, [r7, #28]
 800488a:	fa22 f303 	lsr.w	r3, r2, r3
 800488e:	2b00      	cmp	r3, #0
 8004890:	d1b8      	bne.n	8004804 <LL_GPIO_Init+0x2c>
  }
  return (SUCCESS);
 8004892:	2300      	movs	r3, #0
}
 8004894:	4618      	mov	r0, r3
 8004896:	3720      	adds	r7, #32
 8004898:	46bd      	mov	sp, r7
 800489a:	bd80      	pop	{r7, pc}

0800489c <LL_I2C_Enable>:
{
 800489c:	b480      	push	{r7}
 800489e:	b083      	sub	sp, #12
 80048a0:	af00      	add	r7, sp, #0
 80048a2:	6078      	str	r0, [r7, #4]
  SET_BIT(I2Cx->CR1, I2C_CR1_PE);
 80048a4:	687b      	ldr	r3, [r7, #4]
 80048a6:	681b      	ldr	r3, [r3, #0]
 80048a8:	f043 0201 	orr.w	r2, r3, #1
 80048ac:	687b      	ldr	r3, [r7, #4]
 80048ae:	601a      	str	r2, [r3, #0]
}
 80048b0:	bf00      	nop
 80048b2:	370c      	adds	r7, #12
 80048b4:	46bd      	mov	sp, r7
 80048b6:	bc80      	pop	{r7}
 80048b8:	4770      	bx	lr

080048ba <LL_I2C_Disable>:
{
 80048ba:	b480      	push	{r7}
 80048bc:	b083      	sub	sp, #12
 80048be:	af00      	add	r7, sp, #0
 80048c0:	6078      	str	r0, [r7, #4]
  CLEAR_BIT(I2Cx->CR1, I2C_CR1_PE);
 80048c2:	687b      	ldr	r3, [r7, #4]
 80048c4:	681b      	ldr	r3, [r3, #0]
 80048c6:	f023 0201 	bic.w	r2, r3, #1
 80048ca:	687b      	ldr	r3, [r7, #4]
 80048cc:	601a      	str	r2, [r3, #0]
}
 80048ce:	bf00      	nop
 80048d0:	370c      	adds	r7, #12
 80048d2:	46bd      	mov	sp, r7
 80048d4:	bc80      	pop	{r7}
 80048d6:	4770      	bx	lr

080048d8 <LL_I2C_SetOwnAddress1>:
{
 80048d8:	b480      	push	{r7}
 80048da:	b085      	sub	sp, #20
 80048dc:	af00      	add	r7, sp, #0
 80048de:	60f8      	str	r0, [r7, #12]
 80048e0:	60b9      	str	r1, [r7, #8]
 80048e2:	607a      	str	r2, [r7, #4]
  MODIFY_REG(I2Cx->OAR1, I2C_OAR1_ADD0 | I2C_OAR1_ADD1_7 | I2C_OAR1_ADD8_9 | I2C_OAR1_ADDMODE, OwnAddress1 | OwnAddrSize);
 80048e4:	68fb      	ldr	r3, [r7, #12]
 80048e6:	689b      	ldr	r3, [r3, #8]
 80048e8:	f423 4303 	bic.w	r3, r3, #33536	; 0x8300
 80048ec:	f023 03ff 	bic.w	r3, r3, #255	; 0xff
 80048f0:	68b9      	ldr	r1, [r7, #8]
 80048f2:	687a      	ldr	r2, [r7, #4]
 80048f4:	430a      	orrs	r2, r1
 80048f6:	431a      	orrs	r2, r3
 80048f8:	68fb      	ldr	r3, [r7, #12]
 80048fa:	609a      	str	r2, [r3, #8]
}
 80048fc:	bf00      	nop
 80048fe:	3714      	adds	r7, #20
 8004900:	46bd      	mov	sp, r7
 8004902:	bc80      	pop	{r7}
 8004904:	4770      	bx	lr
	...

08004908 <LL_I2C_ConfigSpeed>:
  *         @arg @ref LL_I2C_DUTYCYCLE_16_9
  * @retval None
  */
__STATIC_INLINE void LL_I2C_ConfigSpeed(I2C_TypeDef *I2Cx, uint32_t PeriphClock, uint32_t ClockSpeed,
                                        uint32_t DutyCycle)
{
 8004908:	b490      	push	{r4, r7}
 800490a:	b084      	sub	sp, #16
 800490c:	af00      	add	r7, sp, #0
 800490e:	60f8      	str	r0, [r7, #12]
 8004910:	60b9      	str	r1, [r7, #8]
 8004912:	607a      	str	r2, [r7, #4]
 8004914:	603b      	str	r3, [r7, #0]
  register uint32_t freqrange = 0x0U;
 8004916:	2400      	movs	r4, #0
  register uint32_t clockconfig = 0x0U;
 8004918:	2400      	movs	r4, #0

  /* Compute frequency range */
  freqrange = __LL_I2C_FREQ_HZ_TO_MHZ(PeriphClock);
 800491a:	68bb      	ldr	r3, [r7, #8]
 800491c:	4a3f      	ldr	r2, [pc, #252]	; (8004a1c <LL_I2C_ConfigSpeed+0x114>)
 800491e:	fba2 2303 	umull	r2, r3, r2, r3
 8004922:	0c9c      	lsrs	r4, r3, #18

  /* Configure I2Cx: Frequency range register */
  MODIFY_REG(I2Cx->CR2, I2C_CR2_FREQ, freqrange);
 8004924:	68fb      	ldr	r3, [r7, #12]
 8004926:	685b      	ldr	r3, [r3, #4]
 8004928:	f023 033f 	bic.w	r3, r3, #63	; 0x3f
 800492c:	ea44 0203 	orr.w	r2, r4, r3
 8004930:	68fb      	ldr	r3, [r7, #12]
 8004932:	605a      	str	r2, [r3, #4]

  /* Configure I2Cx: Rise Time register */
  MODIFY_REG(I2Cx->TRISE, I2C_TRISE_TRISE, __LL_I2C_RISE_TIME(freqrange, ClockSpeed));
 8004934:	68fb      	ldr	r3, [r7, #12]
 8004936:	6a1b      	ldr	r3, [r3, #32]
 8004938:	f023 023f 	bic.w	r2, r3, #63	; 0x3f
 800493c:	687b      	ldr	r3, [r7, #4]
 800493e:	4938      	ldr	r1, [pc, #224]	; (8004a20 <LL_I2C_ConfigSpeed+0x118>)
 8004940:	428b      	cmp	r3, r1
 8004942:	d801      	bhi.n	8004948 <LL_I2C_ConfigSpeed+0x40>
 8004944:	1c63      	adds	r3, r4, #1
 8004946:	e008      	b.n	800495a <LL_I2C_ConfigSpeed+0x52>
 8004948:	f44f 7396 	mov.w	r3, #300	; 0x12c
 800494c:	fb03 f304 	mul.w	r3, r3, r4
 8004950:	4934      	ldr	r1, [pc, #208]	; (8004a24 <LL_I2C_ConfigSpeed+0x11c>)
 8004952:	fba1 1303 	umull	r1, r3, r1, r3
 8004956:	099b      	lsrs	r3, r3, #6
 8004958:	3301      	adds	r3, #1
 800495a:	431a      	orrs	r2, r3
 800495c:	68fb      	ldr	r3, [r7, #12]
 800495e:	621a      	str	r2, [r3, #32]

  /* Configure Speed mode, Duty Cycle and Clock control register value */
  if (ClockSpeed > LL_I2C_MAX_SPEED_STANDARD)
 8004960:	687b      	ldr	r3, [r7, #4]
 8004962:	4a2f      	ldr	r2, [pc, #188]	; (8004a20 <LL_I2C_ConfigSpeed+0x118>)
 8004964:	4293      	cmp	r3, r2
 8004966:	d939      	bls.n	80049dc <LL_I2C_ConfigSpeed+0xd4>
  {
    /* Set Speed mode at fast and duty cycle for Clock Speed request in fast clock range */
    clockconfig = LL_I2C_CLOCK_SPEED_FAST_MODE                                          | \
 8004968:	683b      	ldr	r3, [r7, #0]
 800496a:	2b00      	cmp	r3, #0
 800496c:	d117      	bne.n	800499e <LL_I2C_ConfigSpeed+0x96>
                  __LL_I2C_SPEED_FAST_TO_CCR(PeriphClock, ClockSpeed, DutyCycle)        | \
 800496e:	687a      	ldr	r2, [r7, #4]
 8004970:	4613      	mov	r3, r2
 8004972:	005b      	lsls	r3, r3, #1
 8004974:	4413      	add	r3, r2
 8004976:	68ba      	ldr	r2, [r7, #8]
 8004978:	fbb2 f3f3 	udiv	r3, r2, r3
 800497c:	f3c3 030b 	ubfx	r3, r3, #0, #12
    clockconfig = LL_I2C_CLOCK_SPEED_FAST_MODE                                          | \
 8004980:	2b00      	cmp	r3, #0
 8004982:	d009      	beq.n	8004998 <LL_I2C_ConfigSpeed+0x90>
                  __LL_I2C_SPEED_FAST_TO_CCR(PeriphClock, ClockSpeed, DutyCycle)        | \
 8004984:	687a      	ldr	r2, [r7, #4]
 8004986:	4613      	mov	r3, r2
 8004988:	005b      	lsls	r3, r3, #1
 800498a:	4413      	add	r3, r2
 800498c:	68ba      	ldr	r2, [r7, #8]
 800498e:	fbb2 f3f3 	udiv	r3, r2, r3
    clockconfig = LL_I2C_CLOCK_SPEED_FAST_MODE                                          | \
 8004992:	f443 4300 	orr.w	r3, r3, #32768	; 0x8000
 8004996:	e01d      	b.n	80049d4 <LL_I2C_ConfigSpeed+0xcc>
 8004998:	f248 0301 	movw	r3, #32769	; 0x8001
 800499c:	e01a      	b.n	80049d4 <LL_I2C_ConfigSpeed+0xcc>
                  __LL_I2C_SPEED_FAST_TO_CCR(PeriphClock, ClockSpeed, DutyCycle)        | \
 800499e:	687a      	ldr	r2, [r7, #4]
 80049a0:	4613      	mov	r3, r2
 80049a2:	009b      	lsls	r3, r3, #2
 80049a4:	4413      	add	r3, r2
 80049a6:	009a      	lsls	r2, r3, #2
 80049a8:	4413      	add	r3, r2
 80049aa:	68ba      	ldr	r2, [r7, #8]
 80049ac:	fbb2 f3f3 	udiv	r3, r2, r3
 80049b0:	f3c3 030b 	ubfx	r3, r3, #0, #12
    clockconfig = LL_I2C_CLOCK_SPEED_FAST_MODE                                          | \
 80049b4:	2b00      	cmp	r3, #0
 80049b6:	d00b      	beq.n	80049d0 <LL_I2C_ConfigSpeed+0xc8>
                  __LL_I2C_SPEED_FAST_TO_CCR(PeriphClock, ClockSpeed, DutyCycle)        | \
 80049b8:	687a      	ldr	r2, [r7, #4]
 80049ba:	4613      	mov	r3, r2
 80049bc:	009b      	lsls	r3, r3, #2
 80049be:	4413      	add	r3, r2
 80049c0:	009a      	lsls	r2, r3, #2
 80049c2:	4413      	add	r3, r2
 80049c4:	68ba      	ldr	r2, [r7, #8]
 80049c6:	fbb2 f3f3 	udiv	r3, r2, r3
    clockconfig = LL_I2C_CLOCK_SPEED_FAST_MODE                                          | \
 80049ca:	f443 4300 	orr.w	r3, r3, #32768	; 0x8000
 80049ce:	e001      	b.n	80049d4 <LL_I2C_ConfigSpeed+0xcc>
 80049d0:	f248 0301 	movw	r3, #32769	; 0x8001
 80049d4:	683a      	ldr	r2, [r7, #0]
 80049d6:	ea43 0402 	orr.w	r4, r3, r2
 80049da:	e010      	b.n	80049fe <LL_I2C_ConfigSpeed+0xf6>
  }
  else
  {
    /* Set Speed mode at standard for Clock Speed request in standard clock range */
    clockconfig = LL_I2C_CLOCK_SPEED_STANDARD_MODE                                      | \
                  __LL_I2C_SPEED_STANDARD_TO_CCR(PeriphClock, ClockSpeed);
 80049dc:	687b      	ldr	r3, [r7, #4]
 80049de:	005b      	lsls	r3, r3, #1
 80049e0:	68ba      	ldr	r2, [r7, #8]
 80049e2:	fbb2 f3f3 	udiv	r3, r2, r3
 80049e6:	f3c3 030b 	ubfx	r3, r3, #0, #12
    clockconfig = LL_I2C_CLOCK_SPEED_STANDARD_MODE                                      | \
 80049ea:	2b03      	cmp	r3, #3
 80049ec:	d905      	bls.n	80049fa <LL_I2C_ConfigSpeed+0xf2>
                  __LL_I2C_SPEED_STANDARD_TO_CCR(PeriphClock, ClockSpeed);
 80049ee:	687b      	ldr	r3, [r7, #4]
 80049f0:	005b      	lsls	r3, r3, #1
    clockconfig = LL_I2C_CLOCK_SPEED_STANDARD_MODE                                      | \
 80049f2:	68ba      	ldr	r2, [r7, #8]
 80049f4:	fbb2 f3f3 	udiv	r3, r2, r3
 80049f8:	e000      	b.n	80049fc <LL_I2C_ConfigSpeed+0xf4>
 80049fa:	2304      	movs	r3, #4
 80049fc:	461c      	mov	r4, r3
  }

  /* Configure I2Cx: Clock control register */
  MODIFY_REG(I2Cx->CCR, (I2C_CCR_FS | I2C_CCR_DUTY | I2C_CCR_CCR), clockconfig);
 80049fe:	68fb      	ldr	r3, [r7, #12]
 8004a00:	69db      	ldr	r3, [r3, #28]
 8004a02:	f423 434f 	bic.w	r3, r3, #52992	; 0xcf00
 8004a06:	f023 03ff 	bic.w	r3, r3, #255	; 0xff
 8004a0a:	ea44 0203 	orr.w	r2, r4, r3
 8004a0e:	68fb      	ldr	r3, [r7, #12]
 8004a10:	61da      	str	r2, [r3, #28]
}
 8004a12:	bf00      	nop
 8004a14:	3710      	adds	r7, #16
 8004a16:	46bd      	mov	sp, r7
 8004a18:	bc90      	pop	{r4, r7}
 8004a1a:	4770      	bx	lr
 8004a1c:	431bde83 	.word	0x431bde83
 8004a20:	000186a0 	.word	0x000186a0
 8004a24:	10624dd3 	.word	0x10624dd3

08004a28 <LL_I2C_SetMode>:
  *         @arg @ref LL_I2C_MODE_SMBUS_DEVICE
  *         @arg @ref LL_I2C_MODE_SMBUS_DEVICE_ARP
  * @retval None
  */
__STATIC_INLINE void LL_I2C_SetMode(I2C_TypeDef *I2Cx, uint32_t PeripheralMode)
{
 8004a28:	b480      	push	{r7}
 8004a2a:	b083      	sub	sp, #12
 8004a2c:	af00      	add	r7, sp, #0
 8004a2e:	6078      	str	r0, [r7, #4]
 8004a30:	6039      	str	r1, [r7, #0]
  MODIFY_REG(I2Cx->CR1, I2C_CR1_SMBUS | I2C_CR1_SMBTYPE | I2C_CR1_ENARP, PeripheralMode);
 8004a32:	687b      	ldr	r3, [r7, #4]
 8004a34:	681b      	ldr	r3, [r3, #0]
 8004a36:	f023 021a 	bic.w	r2, r3, #26
 8004a3a:	683b      	ldr	r3, [r7, #0]
 8004a3c:	431a      	orrs	r2, r3
 8004a3e:	687b      	ldr	r3, [r7, #4]
 8004a40:	601a      	str	r2, [r3, #0]
}
 8004a42:	bf00      	nop
 8004a44:	370c      	adds	r7, #12
 8004a46:	46bd      	mov	sp, r7
 8004a48:	bc80      	pop	{r7}
 8004a4a:	4770      	bx	lr

08004a4c <LL_I2C_AcknowledgeNextData>:
  *         @arg @ref LL_I2C_ACK
  *         @arg @ref LL_I2C_NACK
  * @retval None
  */
__STATIC_INLINE void LL_I2C_AcknowledgeNextData(I2C_TypeDef *I2Cx, uint32_t TypeAcknowledge)
{
 8004a4c:	b480      	push	{r7}
 8004a4e:	b083      	sub	sp, #12
 8004a50:	af00      	add	r7, sp, #0
 8004a52:	6078      	str	r0, [r7, #4]
 8004a54:	6039      	str	r1, [r7, #0]
  MODIFY_REG(I2Cx->CR1, I2C_CR1_ACK, TypeAcknowledge);
 8004a56:	687b      	ldr	r3, [r7, #4]
 8004a58:	681b      	ldr	r3, [r3, #0]
 8004a5a:	f423 6280 	bic.w	r2, r3, #1024	; 0x400
 8004a5e:	683b      	ldr	r3, [r7, #0]
 8004a60:	431a      	orrs	r2, r3
 8004a62:	687b      	ldr	r3, [r7, #4]
 8004a64:	601a      	str	r2, [r3, #0]
}
 8004a66:	bf00      	nop
 8004a68:	370c      	adds	r7, #12
 8004a6a:	46bd      	mov	sp, r7
 8004a6c:	bc80      	pop	{r7}
 8004a6e:	4770      	bx	lr

08004a70 <LL_I2C_Init>:
  * @retval An ErrorStatus enumeration value:
  *          - SUCCESS  I2C registers are initialized
  *          - ERROR  Not applicable
  */
uint32_t LL_I2C_Init(I2C_TypeDef *I2Cx, LL_I2C_InitTypeDef *I2C_InitStruct)
{
 8004a70:	b580      	push	{r7, lr}
 8004a72:	b086      	sub	sp, #24
 8004a74:	af00      	add	r7, sp, #0
 8004a76:	6078      	str	r0, [r7, #4]
 8004a78:	6039      	str	r1, [r7, #0]
  assert_param(IS_LL_I2C_OWN_ADDRESS1(I2C_InitStruct->OwnAddress1));
  assert_param(IS_LL_I2C_TYPE_ACKNOWLEDGE(I2C_InitStruct->TypeAcknowledge));
  assert_param(IS_LL_I2C_OWN_ADDRSIZE(I2C_InitStruct->OwnAddrSize));

  /* Disable the selected I2Cx Peripheral */
  LL_I2C_Disable(I2Cx);
 8004a7a:	6878      	ldr	r0, [r7, #4]
 8004a7c:	f7ff ff1d 	bl	80048ba <LL_I2C_Disable>

  /* Retrieve Clock frequencies */
  LL_RCC_GetSystemClocksFreq(&rcc_clocks);
 8004a80:	f107 0308 	add.w	r3, r7, #8
 8004a84:	4618      	mov	r0, r3
 8004a86:	f000 f87b 	bl	8004b80 <LL_RCC_GetSystemClocksFreq>
   * Configure the SCL speed :
   * - ClockSpeed: I2C_CR2_FREQ[5:0], I2C_TRISE_TRISE[5:0], I2C_CCR_FS,
   *           and I2C_CCR_CCR[11:0] bits
   * - DutyCycle: I2C_CCR_DUTY[7:0] bits
   */
  LL_I2C_ConfigSpeed(I2Cx, rcc_clocks.PCLK1_Frequency, I2C_InitStruct->ClockSpeed, I2C_InitStruct->DutyCycle);
 8004a8a:	6939      	ldr	r1, [r7, #16]
 8004a8c:	683b      	ldr	r3, [r7, #0]
 8004a8e:	685a      	ldr	r2, [r3, #4]
 8004a90:	683b      	ldr	r3, [r7, #0]
 8004a92:	689b      	ldr	r3, [r3, #8]
 8004a94:	6878      	ldr	r0, [r7, #4]
 8004a96:	f7ff ff37 	bl	8004908 <LL_I2C_ConfigSpeed>
  /*---------------------------- I2Cx OAR1 Configuration -----------------------
   * Disable, Configure and Enable I2Cx device own address 1 with parameters :
   * - OwnAddress1:  I2C_OAR1_ADD[9:8], I2C_OAR1_ADD[7:1] and I2C_OAR1_ADD0 bits
   * - OwnAddrSize:  I2C_OAR1_ADDMODE bit
   */
  LL_I2C_SetOwnAddress1(I2Cx, I2C_InitStruct->OwnAddress1, I2C_InitStruct->OwnAddrSize);
 8004a9a:	683b      	ldr	r3, [r7, #0]
 8004a9c:	68d9      	ldr	r1, [r3, #12]
 8004a9e:	683b      	ldr	r3, [r7, #0]
 8004aa0:	695b      	ldr	r3, [r3, #20]
 8004aa2:	461a      	mov	r2, r3
 8004aa4:	6878      	ldr	r0, [r7, #4]
 8004aa6:	f7ff ff17 	bl	80048d8 <LL_I2C_SetOwnAddress1>

  /*---------------------------- I2Cx MODE Configuration -----------------------
  * Configure I2Cx peripheral mode with parameter :
   * - PeripheralMode: I2C_CR1_SMBUS, I2C_CR1_SMBTYPE and I2C_CR1_ENARP bits
   */
  LL_I2C_SetMode(I2Cx, I2C_InitStruct->PeripheralMode);
 8004aaa:	683b      	ldr	r3, [r7, #0]
 8004aac:	681b      	ldr	r3, [r3, #0]
 8004aae:	4619      	mov	r1, r3
 8004ab0:	6878      	ldr	r0, [r7, #4]
 8004ab2:	f7ff ffb9 	bl	8004a28 <LL_I2C_SetMode>

  /* Enable the selected I2Cx Peripheral */
  LL_I2C_Enable(I2Cx);
 8004ab6:	6878      	ldr	r0, [r7, #4]
 8004ab8:	f7ff fef0 	bl	800489c <LL_I2C_Enable>
  /*---------------------------- I2Cx CR2 Configuration ------------------------
   * Configure the ACKnowledge or Non ACKnowledge condition
   * after the address receive match code or next received byte with parameter :
   * - TypeAcknowledge: I2C_CR2_NACK bit
   */
  LL_I2C_AcknowledgeNextData(I2Cx, I2C_InitStruct->TypeAcknowledge);
 8004abc:	683b      	ldr	r3, [r7, #0]
 8004abe:	691b      	ldr	r3, [r3, #16]
 8004ac0:	4619      	mov	r1, r3
 8004ac2:	6878      	ldr	r0, [r7, #4]
 8004ac4:	f7ff ffc2 	bl	8004a4c <LL_I2C_AcknowledgeNextData>

  return SUCCESS;
 8004ac8:	2300      	movs	r3, #0
}
 8004aca:	4618      	mov	r0, r3
 8004acc:	3718      	adds	r7, #24
 8004ace:	46bd      	mov	sp, r7
 8004ad0:	bd80      	pop	{r7, pc}
	...

08004ad4 <LL_RCC_GetSysClkSource>:
{
 8004ad4:	b480      	push	{r7}
 8004ad6:	af00      	add	r7, sp, #0
  return (uint32_t)(READ_BIT(RCC->CFGR, RCC_CFGR_SWS));
 8004ad8:	4b03      	ldr	r3, [pc, #12]	; (8004ae8 <LL_RCC_GetSysClkSource+0x14>)
 8004ada:	685b      	ldr	r3, [r3, #4]
 8004adc:	f003 030c 	and.w	r3, r3, #12
}
 8004ae0:	4618      	mov	r0, r3
 8004ae2:	46bd      	mov	sp, r7
 8004ae4:	bc80      	pop	{r7}
 8004ae6:	4770      	bx	lr
 8004ae8:	40021000 	.word	0x40021000

08004aec <LL_RCC_GetAHBPrescaler>:
{
 8004aec:	b480      	push	{r7}
 8004aee:	af00      	add	r7, sp, #0
  return (uint32_t)(READ_BIT(RCC->CFGR, RCC_CFGR_HPRE));
 8004af0:	4b03      	ldr	r3, [pc, #12]	; (8004b00 <LL_RCC_GetAHBPrescaler+0x14>)
 8004af2:	685b      	ldr	r3, [r3, #4]
 8004af4:	f003 03f0 	and.w	r3, r3, #240	; 0xf0
}
 8004af8:	4618      	mov	r0, r3
 8004afa:	46bd      	mov	sp, r7
 8004afc:	bc80      	pop	{r7}
 8004afe:	4770      	bx	lr
 8004b00:	40021000 	.word	0x40021000

08004b04 <LL_RCC_GetAPB1Prescaler>:
{
 8004b04:	b480      	push	{r7}
 8004b06:	af00      	add	r7, sp, #0
  return (uint32_t)(READ_BIT(RCC->CFGR, RCC_CFGR_PPRE1));
 8004b08:	4b03      	ldr	r3, [pc, #12]	; (8004b18 <LL_RCC_GetAPB1Prescaler+0x14>)
 8004b0a:	685b      	ldr	r3, [r3, #4]
 8004b0c:	f403 63e0 	and.w	r3, r3, #1792	; 0x700
}
 8004b10:	4618      	mov	r0, r3
 8004b12:	46bd      	mov	sp, r7
 8004b14:	bc80      	pop	{r7}
 8004b16:	4770      	bx	lr
 8004b18:	40021000 	.word	0x40021000

08004b1c <LL_RCC_GetAPB2Prescaler>:
{
 8004b1c:	b480      	push	{r7}
 8004b1e:	af00      	add	r7, sp, #0
  return (uint32_t)(READ_BIT(RCC->CFGR, RCC_CFGR_PPRE2));
 8004b20:	4b03      	ldr	r3, [pc, #12]	; (8004b30 <LL_RCC_GetAPB2Prescaler+0x14>)
 8004b22:	685b      	ldr	r3, [r3, #4]
 8004b24:	f403 5360 	and.w	r3, r3, #14336	; 0x3800
}
 8004b28:	4618      	mov	r0, r3
 8004b2a:	46bd      	mov	sp, r7
 8004b2c:	bc80      	pop	{r7}
 8004b2e:	4770      	bx	lr
 8004b30:	40021000 	.word	0x40021000

08004b34 <LL_RCC_PLL_GetMainSource>:
  *         @arg @ref LL_RCC_PLLSOURCE_PLL2 (*)
  *
  *         (*) value not defined in all devices
  */
__STATIC_INLINE uint32_t LL_RCC_PLL_GetMainSource(void)
{
 8004b34:	b480      	push	{r7}
 8004b36:	af00      	add	r7, sp, #0
#if defined(RCC_CFGR2_PREDIV1SRC)
  register uint32_t pllsrc = READ_BIT(RCC->CFGR, RCC_CFGR_PLLSRC);
  register uint32_t predivsrc = (uint32_t)(READ_BIT(RCC->CFGR2, RCC_CFGR2_PREDIV1SRC) << 4U);
  return (uint32_t)(pllsrc | predivsrc);
#else
  return (uint32_t)(READ_BIT(RCC->CFGR, RCC_CFGR_PLLSRC));
 8004b38:	4b03      	ldr	r3, [pc, #12]	; (8004b48 <LL_RCC_PLL_GetMainSource+0x14>)
 8004b3a:	685b      	ldr	r3, [r3, #4]
 8004b3c:	f403 3380 	and.w	r3, r3, #65536	; 0x10000
#endif /*RCC_CFGR2_PREDIV1SRC*/
}
 8004b40:	4618      	mov	r0, r3
 8004b42:	46bd      	mov	sp, r7
 8004b44:	bc80      	pop	{r7}
 8004b46:	4770      	bx	lr
 8004b48:	40021000 	.word	0x40021000

08004b4c <LL_RCC_PLL_GetMultiplicator>:
  *         @arg @ref LL_RCC_PLL_MUL_16 (*)
  *
  *         (*) value not defined in all devices
  */
__STATIC_INLINE uint32_t LL_RCC_PLL_GetMultiplicator(void)
{
 8004b4c:	b480      	push	{r7}
 8004b4e:	af00      	add	r7, sp, #0
  return (uint32_t)(READ_BIT(RCC->CFGR, RCC_CFGR_PLLMULL));
 8004b50:	4b03      	ldr	r3, [pc, #12]	; (8004b60 <LL_RCC_PLL_GetMultiplicator+0x14>)
 8004b52:	685b      	ldr	r3, [r3, #4]
 8004b54:	f403 1370 	and.w	r3, r3, #3932160	; 0x3c0000
}
 8004b58:	4618      	mov	r0, r3
 8004b5a:	46bd      	mov	sp, r7
 8004b5c:	bc80      	pop	{r7}
 8004b5e:	4770      	bx	lr
 8004b60:	40021000 	.word	0x40021000

08004b64 <LL_RCC_PLL_GetPrediv>:
  *         @arg @ref LL_RCC_PREDIV_DIV_16 (*)
  *
  *         (*) value not defined in all devices
  */
__STATIC_INLINE uint32_t LL_RCC_PLL_GetPrediv(void)
{
 8004b64:	b480      	push	{r7}
 8004b66:	af00      	add	r7, sp, #0
#if defined(RCC_CFGR2_PREDIV1)
  return (uint32_t)(READ_BIT(RCC->CFGR2, RCC_CFGR2_PREDIV1));
#else
  return (uint32_t)(READ_BIT(RCC->CFGR, RCC_CFGR_PLLXTPRE) >> RCC_CFGR_PLLXTPRE_Pos);
 8004b68:	4b04      	ldr	r3, [pc, #16]	; (8004b7c <LL_RCC_PLL_GetPrediv+0x18>)
 8004b6a:	685b      	ldr	r3, [r3, #4]
 8004b6c:	0c5b      	lsrs	r3, r3, #17
 8004b6e:	f003 0301 	and.w	r3, r3, #1
#endif /*RCC_CFGR2_PREDIV1*/
}
 8004b72:	4618      	mov	r0, r3
 8004b74:	46bd      	mov	sp, r7
 8004b76:	bc80      	pop	{r7}
 8004b78:	4770      	bx	lr
 8004b7a:	bf00      	nop
 8004b7c:	40021000 	.word	0x40021000

08004b80 <LL_RCC_GetSystemClocksFreq>:
  *         configuration based on this function will be incorrect.
  * @param  RCC_Clocks pointer to a @ref LL_RCC_ClocksTypeDef structure which will hold the clocks frequencies
  * @retval None
  */
void LL_RCC_GetSystemClocksFreq(LL_RCC_ClocksTypeDef *RCC_Clocks)
{
 8004b80:	b580      	push	{r7, lr}
 8004b82:	b082      	sub	sp, #8
 8004b84:	af00      	add	r7, sp, #0
 8004b86:	6078      	str	r0, [r7, #4]
  /* Get SYSCLK frequency */
  RCC_Clocks->SYSCLK_Frequency = RCC_GetSystemClockFreq();
 8004b88:	f000 f820 	bl	8004bcc <RCC_GetSystemClockFreq>
 8004b8c:	4602      	mov	r2, r0
 8004b8e:	687b      	ldr	r3, [r7, #4]
 8004b90:	601a      	str	r2, [r3, #0]

  /* HCLK clock frequency */
  RCC_Clocks->HCLK_Frequency   = RCC_GetHCLKClockFreq(RCC_Clocks->SYSCLK_Frequency);
 8004b92:	687b      	ldr	r3, [r7, #4]
 8004b94:	681b      	ldr	r3, [r3, #0]
 8004b96:	4618      	mov	r0, r3
 8004b98:	f000 f83a 	bl	8004c10 <RCC_GetHCLKClockFreq>
 8004b9c:	4602      	mov	r2, r0
 8004b9e:	687b      	ldr	r3, [r7, #4]
 8004ba0:	605a      	str	r2, [r3, #4]

  /* PCLK1 clock frequency */
  RCC_Clocks->PCLK1_Frequency  = RCC_GetPCLK1ClockFreq(RCC_Clocks->HCLK_Frequency);
 8004ba2:	687b      	ldr	r3, [r7, #4]
 8004ba4:	685b      	ldr	r3, [r3, #4]
 8004ba6:	4618      	mov	r0, r3
 8004ba8:	f000 f848 	bl	8004c3c <RCC_GetPCLK1ClockFreq>
 8004bac:	4602      	mov	r2, r0
 8004bae:	687b      	ldr	r3, [r7, #4]
 8004bb0:	609a      	str	r2, [r3, #8]

  /* PCLK2 clock frequency */
  RCC_Clocks->PCLK2_Frequency  = RCC_GetPCLK2ClockFreq(RCC_Clocks->HCLK_Frequency);
 8004bb2:	687b      	ldr	r3, [r7, #4]
 8004bb4:	685b      	ldr	r3, [r3, #4]
 8004bb6:	4618      	mov	r0, r3
 8004bb8:	f000 f854 	bl	8004c64 <RCC_GetPCLK2ClockFreq>
 8004bbc:	4602      	mov	r2, r0
 8004bbe:	687b      	ldr	r3, [r7, #4]
 8004bc0:	60da      	str	r2, [r3, #12]
}
 8004bc2:	bf00      	nop
 8004bc4:	3708      	adds	r7, #8
 8004bc6:	46bd      	mov	sp, r7
 8004bc8:	bd80      	pop	{r7, pc}
	...

08004bcc <RCC_GetSystemClockFreq>:
/**
  * @brief  Return SYSTEM clock frequency
  * @retval SYSTEM clock frequency (in Hz)
  */
uint32_t RCC_GetSystemClockFreq(void)
{
 8004bcc:	b580      	push	{r7, lr}
 8004bce:	b082      	sub	sp, #8
 8004bd0:	af00      	add	r7, sp, #0
  uint32_t frequency = 0U;
 8004bd2:	2300      	movs	r3, #0
 8004bd4:	607b      	str	r3, [r7, #4]

  /* Get SYSCLK source -------------------------------------------------------*/
  switch (LL_RCC_GetSysClkSource())
 8004bd6:	f7ff ff7d 	bl	8004ad4 <LL_RCC_GetSysClkSource>
 8004bda:	4603      	mov	r3, r0
 8004bdc:	2b04      	cmp	r3, #4
 8004bde:	d006      	beq.n	8004bee <RCC_GetSystemClockFreq+0x22>
 8004be0:	2b08      	cmp	r3, #8
 8004be2:	d007      	beq.n	8004bf4 <RCC_GetSystemClockFreq+0x28>
 8004be4:	2b00      	cmp	r3, #0
 8004be6:	d109      	bne.n	8004bfc <RCC_GetSystemClockFreq+0x30>
  {
    case LL_RCC_SYS_CLKSOURCE_STATUS_HSI:  /* HSI used as system clock  source */
      frequency = HSI_VALUE;
 8004be8:	4b08      	ldr	r3, [pc, #32]	; (8004c0c <RCC_GetSystemClockFreq+0x40>)
 8004bea:	607b      	str	r3, [r7, #4]
      break;
 8004bec:	e009      	b.n	8004c02 <RCC_GetSystemClockFreq+0x36>

    case LL_RCC_SYS_CLKSOURCE_STATUS_HSE:  /* HSE used as system clock  source */
      frequency = HSE_VALUE;
 8004bee:	4b07      	ldr	r3, [pc, #28]	; (8004c0c <RCC_GetSystemClockFreq+0x40>)
 8004bf0:	607b      	str	r3, [r7, #4]
      break;
 8004bf2:	e006      	b.n	8004c02 <RCC_GetSystemClockFreq+0x36>

    case LL_RCC_SYS_CLKSOURCE_STATUS_PLL:  /* PLL used as system clock  source */
      frequency = RCC_PLL_GetFreqDomain_SYS();
 8004bf4:	f000 f84a 	bl	8004c8c <RCC_PLL_GetFreqDomain_SYS>
 8004bf8:	6078      	str	r0, [r7, #4]
      break;
 8004bfa:	e002      	b.n	8004c02 <RCC_GetSystemClockFreq+0x36>

    default:
      frequency = HSI_VALUE;
 8004bfc:	4b03      	ldr	r3, [pc, #12]	; (8004c0c <RCC_GetSystemClockFreq+0x40>)
 8004bfe:	607b      	str	r3, [r7, #4]
      break;
 8004c00:	bf00      	nop
  }

  return frequency;
 8004c02:	687b      	ldr	r3, [r7, #4]
}
 8004c04:	4618      	mov	r0, r3
 8004c06:	3708      	adds	r7, #8
 8004c08:	46bd      	mov	sp, r7
 8004c0a:	bd80      	pop	{r7, pc}
 8004c0c:	007a1200 	.word	0x007a1200

08004c10 <RCC_GetHCLKClockFreq>:
  * @brief  Return HCLK clock frequency
  * @param  SYSCLK_Frequency SYSCLK clock frequency
  * @retval HCLK clock frequency (in Hz)
  */
uint32_t RCC_GetHCLKClockFreq(uint32_t SYSCLK_Frequency)
{
 8004c10:	b580      	push	{r7, lr}
 8004c12:	b082      	sub	sp, #8
 8004c14:	af00      	add	r7, sp, #0
 8004c16:	6078      	str	r0, [r7, #4]
  /* HCLK clock frequency */
  return __LL_RCC_CALC_HCLK_FREQ(SYSCLK_Frequency, LL_RCC_GetAHBPrescaler());
 8004c18:	f7ff ff68 	bl	8004aec <LL_RCC_GetAHBPrescaler>
 8004c1c:	4603      	mov	r3, r0
 8004c1e:	091b      	lsrs	r3, r3, #4
 8004c20:	f003 030f 	and.w	r3, r3, #15
 8004c24:	4a04      	ldr	r2, [pc, #16]	; (8004c38 <RCC_GetHCLKClockFreq+0x28>)
 8004c26:	5cd3      	ldrb	r3, [r2, r3]
 8004c28:	461a      	mov	r2, r3
 8004c2a:	687b      	ldr	r3, [r7, #4]
 8004c2c:	40d3      	lsrs	r3, r2
}
 8004c2e:	4618      	mov	r0, r3
 8004c30:	3708      	adds	r7, #8
 8004c32:	46bd      	mov	sp, r7
 8004c34:	bd80      	pop	{r7, pc}
 8004c36:	bf00      	nop
 8004c38:	08007630 	.word	0x08007630

08004c3c <RCC_GetPCLK1ClockFreq>:
  * @brief  Return PCLK1 clock frequency
  * @param  HCLK_Frequency HCLK clock frequency
  * @retval PCLK1 clock frequency (in Hz)
  */
uint32_t RCC_GetPCLK1ClockFreq(uint32_t HCLK_Frequency)
{
 8004c3c:	b580      	push	{r7, lr}
 8004c3e:	b082      	sub	sp, #8
 8004c40:	af00      	add	r7, sp, #0
 8004c42:	6078      	str	r0, [r7, #4]
  /* PCLK1 clock frequency */
  return __LL_RCC_CALC_PCLK1_FREQ(HCLK_Frequency, LL_RCC_GetAPB1Prescaler());
 8004c44:	f7ff ff5e 	bl	8004b04 <LL_RCC_GetAPB1Prescaler>
 8004c48:	4603      	mov	r3, r0
 8004c4a:	0a1b      	lsrs	r3, r3, #8
 8004c4c:	4a04      	ldr	r2, [pc, #16]	; (8004c60 <RCC_GetPCLK1ClockFreq+0x24>)
 8004c4e:	5cd3      	ldrb	r3, [r2, r3]
 8004c50:	461a      	mov	r2, r3
 8004c52:	687b      	ldr	r3, [r7, #4]
 8004c54:	40d3      	lsrs	r3, r2
}
 8004c56:	4618      	mov	r0, r3
 8004c58:	3708      	adds	r7, #8
 8004c5a:	46bd      	mov	sp, r7
 8004c5c:	bd80      	pop	{r7, pc}
 8004c5e:	bf00      	nop
 8004c60:	08007640 	.word	0x08007640

08004c64 <RCC_GetPCLK2ClockFreq>:
  * @brief  Return PCLK2 clock frequency
  * @param  HCLK_Frequency HCLK clock frequency
  * @retval PCLK2 clock frequency (in Hz)
  */
uint32_t RCC_GetPCLK2ClockFreq(uint32_t HCLK_Frequency)
{
 8004c64:	b580      	push	{r7, lr}
 8004c66:	b082      	sub	sp, #8
 8004c68:	af00      	add	r7, sp, #0
 8004c6a:	6078      	str	r0, [r7, #4]
  /* PCLK2 clock frequency */
  return __LL_RCC_CALC_PCLK2_FREQ(HCLK_Frequency, LL_RCC_GetAPB2Prescaler());
 8004c6c:	f7ff ff56 	bl	8004b1c <LL_RCC_GetAPB2Prescaler>
 8004c70:	4603      	mov	r3, r0
 8004c72:	0adb      	lsrs	r3, r3, #11
 8004c74:	4a04      	ldr	r2, [pc, #16]	; (8004c88 <RCC_GetPCLK2ClockFreq+0x24>)
 8004c76:	5cd3      	ldrb	r3, [r2, r3]
 8004c78:	461a      	mov	r2, r3
 8004c7a:	687b      	ldr	r3, [r7, #4]
 8004c7c:	40d3      	lsrs	r3, r2
}
 8004c7e:	4618      	mov	r0, r3
 8004c80:	3708      	adds	r7, #8
 8004c82:	46bd      	mov	sp, r7
 8004c84:	bd80      	pop	{r7, pc}
 8004c86:	bf00      	nop
 8004c88:	08007640 	.word	0x08007640

08004c8c <RCC_PLL_GetFreqDomain_SYS>:
/**
  * @brief  Return PLL clock frequency used for system domain
  * @retval PLL clock frequency (in Hz)
  */
uint32_t RCC_PLL_GetFreqDomain_SYS(void)
{
 8004c8c:	b580      	push	{r7, lr}
 8004c8e:	b082      	sub	sp, #8
 8004c90:	af00      	add	r7, sp, #0
  uint32_t pllinputfreq = 0U, pllsource = 0U;
 8004c92:	2300      	movs	r3, #0
 8004c94:	607b      	str	r3, [r7, #4]
 8004c96:	2300      	movs	r3, #0
 8004c98:	603b      	str	r3, [r7, #0]

  /* PLL_VCO = (HSE_VALUE, HSI_VALUE or PLL2 / PLL Predivider) * PLL Multiplicator */

  /* Get PLL source */
  pllsource = LL_RCC_PLL_GetMainSource();
 8004c9a:	f7ff ff4b 	bl	8004b34 <LL_RCC_PLL_GetMainSource>
 8004c9e:	6038      	str	r0, [r7, #0]

  switch (pllsource)
 8004ca0:	683b      	ldr	r3, [r7, #0]
 8004ca2:	2b00      	cmp	r3, #0
 8004ca4:	d003      	beq.n	8004cae <RCC_PLL_GetFreqDomain_SYS+0x22>
 8004ca6:	f5b3 3f80 	cmp.w	r3, #65536	; 0x10000
 8004caa:	d003      	beq.n	8004cb4 <RCC_PLL_GetFreqDomain_SYS+0x28>
 8004cac:	e00b      	b.n	8004cc6 <RCC_PLL_GetFreqDomain_SYS+0x3a>
  {
    case LL_RCC_PLLSOURCE_HSI_DIV_2: /* HSI used as PLL clock source */
      pllinputfreq = HSI_VALUE / 2U;
 8004cae:	4b0d      	ldr	r3, [pc, #52]	; (8004ce4 <RCC_PLL_GetFreqDomain_SYS+0x58>)
 8004cb0:	607b      	str	r3, [r7, #4]
      break;
 8004cb2:	e00b      	b.n	8004ccc <RCC_PLL_GetFreqDomain_SYS+0x40>

    case LL_RCC_PLLSOURCE_HSE:       /* HSE used as PLL clock source */
      pllinputfreq = HSE_VALUE / (LL_RCC_PLL_GetPrediv() + 1U);
 8004cb4:	f7ff ff56 	bl	8004b64 <LL_RCC_PLL_GetPrediv>
 8004cb8:	4603      	mov	r3, r0
 8004cba:	3301      	adds	r3, #1
 8004cbc:	4a0a      	ldr	r2, [pc, #40]	; (8004ce8 <RCC_PLL_GetFreqDomain_SYS+0x5c>)
 8004cbe:	fbb2 f3f3 	udiv	r3, r2, r3
 8004cc2:	607b      	str	r3, [r7, #4]
      break;
 8004cc4:	e002      	b.n	8004ccc <RCC_PLL_GetFreqDomain_SYS+0x40>
      pllinputfreq = RCC_PLL2_GetFreqClockFreq() / (LL_RCC_PLL_GetPrediv() + 1U);
      break;
#endif /* RCC_PLL2_SUPPORT */

    default:
      pllinputfreq = HSI_VALUE / 2U;
 8004cc6:	4b07      	ldr	r3, [pc, #28]	; (8004ce4 <RCC_PLL_GetFreqDomain_SYS+0x58>)
 8004cc8:	607b      	str	r3, [r7, #4]
      break;
 8004cca:	bf00      	nop
  }
  return __LL_RCC_CALC_PLLCLK_FREQ(pllinputfreq, LL_RCC_PLL_GetMultiplicator());
 8004ccc:	f7ff ff3e 	bl	8004b4c <LL_RCC_PLL_GetMultiplicator>
 8004cd0:	4603      	mov	r3, r0
 8004cd2:	0c9b      	lsrs	r3, r3, #18
 8004cd4:	3302      	adds	r3, #2
 8004cd6:	687a      	ldr	r2, [r7, #4]
 8004cd8:	fb02 f303 	mul.w	r3, r2, r3
}
 8004cdc:	4618      	mov	r0, r3
 8004cde:	3708      	adds	r7, #8
 8004ce0:	46bd      	mov	sp, r7
 8004ce2:	bd80      	pop	{r7, pc}
 8004ce4:	003d0900 	.word	0x003d0900
 8004ce8:	007a1200 	.word	0x007a1200

08004cec <LL_TIM_SetPrescaler>:
{
 8004cec:	b480      	push	{r7}
 8004cee:	b083      	sub	sp, #12
 8004cf0:	af00      	add	r7, sp, #0
 8004cf2:	6078      	str	r0, [r7, #4]
 8004cf4:	6039      	str	r1, [r7, #0]
  WRITE_REG(TIMx->PSC, Prescaler);
 8004cf6:	687b      	ldr	r3, [r7, #4]
 8004cf8:	683a      	ldr	r2, [r7, #0]
 8004cfa:	629a      	str	r2, [r3, #40]	; 0x28
}
 8004cfc:	bf00      	nop
 8004cfe:	370c      	adds	r7, #12
 8004d00:	46bd      	mov	sp, r7
 8004d02:	bc80      	pop	{r7}
 8004d04:	4770      	bx	lr

08004d06 <LL_TIM_SetAutoReload>:
{
 8004d06:	b480      	push	{r7}
 8004d08:	b083      	sub	sp, #12
 8004d0a:	af00      	add	r7, sp, #0
 8004d0c:	6078      	str	r0, [r7, #4]
 8004d0e:	6039      	str	r1, [r7, #0]
  WRITE_REG(TIMx->ARR, AutoReload);
 8004d10:	687b      	ldr	r3, [r7, #4]
 8004d12:	683a      	ldr	r2, [r7, #0]
 8004d14:	62da      	str	r2, [r3, #44]	; 0x2c
}
 8004d16:	bf00      	nop
 8004d18:	370c      	adds	r7, #12
 8004d1a:	46bd      	mov	sp, r7
 8004d1c:	bc80      	pop	{r7}
 8004d1e:	4770      	bx	lr

08004d20 <LL_TIM_SetRepetitionCounter>:
{
 8004d20:	b480      	push	{r7}
 8004d22:	b083      	sub	sp, #12
 8004d24:	af00      	add	r7, sp, #0
 8004d26:	6078      	str	r0, [r7, #4]
 8004d28:	6039      	str	r1, [r7, #0]
  WRITE_REG(TIMx->RCR, RepetitionCounter);
 8004d2a:	687b      	ldr	r3, [r7, #4]
 8004d2c:	683a      	ldr	r2, [r7, #0]
 8004d2e:	631a      	str	r2, [r3, #48]	; 0x30
}
 8004d30:	bf00      	nop
 8004d32:	370c      	adds	r7, #12
 8004d34:	46bd      	mov	sp, r7
 8004d36:	bc80      	pop	{r7}
 8004d38:	4770      	bx	lr

08004d3a <LL_TIM_OC_SetCompareCH1>:
{
 8004d3a:	b480      	push	{r7}
 8004d3c:	b083      	sub	sp, #12
 8004d3e:	af00      	add	r7, sp, #0
 8004d40:	6078      	str	r0, [r7, #4]
 8004d42:	6039      	str	r1, [r7, #0]
  WRITE_REG(TIMx->CCR1, CompareValue);
 8004d44:	687b      	ldr	r3, [r7, #4]
 8004d46:	683a      	ldr	r2, [r7, #0]
 8004d48:	635a      	str	r2, [r3, #52]	; 0x34
}
 8004d4a:	bf00      	nop
 8004d4c:	370c      	adds	r7, #12
 8004d4e:	46bd      	mov	sp, r7
 8004d50:	bc80      	pop	{r7}
 8004d52:	4770      	bx	lr

08004d54 <LL_TIM_OC_SetCompareCH2>:
{
 8004d54:	b480      	push	{r7}
 8004d56:	b083      	sub	sp, #12
 8004d58:	af00      	add	r7, sp, #0
 8004d5a:	6078      	str	r0, [r7, #4]
 8004d5c:	6039      	str	r1, [r7, #0]
  WRITE_REG(TIMx->CCR2, CompareValue);
 8004d5e:	687b      	ldr	r3, [r7, #4]
 8004d60:	683a      	ldr	r2, [r7, #0]
 8004d62:	639a      	str	r2, [r3, #56]	; 0x38
}
 8004d64:	bf00      	nop
 8004d66:	370c      	adds	r7, #12
 8004d68:	46bd      	mov	sp, r7
 8004d6a:	bc80      	pop	{r7}
 8004d6c:	4770      	bx	lr

08004d6e <LL_TIM_OC_SetCompareCH3>:
{
 8004d6e:	b480      	push	{r7}
 8004d70:	b083      	sub	sp, #12
 8004d72:	af00      	add	r7, sp, #0
 8004d74:	6078      	str	r0, [r7, #4]
 8004d76:	6039      	str	r1, [r7, #0]
  WRITE_REG(TIMx->CCR3, CompareValue);
 8004d78:	687b      	ldr	r3, [r7, #4]
 8004d7a:	683a      	ldr	r2, [r7, #0]
 8004d7c:	63da      	str	r2, [r3, #60]	; 0x3c
}
 8004d7e:	bf00      	nop
 8004d80:	370c      	adds	r7, #12
 8004d82:	46bd      	mov	sp, r7
 8004d84:	bc80      	pop	{r7}
 8004d86:	4770      	bx	lr

08004d88 <LL_TIM_OC_SetCompareCH4>:
{
 8004d88:	b480      	push	{r7}
 8004d8a:	b083      	sub	sp, #12
 8004d8c:	af00      	add	r7, sp, #0
 8004d8e:	6078      	str	r0, [r7, #4]
 8004d90:	6039      	str	r1, [r7, #0]
  WRITE_REG(TIMx->CCR4, CompareValue);
 8004d92:	687b      	ldr	r3, [r7, #4]
 8004d94:	683a      	ldr	r2, [r7, #0]
 8004d96:	641a      	str	r2, [r3, #64]	; 0x40
}
 8004d98:	bf00      	nop
 8004d9a:	370c      	adds	r7, #12
 8004d9c:	46bd      	mov	sp, r7
 8004d9e:	bc80      	pop	{r7}
 8004da0:	4770      	bx	lr

08004da2 <LL_TIM_GenerateEvent_UPDATE>:
  * @rmtoll EGR          UG            LL_TIM_GenerateEvent_UPDATE
  * @param  TIMx Timer instance
  * @retval None
  */
__STATIC_INLINE void LL_TIM_GenerateEvent_UPDATE(TIM_TypeDef *TIMx)
{
 8004da2:	b480      	push	{r7}
 8004da4:	b083      	sub	sp, #12
 8004da6:	af00      	add	r7, sp, #0
 8004da8:	6078      	str	r0, [r7, #4]
  SET_BIT(TIMx->EGR, TIM_EGR_UG);
 8004daa:	687b      	ldr	r3, [r7, #4]
 8004dac:	695b      	ldr	r3, [r3, #20]
 8004dae:	f043 0201 	orr.w	r2, r3, #1
 8004db2:	687b      	ldr	r3, [r7, #4]
 8004db4:	615a      	str	r2, [r3, #20]
}
 8004db6:	bf00      	nop
 8004db8:	370c      	adds	r7, #12
 8004dba:	46bd      	mov	sp, r7
 8004dbc:	bc80      	pop	{r7}
 8004dbe:	4770      	bx	lr

08004dc0 <LL_TIM_Init>:
  * @retval An ErrorStatus enumeration value:
  *          - SUCCESS: TIMx registers are de-initialized
  *          - ERROR: not applicable
  */
ErrorStatus LL_TIM_Init(TIM_TypeDef *TIMx, LL_TIM_InitTypeDef *TIM_InitStruct)
{
 8004dc0:	b580      	push	{r7, lr}
 8004dc2:	b084      	sub	sp, #16
 8004dc4:	af00      	add	r7, sp, #0
 8004dc6:	6078      	str	r0, [r7, #4]
 8004dc8:	6039      	str	r1, [r7, #0]
  /* Check the parameters */
  assert_param(IS_TIM_INSTANCE(TIMx));
  assert_param(IS_LL_TIM_COUNTERMODE(TIM_InitStruct->CounterMode));
  assert_param(IS_LL_TIM_CLOCKDIVISION(TIM_InitStruct->ClockDivision));

  tmpcr1 = LL_TIM_ReadReg(TIMx, CR1);
 8004dca:	687b      	ldr	r3, [r7, #4]
 8004dcc:	681b      	ldr	r3, [r3, #0]
 8004dce:	60fb      	str	r3, [r7, #12]

  if (IS_TIM_COUNTER_MODE_SELECT_INSTANCE(TIMx))
 8004dd0:	687b      	ldr	r3, [r7, #4]
 8004dd2:	4a27      	ldr	r2, [pc, #156]	; (8004e70 <LL_TIM_Init+0xb0>)
 8004dd4:	4293      	cmp	r3, r2
 8004dd6:	d00b      	beq.n	8004df0 <LL_TIM_Init+0x30>
 8004dd8:	687b      	ldr	r3, [r7, #4]
 8004dda:	f1b3 4f80 	cmp.w	r3, #1073741824	; 0x40000000
 8004dde:	d007      	beq.n	8004df0 <LL_TIM_Init+0x30>
 8004de0:	687b      	ldr	r3, [r7, #4]
 8004de2:	4a24      	ldr	r2, [pc, #144]	; (8004e74 <LL_TIM_Init+0xb4>)
 8004de4:	4293      	cmp	r3, r2
 8004de6:	d003      	beq.n	8004df0 <LL_TIM_Init+0x30>
 8004de8:	687b      	ldr	r3, [r7, #4]
 8004dea:	4a23      	ldr	r2, [pc, #140]	; (8004e78 <LL_TIM_Init+0xb8>)
 8004dec:	4293      	cmp	r3, r2
 8004dee:	d106      	bne.n	8004dfe <LL_TIM_Init+0x3e>
  {
    /* Select the Counter Mode */
    MODIFY_REG(tmpcr1, (TIM_CR1_DIR | TIM_CR1_CMS), TIM_InitStruct->CounterMode);
 8004df0:	68fb      	ldr	r3, [r7, #12]
 8004df2:	f023 0270 	bic.w	r2, r3, #112	; 0x70
 8004df6:	683b      	ldr	r3, [r7, #0]
 8004df8:	685b      	ldr	r3, [r3, #4]
 8004dfa:	4313      	orrs	r3, r2
 8004dfc:	60fb      	str	r3, [r7, #12]
  }

  if (IS_TIM_CLOCK_DIVISION_INSTANCE(TIMx))
 8004dfe:	687b      	ldr	r3, [r7, #4]
 8004e00:	4a1b      	ldr	r2, [pc, #108]	; (8004e70 <LL_TIM_Init+0xb0>)
 8004e02:	4293      	cmp	r3, r2
 8004e04:	d00b      	beq.n	8004e1e <LL_TIM_Init+0x5e>
 8004e06:	687b      	ldr	r3, [r7, #4]
 8004e08:	f1b3 4f80 	cmp.w	r3, #1073741824	; 0x40000000
 8004e0c:	d007      	beq.n	8004e1e <LL_TIM_Init+0x5e>
 8004e0e:	687b      	ldr	r3, [r7, #4]
 8004e10:	4a18      	ldr	r2, [pc, #96]	; (8004e74 <LL_TIM_Init+0xb4>)
 8004e12:	4293      	cmp	r3, r2
 8004e14:	d003      	beq.n	8004e1e <LL_TIM_Init+0x5e>
 8004e16:	687b      	ldr	r3, [r7, #4]
 8004e18:	4a17      	ldr	r2, [pc, #92]	; (8004e78 <LL_TIM_Init+0xb8>)
 8004e1a:	4293      	cmp	r3, r2
 8004e1c:	d106      	bne.n	8004e2c <LL_TIM_Init+0x6c>
  {
    /* Set the clock division */
    MODIFY_REG(tmpcr1, TIM_CR1_CKD, TIM_InitStruct->ClockDivision);
 8004e1e:	68fb      	ldr	r3, [r7, #12]
 8004e20:	f423 7240 	bic.w	r2, r3, #768	; 0x300
 8004e24:	683b      	ldr	r3, [r7, #0]
 8004e26:	68db      	ldr	r3, [r3, #12]
 8004e28:	4313      	orrs	r3, r2
 8004e2a:	60fb      	str	r3, [r7, #12]
  }

  /* Write to TIMx CR1 */
  LL_TIM_WriteReg(TIMx, CR1, tmpcr1);
 8004e2c:	687b      	ldr	r3, [r7, #4]
 8004e2e:	68fa      	ldr	r2, [r7, #12]
 8004e30:	601a      	str	r2, [r3, #0]

  /* Set the Autoreload value */
  LL_TIM_SetAutoReload(TIMx, TIM_InitStruct->Autoreload);
 8004e32:	683b      	ldr	r3, [r7, #0]
 8004e34:	689b      	ldr	r3, [r3, #8]
 8004e36:	4619      	mov	r1, r3
 8004e38:	6878      	ldr	r0, [r7, #4]
 8004e3a:	f7ff ff64 	bl	8004d06 <LL_TIM_SetAutoReload>

  /* Set the Prescaler value */
  LL_TIM_SetPrescaler(TIMx, TIM_InitStruct->Prescaler);
 8004e3e:	683b      	ldr	r3, [r7, #0]
 8004e40:	881b      	ldrh	r3, [r3, #0]
 8004e42:	4619      	mov	r1, r3
 8004e44:	6878      	ldr	r0, [r7, #4]
 8004e46:	f7ff ff51 	bl	8004cec <LL_TIM_SetPrescaler>

  if (IS_TIM_REPETITION_COUNTER_INSTANCE(TIMx))
 8004e4a:	687b      	ldr	r3, [r7, #4]
 8004e4c:	4a08      	ldr	r2, [pc, #32]	; (8004e70 <LL_TIM_Init+0xb0>)
 8004e4e:	4293      	cmp	r3, r2
 8004e50:	d105      	bne.n	8004e5e <LL_TIM_Init+0x9e>
  {
    /* Set the Repetition Counter value */
    LL_TIM_SetRepetitionCounter(TIMx, TIM_InitStruct->RepetitionCounter);
 8004e52:	683b      	ldr	r3, [r7, #0]
 8004e54:	7c1b      	ldrb	r3, [r3, #16]
 8004e56:	4619      	mov	r1, r3
 8004e58:	6878      	ldr	r0, [r7, #4]
 8004e5a:	f7ff ff61 	bl	8004d20 <LL_TIM_SetRepetitionCounter>
  }

  /* Generate an update event to reload the Prescaler
     and the repetition counter value (if applicable) immediately */
  LL_TIM_GenerateEvent_UPDATE(TIMx);
 8004e5e:	6878      	ldr	r0, [r7, #4]
 8004e60:	f7ff ff9f 	bl	8004da2 <LL_TIM_GenerateEvent_UPDATE>

  return SUCCESS;
 8004e64:	2300      	movs	r3, #0
}
 8004e66:	4618      	mov	r0, r3
 8004e68:	3710      	adds	r7, #16
 8004e6a:	46bd      	mov	sp, r7
 8004e6c:	bd80      	pop	{r7, pc}
 8004e6e:	bf00      	nop
 8004e70:	40012c00 	.word	0x40012c00
 8004e74:	40000400 	.word	0x40000400
 8004e78:	40000800 	.word	0x40000800

08004e7c <LL_TIM_OC_Init>:
  * @retval An ErrorStatus enumeration value:
  *          - SUCCESS: TIMx output channel is initialized
  *          - ERROR: TIMx output channel is not initialized
  */
ErrorStatus LL_TIM_OC_Init(TIM_TypeDef *TIMx, uint32_t Channel, LL_TIM_OC_InitTypeDef *TIM_OC_InitStruct)
{
 8004e7c:	b580      	push	{r7, lr}
 8004e7e:	b086      	sub	sp, #24
 8004e80:	af00      	add	r7, sp, #0
 8004e82:	60f8      	str	r0, [r7, #12]
 8004e84:	60b9      	str	r1, [r7, #8]
 8004e86:	607a      	str	r2, [r7, #4]
  ErrorStatus result = ERROR;
 8004e88:	2301      	movs	r3, #1
 8004e8a:	75fb      	strb	r3, [r7, #23]

  switch (Channel)
 8004e8c:	68bb      	ldr	r3, [r7, #8]
 8004e8e:	2b10      	cmp	r3, #16
 8004e90:	d012      	beq.n	8004eb8 <LL_TIM_OC_Init+0x3c>
 8004e92:	2b10      	cmp	r3, #16
 8004e94:	d802      	bhi.n	8004e9c <LL_TIM_OC_Init+0x20>
 8004e96:	2b01      	cmp	r3, #1
 8004e98:	d007      	beq.n	8004eaa <LL_TIM_OC_Init+0x2e>
      break;
    case LL_TIM_CHANNEL_CH4:
      result = OC4Config(TIMx, TIM_OC_InitStruct);
      break;
    default:
      break;
 8004e9a:	e022      	b.n	8004ee2 <LL_TIM_OC_Init+0x66>
  switch (Channel)
 8004e9c:	f5b3 7f80 	cmp.w	r3, #256	; 0x100
 8004ea0:	d011      	beq.n	8004ec6 <LL_TIM_OC_Init+0x4a>
 8004ea2:	f5b3 5f80 	cmp.w	r3, #4096	; 0x1000
 8004ea6:	d015      	beq.n	8004ed4 <LL_TIM_OC_Init+0x58>
      break;
 8004ea8:	e01b      	b.n	8004ee2 <LL_TIM_OC_Init+0x66>
      result = OC1Config(TIMx, TIM_OC_InitStruct);
 8004eaa:	6879      	ldr	r1, [r7, #4]
 8004eac:	68f8      	ldr	r0, [r7, #12]
 8004eae:	f000 f865 	bl	8004f7c <OC1Config>
 8004eb2:	4603      	mov	r3, r0
 8004eb4:	75fb      	strb	r3, [r7, #23]
      break;
 8004eb6:	e014      	b.n	8004ee2 <LL_TIM_OC_Init+0x66>
      result = OC2Config(TIMx, TIM_OC_InitStruct);
 8004eb8:	6879      	ldr	r1, [r7, #4]
 8004eba:	68f8      	ldr	r0, [r7, #12]
 8004ebc:	f000 f8c4 	bl	8005048 <OC2Config>
 8004ec0:	4603      	mov	r3, r0
 8004ec2:	75fb      	strb	r3, [r7, #23]
      break;
 8004ec4:	e00d      	b.n	8004ee2 <LL_TIM_OC_Init+0x66>
      result = OC3Config(TIMx, TIM_OC_InitStruct);
 8004ec6:	6879      	ldr	r1, [r7, #4]
 8004ec8:	68f8      	ldr	r0, [r7, #12]
 8004eca:	f000 f927 	bl	800511c <OC3Config>
 8004ece:	4603      	mov	r3, r0
 8004ed0:	75fb      	strb	r3, [r7, #23]
      break;
 8004ed2:	e006      	b.n	8004ee2 <LL_TIM_OC_Init+0x66>
      result = OC4Config(TIMx, TIM_OC_InitStruct);
 8004ed4:	6879      	ldr	r1, [r7, #4]
 8004ed6:	68f8      	ldr	r0, [r7, #12]
 8004ed8:	f000 f98a 	bl	80051f0 <OC4Config>
 8004edc:	4603      	mov	r3, r0
 8004ede:	75fb      	strb	r3, [r7, #23]
      break;
 8004ee0:	bf00      	nop
  }

  return result;
 8004ee2:	7dfb      	ldrb	r3, [r7, #23]
}
 8004ee4:	4618      	mov	r0, r3
 8004ee6:	3718      	adds	r7, #24
 8004ee8:	46bd      	mov	sp, r7
 8004eea:	bd80      	pop	{r7, pc}

08004eec <LL_TIM_BDTR_Init>:
  * @retval An ErrorStatus enumeration value:
  *          - SUCCESS: Break and Dead Time is initialized
  *          - ERROR: not applicable
  */
ErrorStatus LL_TIM_BDTR_Init(TIM_TypeDef *TIMx, LL_TIM_BDTR_InitTypeDef *TIM_BDTRInitStruct)
{
 8004eec:	b480      	push	{r7}
 8004eee:	b085      	sub	sp, #20
 8004ef0:	af00      	add	r7, sp, #0
 8004ef2:	6078      	str	r0, [r7, #4]
 8004ef4:	6039      	str	r1, [r7, #0]
  uint32_t tmpbdtr = 0;
 8004ef6:	2300      	movs	r3, #0
 8004ef8:	60fb      	str	r3, [r7, #12]

  /* Set the Lock level, the Break enable Bit and the Polarity, the OSSR State,
  the OSSI State, the dead time value and the Automatic Output Enable Bit */

  /* Set the BDTR bits */
  MODIFY_REG(tmpbdtr, TIM_BDTR_DTG, TIM_BDTRInitStruct->DeadTime);
 8004efa:	68fb      	ldr	r3, [r7, #12]
 8004efc:	f023 03ff 	bic.w	r3, r3, #255	; 0xff
 8004f00:	683a      	ldr	r2, [r7, #0]
 8004f02:	7b12      	ldrb	r2, [r2, #12]
 8004f04:	4313      	orrs	r3, r2
 8004f06:	60fb      	str	r3, [r7, #12]
  MODIFY_REG(tmpbdtr, TIM_BDTR_LOCK, TIM_BDTRInitStruct->LockLevel);
 8004f08:	68fb      	ldr	r3, [r7, #12]
 8004f0a:	f423 7240 	bic.w	r2, r3, #768	; 0x300
 8004f0e:	683b      	ldr	r3, [r7, #0]
 8004f10:	689b      	ldr	r3, [r3, #8]
 8004f12:	4313      	orrs	r3, r2
 8004f14:	60fb      	str	r3, [r7, #12]
  MODIFY_REG(tmpbdtr, TIM_BDTR_OSSI, TIM_BDTRInitStruct->OSSIState);
 8004f16:	68fb      	ldr	r3, [r7, #12]
 8004f18:	f423 6280 	bic.w	r2, r3, #1024	; 0x400
 8004f1c:	683b      	ldr	r3, [r7, #0]
 8004f1e:	685b      	ldr	r3, [r3, #4]
 8004f20:	4313      	orrs	r3, r2
 8004f22:	60fb      	str	r3, [r7, #12]
  MODIFY_REG(tmpbdtr, TIM_BDTR_OSSR, TIM_BDTRInitStruct->OSSRState);
 8004f24:	68fb      	ldr	r3, [r7, #12]
 8004f26:	f423 6200 	bic.w	r2, r3, #2048	; 0x800
 8004f2a:	683b      	ldr	r3, [r7, #0]
 8004f2c:	681b      	ldr	r3, [r3, #0]
 8004f2e:	4313      	orrs	r3, r2
 8004f30:	60fb      	str	r3, [r7, #12]
  MODIFY_REG(tmpbdtr, TIM_BDTR_BKE, TIM_BDTRInitStruct->BreakState);
 8004f32:	68fb      	ldr	r3, [r7, #12]
 8004f34:	f423 5380 	bic.w	r3, r3, #4096	; 0x1000
 8004f38:	683a      	ldr	r2, [r7, #0]
 8004f3a:	89d2      	ldrh	r2, [r2, #14]
 8004f3c:	4313      	orrs	r3, r2
 8004f3e:	60fb      	str	r3, [r7, #12]
  MODIFY_REG(tmpbdtr, TIM_BDTR_BKP, TIM_BDTRInitStruct->BreakPolarity);
 8004f40:	68fb      	ldr	r3, [r7, #12]
 8004f42:	f423 5200 	bic.w	r2, r3, #8192	; 0x2000
 8004f46:	683b      	ldr	r3, [r7, #0]
 8004f48:	691b      	ldr	r3, [r3, #16]
 8004f4a:	4313      	orrs	r3, r2
 8004f4c:	60fb      	str	r3, [r7, #12]
  MODIFY_REG(tmpbdtr, TIM_BDTR_AOE, TIM_BDTRInitStruct->AutomaticOutput);
 8004f4e:	68fb      	ldr	r3, [r7, #12]
 8004f50:	f423 4280 	bic.w	r2, r3, #16384	; 0x4000
 8004f54:	683b      	ldr	r3, [r7, #0]
 8004f56:	695b      	ldr	r3, [r3, #20]
 8004f58:	4313      	orrs	r3, r2
 8004f5a:	60fb      	str	r3, [r7, #12]
  MODIFY_REG(tmpbdtr, TIM_BDTR_MOE, TIM_BDTRInitStruct->AutomaticOutput);
 8004f5c:	68fb      	ldr	r3, [r7, #12]
 8004f5e:	f423 4200 	bic.w	r2, r3, #32768	; 0x8000
 8004f62:	683b      	ldr	r3, [r7, #0]
 8004f64:	695b      	ldr	r3, [r3, #20]
 8004f66:	4313      	orrs	r3, r2
 8004f68:	60fb      	str	r3, [r7, #12]

  /* Set TIMx_BDTR */
  LL_TIM_WriteReg(TIMx, BDTR, tmpbdtr);
 8004f6a:	687b      	ldr	r3, [r7, #4]
 8004f6c:	68fa      	ldr	r2, [r7, #12]
 8004f6e:	645a      	str	r2, [r3, #68]	; 0x44

  return SUCCESS;
 8004f70:	2300      	movs	r3, #0
}
 8004f72:	4618      	mov	r0, r3
 8004f74:	3714      	adds	r7, #20
 8004f76:	46bd      	mov	sp, r7
 8004f78:	bc80      	pop	{r7}
 8004f7a:	4770      	bx	lr

08004f7c <OC1Config>:
  * @retval An ErrorStatus enumeration value:
  *          - SUCCESS: TIMx registers are de-initialized
  *          - ERROR: not applicable
  */
static ErrorStatus OC1Config(TIM_TypeDef *TIMx, LL_TIM_OC_InitTypeDef *TIM_OCInitStruct)
{
 8004f7c:	b580      	push	{r7, lr}
 8004f7e:	b086      	sub	sp, #24
 8004f80:	af00      	add	r7, sp, #0
 8004f82:	6078      	str	r0, [r7, #4]
 8004f84:	6039      	str	r1, [r7, #0]
  assert_param(IS_LL_TIM_OCPOLARITY(TIM_OCInitStruct->OCPolarity));
  assert_param(IS_LL_TIM_OCSTATE(TIM_OCInitStruct->OCNState));
  assert_param(IS_LL_TIM_OCPOLARITY(TIM_OCInitStruct->OCNPolarity));

  /* Disable the Channel 1: Reset the CC1E Bit */
  CLEAR_BIT(TIMx->CCER, TIM_CCER_CC1E);
 8004f86:	687b      	ldr	r3, [r7, #4]
 8004f88:	6a1b      	ldr	r3, [r3, #32]
 8004f8a:	f023 0201 	bic.w	r2, r3, #1
 8004f8e:	687b      	ldr	r3, [r7, #4]
 8004f90:	621a      	str	r2, [r3, #32]

  /* Get the TIMx CCER register value */
  tmpccer = LL_TIM_ReadReg(TIMx, CCER);
 8004f92:	687b      	ldr	r3, [r7, #4]
 8004f94:	6a1b      	ldr	r3, [r3, #32]
 8004f96:	617b      	str	r3, [r7, #20]

  /* Get the TIMx CR2 register value */
  tmpcr2 = LL_TIM_ReadReg(TIMx, CR2);
 8004f98:	687b      	ldr	r3, [r7, #4]
 8004f9a:	685b      	ldr	r3, [r3, #4]
 8004f9c:	613b      	str	r3, [r7, #16]

  /* Get the TIMx CCMR1 register value */
  tmpccmr1 = LL_TIM_ReadReg(TIMx, CCMR1);
 8004f9e:	687b      	ldr	r3, [r7, #4]
 8004fa0:	699b      	ldr	r3, [r3, #24]
 8004fa2:	60fb      	str	r3, [r7, #12]

  /* Reset Capture/Compare selection Bits */
  CLEAR_BIT(tmpccmr1, TIM_CCMR1_CC1S);
 8004fa4:	68fb      	ldr	r3, [r7, #12]
 8004fa6:	f023 0303 	bic.w	r3, r3, #3
 8004faa:	60fb      	str	r3, [r7, #12]

  /* Set the Output Compare Mode */
  MODIFY_REG(tmpccmr1, TIM_CCMR1_OC1M, TIM_OCInitStruct->OCMode);
 8004fac:	68fb      	ldr	r3, [r7, #12]
 8004fae:	f023 0270 	bic.w	r2, r3, #112	; 0x70
 8004fb2:	683b      	ldr	r3, [r7, #0]
 8004fb4:	681b      	ldr	r3, [r3, #0]
 8004fb6:	4313      	orrs	r3, r2
 8004fb8:	60fb      	str	r3, [r7, #12]

  /* Set the Output Compare Polarity */
  MODIFY_REG(tmpccer, TIM_CCER_CC1P, TIM_OCInitStruct->OCPolarity);
 8004fba:	697b      	ldr	r3, [r7, #20]
 8004fbc:	f023 0202 	bic.w	r2, r3, #2
 8004fc0:	683b      	ldr	r3, [r7, #0]
 8004fc2:	691b      	ldr	r3, [r3, #16]
 8004fc4:	4313      	orrs	r3, r2
 8004fc6:	617b      	str	r3, [r7, #20]

  /* Set the Output State */
  MODIFY_REG(tmpccer, TIM_CCER_CC1E, TIM_OCInitStruct->OCState);
 8004fc8:	697b      	ldr	r3, [r7, #20]
 8004fca:	f023 0201 	bic.w	r2, r3, #1
 8004fce:	683b      	ldr	r3, [r7, #0]
 8004fd0:	685b      	ldr	r3, [r3, #4]
 8004fd2:	4313      	orrs	r3, r2
 8004fd4:	617b      	str	r3, [r7, #20]

  if (IS_TIM_BREAK_INSTANCE(TIMx))
 8004fd6:	687b      	ldr	r3, [r7, #4]
 8004fd8:	4a1a      	ldr	r2, [pc, #104]	; (8005044 <OC1Config+0xc8>)
 8004fda:	4293      	cmp	r3, r2
 8004fdc:	d11e      	bne.n	800501c <OC1Config+0xa0>
  {
    assert_param(IS_LL_TIM_OCIDLESTATE(TIM_OCInitStruct->OCNIdleState));
    assert_param(IS_LL_TIM_OCIDLESTATE(TIM_OCInitStruct->OCIdleState));

    /* Set the complementary output Polarity */
    MODIFY_REG(tmpccer, TIM_CCER_CC1NP, TIM_OCInitStruct->OCNPolarity << 2U);
 8004fde:	697b      	ldr	r3, [r7, #20]
 8004fe0:	f023 0208 	bic.w	r2, r3, #8
 8004fe4:	683b      	ldr	r3, [r7, #0]
 8004fe6:	695b      	ldr	r3, [r3, #20]
 8004fe8:	009b      	lsls	r3, r3, #2
 8004fea:	4313      	orrs	r3, r2
 8004fec:	617b      	str	r3, [r7, #20]

    /* Set the complementary output State */
    MODIFY_REG(tmpccer, TIM_CCER_CC1NE, TIM_OCInitStruct->OCNState << 2U);
 8004fee:	697b      	ldr	r3, [r7, #20]
 8004ff0:	f023 0204 	bic.w	r2, r3, #4
 8004ff4:	683b      	ldr	r3, [r7, #0]
 8004ff6:	689b      	ldr	r3, [r3, #8]
 8004ff8:	009b      	lsls	r3, r3, #2
 8004ffa:	4313      	orrs	r3, r2
 8004ffc:	617b      	str	r3, [r7, #20]

    /* Set the Output Idle state */
    MODIFY_REG(tmpcr2, TIM_CR2_OIS1, TIM_OCInitStruct->OCIdleState);
 8004ffe:	693b      	ldr	r3, [r7, #16]
 8005000:	f423 7280 	bic.w	r2, r3, #256	; 0x100
 8005004:	683b      	ldr	r3, [r7, #0]
 8005006:	699b      	ldr	r3, [r3, #24]
 8005008:	4313      	orrs	r3, r2
 800500a:	613b      	str	r3, [r7, #16]

    /* Set the complementary output Idle state */
    MODIFY_REG(tmpcr2, TIM_CR2_OIS1N, TIM_OCInitStruct->OCNIdleState << 1U);
 800500c:	693b      	ldr	r3, [r7, #16]
 800500e:	f423 7200 	bic.w	r2, r3, #512	; 0x200
 8005012:	683b      	ldr	r3, [r7, #0]
 8005014:	69db      	ldr	r3, [r3, #28]
 8005016:	005b      	lsls	r3, r3, #1
 8005018:	4313      	orrs	r3, r2
 800501a:	613b      	str	r3, [r7, #16]
  }

  /* Write to TIMx CR2 */
  LL_TIM_WriteReg(TIMx, CR2, tmpcr2);
 800501c:	687b      	ldr	r3, [r7, #4]
 800501e:	693a      	ldr	r2, [r7, #16]
 8005020:	605a      	str	r2, [r3, #4]

  /* Write to TIMx CCMR1 */
  LL_TIM_WriteReg(TIMx, CCMR1, tmpccmr1);
 8005022:	687b      	ldr	r3, [r7, #4]
 8005024:	68fa      	ldr	r2, [r7, #12]
 8005026:	619a      	str	r2, [r3, #24]

  /* Set the Capture Compare Register value */
  LL_TIM_OC_SetCompareCH1(TIMx, TIM_OCInitStruct->CompareValue);
 8005028:	683b      	ldr	r3, [r7, #0]
 800502a:	68db      	ldr	r3, [r3, #12]
 800502c:	4619      	mov	r1, r3
 800502e:	6878      	ldr	r0, [r7, #4]
 8005030:	f7ff fe83 	bl	8004d3a <LL_TIM_OC_SetCompareCH1>

  /* Write to TIMx CCER */
  LL_TIM_WriteReg(TIMx, CCER, tmpccer);
 8005034:	687b      	ldr	r3, [r7, #4]
 8005036:	697a      	ldr	r2, [r7, #20]
 8005038:	621a      	str	r2, [r3, #32]

  return SUCCESS;
 800503a:	2300      	movs	r3, #0
}
 800503c:	4618      	mov	r0, r3
 800503e:	3718      	adds	r7, #24
 8005040:	46bd      	mov	sp, r7
 8005042:	bd80      	pop	{r7, pc}
 8005044:	40012c00 	.word	0x40012c00

08005048 <OC2Config>:
  * @retval An ErrorStatus enumeration value:
  *          - SUCCESS: TIMx registers are de-initialized
  *          - ERROR: not applicable
  */
static ErrorStatus OC2Config(TIM_TypeDef *TIMx, LL_TIM_OC_InitTypeDef *TIM_OCInitStruct)
{
 8005048:	b580      	push	{r7, lr}
 800504a:	b086      	sub	sp, #24
 800504c:	af00      	add	r7, sp, #0
 800504e:	6078      	str	r0, [r7, #4]
 8005050:	6039      	str	r1, [r7, #0]
  assert_param(IS_LL_TIM_OCPOLARITY(TIM_OCInitStruct->OCPolarity));
  assert_param(IS_LL_TIM_OCSTATE(TIM_OCInitStruct->OCNState));
  assert_param(IS_LL_TIM_OCPOLARITY(TIM_OCInitStruct->OCNPolarity));

  /* Disable the Channel 2: Reset the CC2E Bit */
  CLEAR_BIT(TIMx->CCER, TIM_CCER_CC2E);
 8005052:	687b      	ldr	r3, [r7, #4]
 8005054:	6a1b      	ldr	r3, [r3, #32]
 8005056:	f023 0210 	bic.w	r2, r3, #16
 800505a:	687b      	ldr	r3, [r7, #4]
 800505c:	621a      	str	r2, [r3, #32]

  /* Get the TIMx CCER register value */
  tmpccer =  LL_TIM_ReadReg(TIMx, CCER);
 800505e:	687b      	ldr	r3, [r7, #4]
 8005060:	6a1b      	ldr	r3, [r3, #32]
 8005062:	617b      	str	r3, [r7, #20]

  /* Get the TIMx CR2 register value */
  tmpcr2 = LL_TIM_ReadReg(TIMx, CR2);
 8005064:	687b      	ldr	r3, [r7, #4]
 8005066:	685b      	ldr	r3, [r3, #4]
 8005068:	613b      	str	r3, [r7, #16]

  /* Get the TIMx CCMR1 register value */
  tmpccmr1 = LL_TIM_ReadReg(TIMx, CCMR1);
 800506a:	687b      	ldr	r3, [r7, #4]
 800506c:	699b      	ldr	r3, [r3, #24]
 800506e:	60fb      	str	r3, [r7, #12]

  /* Reset Capture/Compare selection Bits */
  CLEAR_BIT(tmpccmr1, TIM_CCMR1_CC2S);
 8005070:	68fb      	ldr	r3, [r7, #12]
 8005072:	f423 7340 	bic.w	r3, r3, #768	; 0x300
 8005076:	60fb      	str	r3, [r7, #12]

  /* Select the Output Compare Mode */
  MODIFY_REG(tmpccmr1, TIM_CCMR1_OC2M, TIM_OCInitStruct->OCMode << 8U);
 8005078:	68fb      	ldr	r3, [r7, #12]
 800507a:	f423 42e0 	bic.w	r2, r3, #28672	; 0x7000
 800507e:	683b      	ldr	r3, [r7, #0]
 8005080:	681b      	ldr	r3, [r3, #0]
 8005082:	021b      	lsls	r3, r3, #8
 8005084:	4313      	orrs	r3, r2
 8005086:	60fb      	str	r3, [r7, #12]

  /* Set the Output Compare Polarity */
  MODIFY_REG(tmpccer, TIM_CCER_CC2P, TIM_OCInitStruct->OCPolarity << 4U);
 8005088:	697b      	ldr	r3, [r7, #20]
 800508a:	f023 0220 	bic.w	r2, r3, #32
 800508e:	683b      	ldr	r3, [r7, #0]
 8005090:	691b      	ldr	r3, [r3, #16]
 8005092:	011b      	lsls	r3, r3, #4
 8005094:	4313      	orrs	r3, r2
 8005096:	617b      	str	r3, [r7, #20]

  /* Set the Output State */
  MODIFY_REG(tmpccer, TIM_CCER_CC2E, TIM_OCInitStruct->OCState << 4U);
 8005098:	697b      	ldr	r3, [r7, #20]
 800509a:	f023 0210 	bic.w	r2, r3, #16
 800509e:	683b      	ldr	r3, [r7, #0]
 80050a0:	685b      	ldr	r3, [r3, #4]
 80050a2:	011b      	lsls	r3, r3, #4
 80050a4:	4313      	orrs	r3, r2
 80050a6:	617b      	str	r3, [r7, #20]

  if (IS_TIM_BREAK_INSTANCE(TIMx))
 80050a8:	687b      	ldr	r3, [r7, #4]
 80050aa:	4a1b      	ldr	r2, [pc, #108]	; (8005118 <OC2Config+0xd0>)
 80050ac:	4293      	cmp	r3, r2
 80050ae:	d11f      	bne.n	80050f0 <OC2Config+0xa8>
  {
    assert_param(IS_LL_TIM_OCIDLESTATE(TIM_OCInitStruct->OCNIdleState));
    assert_param(IS_LL_TIM_OCIDLESTATE(TIM_OCInitStruct->OCIdleState));

    /* Set the complementary output Polarity */
    MODIFY_REG(tmpccer, TIM_CCER_CC2NP, TIM_OCInitStruct->OCNPolarity << 6U);
 80050b0:	697b      	ldr	r3, [r7, #20]
 80050b2:	f023 0280 	bic.w	r2, r3, #128	; 0x80
 80050b6:	683b      	ldr	r3, [r7, #0]
 80050b8:	695b      	ldr	r3, [r3, #20]
 80050ba:	019b      	lsls	r3, r3, #6
 80050bc:	4313      	orrs	r3, r2
 80050be:	617b      	str	r3, [r7, #20]

    /* Set the complementary output State */
    MODIFY_REG(tmpccer, TIM_CCER_CC2NE, TIM_OCInitStruct->OCNState << 6U);
 80050c0:	697b      	ldr	r3, [r7, #20]
 80050c2:	f023 0240 	bic.w	r2, r3, #64	; 0x40
 80050c6:	683b      	ldr	r3, [r7, #0]
 80050c8:	689b      	ldr	r3, [r3, #8]
 80050ca:	019b      	lsls	r3, r3, #6
 80050cc:	4313      	orrs	r3, r2
 80050ce:	617b      	str	r3, [r7, #20]

    /* Set the Output Idle state */
    MODIFY_REG(tmpcr2, TIM_CR2_OIS2, TIM_OCInitStruct->OCIdleState << 2U);
 80050d0:	693b      	ldr	r3, [r7, #16]
 80050d2:	f423 6280 	bic.w	r2, r3, #1024	; 0x400
 80050d6:	683b      	ldr	r3, [r7, #0]
 80050d8:	699b      	ldr	r3, [r3, #24]
 80050da:	009b      	lsls	r3, r3, #2
 80050dc:	4313      	orrs	r3, r2
 80050de:	613b      	str	r3, [r7, #16]

    /* Set the complementary output Idle state */
    MODIFY_REG(tmpcr2, TIM_CR2_OIS2N, TIM_OCInitStruct->OCNIdleState << 3U);
 80050e0:	693b      	ldr	r3, [r7, #16]
 80050e2:	f423 6200 	bic.w	r2, r3, #2048	; 0x800
 80050e6:	683b      	ldr	r3, [r7, #0]
 80050e8:	69db      	ldr	r3, [r3, #28]
 80050ea:	00db      	lsls	r3, r3, #3
 80050ec:	4313      	orrs	r3, r2
 80050ee:	613b      	str	r3, [r7, #16]
  }

  /* Write to TIMx CR2 */
  LL_TIM_WriteReg(TIMx, CR2, tmpcr2);
 80050f0:	687b      	ldr	r3, [r7, #4]
 80050f2:	693a      	ldr	r2, [r7, #16]
 80050f4:	605a      	str	r2, [r3, #4]

  /* Write to TIMx CCMR1 */
  LL_TIM_WriteReg(TIMx, CCMR1, tmpccmr1);
 80050f6:	687b      	ldr	r3, [r7, #4]
 80050f8:	68fa      	ldr	r2, [r7, #12]
 80050fa:	619a      	str	r2, [r3, #24]

  /* Set the Capture Compare Register value */
  LL_TIM_OC_SetCompareCH2(TIMx, TIM_OCInitStruct->CompareValue);
 80050fc:	683b      	ldr	r3, [r7, #0]
 80050fe:	68db      	ldr	r3, [r3, #12]
 8005100:	4619      	mov	r1, r3
 8005102:	6878      	ldr	r0, [r7, #4]
 8005104:	f7ff fe26 	bl	8004d54 <LL_TIM_OC_SetCompareCH2>

  /* Write to TIMx CCER */
  LL_TIM_WriteReg(TIMx, CCER, tmpccer);
 8005108:	687b      	ldr	r3, [r7, #4]
 800510a:	697a      	ldr	r2, [r7, #20]
 800510c:	621a      	str	r2, [r3, #32]

  return SUCCESS;
 800510e:	2300      	movs	r3, #0
}
 8005110:	4618      	mov	r0, r3
 8005112:	3718      	adds	r7, #24
 8005114:	46bd      	mov	sp, r7
 8005116:	bd80      	pop	{r7, pc}
 8005118:	40012c00 	.word	0x40012c00

0800511c <OC3Config>:
  * @retval An ErrorStatus enumeration value:
  *          - SUCCESS: TIMx registers are de-initialized
  *          - ERROR: not applicable
  */
static ErrorStatus OC3Config(TIM_TypeDef *TIMx, LL_TIM_OC_InitTypeDef *TIM_OCInitStruct)
{
 800511c:	b580      	push	{r7, lr}
 800511e:	b086      	sub	sp, #24
 8005120:	af00      	add	r7, sp, #0
 8005122:	6078      	str	r0, [r7, #4]
 8005124:	6039      	str	r1, [r7, #0]
  assert_param(IS_LL_TIM_OCPOLARITY(TIM_OCInitStruct->OCPolarity));
  assert_param(IS_LL_TIM_OCSTATE(TIM_OCInitStruct->OCNState));
  assert_param(IS_LL_TIM_OCPOLARITY(TIM_OCInitStruct->OCNPolarity));

  /* Disable the Channel 3: Reset the CC3E Bit */
  CLEAR_BIT(TIMx->CCER, TIM_CCER_CC3E);
 8005126:	687b      	ldr	r3, [r7, #4]
 8005128:	6a1b      	ldr	r3, [r3, #32]
 800512a:	f423 7280 	bic.w	r2, r3, #256	; 0x100
 800512e:	687b      	ldr	r3, [r7, #4]
 8005130:	621a      	str	r2, [r3, #32]

  /* Get the TIMx CCER register value */
  tmpccer =  LL_TIM_ReadReg(TIMx, CCER);
 8005132:	687b      	ldr	r3, [r7, #4]
 8005134:	6a1b      	ldr	r3, [r3, #32]
 8005136:	617b      	str	r3, [r7, #20]

  /* Get the TIMx CR2 register value */
  tmpcr2 = LL_TIM_ReadReg(TIMx, CR2);
 8005138:	687b      	ldr	r3, [r7, #4]
 800513a:	685b      	ldr	r3, [r3, #4]
 800513c:	613b      	str	r3, [r7, #16]

  /* Get the TIMx CCMR2 register value */
  tmpccmr2 = LL_TIM_ReadReg(TIMx, CCMR2);
 800513e:	687b      	ldr	r3, [r7, #4]
 8005140:	69db      	ldr	r3, [r3, #28]
 8005142:	60fb      	str	r3, [r7, #12]

  /* Reset Capture/Compare selection Bits */
  CLEAR_BIT(tmpccmr2, TIM_CCMR2_CC3S);
 8005144:	68fb      	ldr	r3, [r7, #12]
 8005146:	f023 0303 	bic.w	r3, r3, #3
 800514a:	60fb      	str	r3, [r7, #12]

  /* Select the Output Compare Mode */
  MODIFY_REG(tmpccmr2, TIM_CCMR2_OC3M, TIM_OCInitStruct->OCMode);
 800514c:	68fb      	ldr	r3, [r7, #12]
 800514e:	f023 0270 	bic.w	r2, r3, #112	; 0x70
 8005152:	683b      	ldr	r3, [r7, #0]
 8005154:	681b      	ldr	r3, [r3, #0]
 8005156:	4313      	orrs	r3, r2
 8005158:	60fb      	str	r3, [r7, #12]

  /* Set the Output Compare Polarity */
  MODIFY_REG(tmpccer, TIM_CCER_CC3P, TIM_OCInitStruct->OCPolarity << 8U);
 800515a:	697b      	ldr	r3, [r7, #20]
 800515c:	f423 7200 	bic.w	r2, r3, #512	; 0x200
 8005160:	683b      	ldr	r3, [r7, #0]
 8005162:	691b      	ldr	r3, [r3, #16]
 8005164:	021b      	lsls	r3, r3, #8
 8005166:	4313      	orrs	r3, r2
 8005168:	617b      	str	r3, [r7, #20]

  /* Set the Output State */
  MODIFY_REG(tmpccer, TIM_CCER_CC3E, TIM_OCInitStruct->OCState << 8U);
 800516a:	697b      	ldr	r3, [r7, #20]
 800516c:	f423 7280 	bic.w	r2, r3, #256	; 0x100
 8005170:	683b      	ldr	r3, [r7, #0]
 8005172:	685b      	ldr	r3, [r3, #4]
 8005174:	021b      	lsls	r3, r3, #8
 8005176:	4313      	orrs	r3, r2
 8005178:	617b      	str	r3, [r7, #20]

  if (IS_TIM_BREAK_INSTANCE(TIMx))
 800517a:	687b      	ldr	r3, [r7, #4]
 800517c:	4a1b      	ldr	r2, [pc, #108]	; (80051ec <OC3Config+0xd0>)
 800517e:	4293      	cmp	r3, r2
 8005180:	d11f      	bne.n	80051c2 <OC3Config+0xa6>
  {
    assert_param(IS_LL_TIM_OCIDLESTATE(TIM_OCInitStruct->OCNIdleState));
    assert_param(IS_LL_TIM_OCIDLESTATE(TIM_OCInitStruct->OCIdleState));

    /* Set the complementary output Polarity */
    MODIFY_REG(tmpccer, TIM_CCER_CC3NP, TIM_OCInitStruct->OCNPolarity << 10U);
 8005182:	697b      	ldr	r3, [r7, #20]
 8005184:	f423 6200 	bic.w	r2, r3, #2048	; 0x800
 8005188:	683b      	ldr	r3, [r7, #0]
 800518a:	695b      	ldr	r3, [r3, #20]
 800518c:	029b      	lsls	r3, r3, #10
 800518e:	4313      	orrs	r3, r2
 8005190:	617b      	str	r3, [r7, #20]

    /* Set the complementary output State */
    MODIFY_REG(tmpccer, TIM_CCER_CC3NE, TIM_OCInitStruct->OCNState << 10U);
 8005192:	697b      	ldr	r3, [r7, #20]
 8005194:	f423 6280 	bic.w	r2, r3, #1024	; 0x400
 8005198:	683b      	ldr	r3, [r7, #0]
 800519a:	689b      	ldr	r3, [r3, #8]
 800519c:	029b      	lsls	r3, r3, #10
 800519e:	4313      	orrs	r3, r2
 80051a0:	617b      	str	r3, [r7, #20]

    /* Set the Output Idle state */
    MODIFY_REG(tmpcr2, TIM_CR2_OIS3, TIM_OCInitStruct->OCIdleState << 4U);
 80051a2:	693b      	ldr	r3, [r7, #16]
 80051a4:	f423 5280 	bic.w	r2, r3, #4096	; 0x1000
 80051a8:	683b      	ldr	r3, [r7, #0]
 80051aa:	699b      	ldr	r3, [r3, #24]
 80051ac:	011b      	lsls	r3, r3, #4
 80051ae:	4313      	orrs	r3, r2
 80051b0:	613b      	str	r3, [r7, #16]

    /* Set the complementary output Idle state */
    MODIFY_REG(tmpcr2, TIM_CR2_OIS3N, TIM_OCInitStruct->OCNIdleState << 5U);
 80051b2:	693b      	ldr	r3, [r7, #16]
 80051b4:	f423 5200 	bic.w	r2, r3, #8192	; 0x2000
 80051b8:	683b      	ldr	r3, [r7, #0]
 80051ba:	69db      	ldr	r3, [r3, #28]
 80051bc:	015b      	lsls	r3, r3, #5
 80051be:	4313      	orrs	r3, r2
 80051c0:	613b      	str	r3, [r7, #16]
  }

  /* Write to TIMx CR2 */
  LL_TIM_WriteReg(TIMx, CR2, tmpcr2);
 80051c2:	687b      	ldr	r3, [r7, #4]
 80051c4:	693a      	ldr	r2, [r7, #16]
 80051c6:	605a      	str	r2, [r3, #4]

  /* Write to TIMx CCMR2 */
  LL_TIM_WriteReg(TIMx, CCMR2, tmpccmr2);
 80051c8:	687b      	ldr	r3, [r7, #4]
 80051ca:	68fa      	ldr	r2, [r7, #12]
 80051cc:	61da      	str	r2, [r3, #28]

  /* Set the Capture Compare Register value */
  LL_TIM_OC_SetCompareCH3(TIMx, TIM_OCInitStruct->CompareValue);
 80051ce:	683b      	ldr	r3, [r7, #0]
 80051d0:	68db      	ldr	r3, [r3, #12]
 80051d2:	4619      	mov	r1, r3
 80051d4:	6878      	ldr	r0, [r7, #4]
 80051d6:	f7ff fdca 	bl	8004d6e <LL_TIM_OC_SetCompareCH3>

  /* Write to TIMx CCER */
  LL_TIM_WriteReg(TIMx, CCER, tmpccer);
 80051da:	687b      	ldr	r3, [r7, #4]
 80051dc:	697a      	ldr	r2, [r7, #20]
 80051de:	621a      	str	r2, [r3, #32]

  return SUCCESS;
 80051e0:	2300      	movs	r3, #0
}
 80051e2:	4618      	mov	r0, r3
 80051e4:	3718      	adds	r7, #24
 80051e6:	46bd      	mov	sp, r7
 80051e8:	bd80      	pop	{r7, pc}
 80051ea:	bf00      	nop
 80051ec:	40012c00 	.word	0x40012c00

080051f0 <OC4Config>:
  * @retval An ErrorStatus enumeration value:
  *          - SUCCESS: TIMx registers are de-initialized
  *          - ERROR: not applicable
  */
static ErrorStatus OC4Config(TIM_TypeDef *TIMx, LL_TIM_OC_InitTypeDef *TIM_OCInitStruct)
{
 80051f0:	b580      	push	{r7, lr}
 80051f2:	b086      	sub	sp, #24
 80051f4:	af00      	add	r7, sp, #0
 80051f6:	6078      	str	r0, [r7, #4]
 80051f8:	6039      	str	r1, [r7, #0]
  assert_param(IS_LL_TIM_OCPOLARITY(TIM_OCInitStruct->OCPolarity));
  assert_param(IS_LL_TIM_OCPOLARITY(TIM_OCInitStruct->OCNPolarity));
  assert_param(IS_LL_TIM_OCSTATE(TIM_OCInitStruct->OCNState));

  /* Disable the Channel 4: Reset the CC4E Bit */
  CLEAR_BIT(TIMx->CCER, TIM_CCER_CC4E);
 80051fa:	687b      	ldr	r3, [r7, #4]
 80051fc:	6a1b      	ldr	r3, [r3, #32]
 80051fe:	f423 5280 	bic.w	r2, r3, #4096	; 0x1000
 8005202:	687b      	ldr	r3, [r7, #4]
 8005204:	621a      	str	r2, [r3, #32]

  /* Get the TIMx CCER register value */
  tmpccer = LL_TIM_ReadReg(TIMx, CCER);
 8005206:	687b      	ldr	r3, [r7, #4]
 8005208:	6a1b      	ldr	r3, [r3, #32]
 800520a:	613b      	str	r3, [r7, #16]

  /* Get the TIMx CR2 register value */
  tmpcr2 =  LL_TIM_ReadReg(TIMx, CR2);
 800520c:	687b      	ldr	r3, [r7, #4]
 800520e:	685b      	ldr	r3, [r3, #4]
 8005210:	617b      	str	r3, [r7, #20]

  /* Get the TIMx CCMR2 register value */
  tmpccmr2 = LL_TIM_ReadReg(TIMx, CCMR2);
 8005212:	687b      	ldr	r3, [r7, #4]
 8005214:	69db      	ldr	r3, [r3, #28]
 8005216:	60fb      	str	r3, [r7, #12]

  /* Reset Capture/Compare selection Bits */
  CLEAR_BIT(tmpccmr2, TIM_CCMR2_CC4S);
 8005218:	68fb      	ldr	r3, [r7, #12]
 800521a:	f423 7340 	bic.w	r3, r3, #768	; 0x300
 800521e:	60fb      	str	r3, [r7, #12]

  /* Select the Output Compare Mode */
  MODIFY_REG(tmpccmr2, TIM_CCMR2_OC4M, TIM_OCInitStruct->OCMode << 8U);
 8005220:	68fb      	ldr	r3, [r7, #12]
 8005222:	f423 42e0 	bic.w	r2, r3, #28672	; 0x7000
 8005226:	683b      	ldr	r3, [r7, #0]
 8005228:	681b      	ldr	r3, [r3, #0]
 800522a:	021b      	lsls	r3, r3, #8
 800522c:	4313      	orrs	r3, r2
 800522e:	60fb      	str	r3, [r7, #12]

  /* Set the Output Compare Polarity */
  MODIFY_REG(tmpccer, TIM_CCER_CC4P, TIM_OCInitStruct->OCPolarity << 12U);
 8005230:	693b      	ldr	r3, [r7, #16]
 8005232:	f423 5200 	bic.w	r2, r3, #8192	; 0x2000
 8005236:	683b      	ldr	r3, [r7, #0]
 8005238:	691b      	ldr	r3, [r3, #16]
 800523a:	031b      	lsls	r3, r3, #12
 800523c:	4313      	orrs	r3, r2
 800523e:	613b      	str	r3, [r7, #16]

  /* Set the Output State */
  MODIFY_REG(tmpccer, TIM_CCER_CC4E, TIM_OCInitStruct->OCState << 12U);
 8005240:	693b      	ldr	r3, [r7, #16]
 8005242:	f423 5280 	bic.w	r2, r3, #4096	; 0x1000
 8005246:	683b      	ldr	r3, [r7, #0]
 8005248:	685b      	ldr	r3, [r3, #4]
 800524a:	031b      	lsls	r3, r3, #12
 800524c:	4313      	orrs	r3, r2
 800524e:	613b      	str	r3, [r7, #16]

  if (IS_TIM_BREAK_INSTANCE(TIMx))
 8005250:	687b      	ldr	r3, [r7, #4]
 8005252:	4a0f      	ldr	r2, [pc, #60]	; (8005290 <OC4Config+0xa0>)
 8005254:	4293      	cmp	r3, r2
 8005256:	d107      	bne.n	8005268 <OC4Config+0x78>
  {
    assert_param(IS_LL_TIM_OCIDLESTATE(TIM_OCInitStruct->OCNIdleState));
    assert_param(IS_LL_TIM_OCIDLESTATE(TIM_OCInitStruct->OCIdleState));

    /* Set the Output Idle state */
    MODIFY_REG(tmpcr2, TIM_CR2_OIS4, TIM_OCInitStruct->OCIdleState << 6U);
 8005258:	697b      	ldr	r3, [r7, #20]
 800525a:	f423 4280 	bic.w	r2, r3, #16384	; 0x4000
 800525e:	683b      	ldr	r3, [r7, #0]
 8005260:	699b      	ldr	r3, [r3, #24]
 8005262:	019b      	lsls	r3, r3, #6
 8005264:	4313      	orrs	r3, r2
 8005266:	617b      	str	r3, [r7, #20]
  }

  /* Write to TIMx CR2 */
  LL_TIM_WriteReg(TIMx, CR2, tmpcr2);
 8005268:	687b      	ldr	r3, [r7, #4]
 800526a:	697a      	ldr	r2, [r7, #20]
 800526c:	605a      	str	r2, [r3, #4]

  /* Write to TIMx CCMR2 */
  LL_TIM_WriteReg(TIMx, CCMR2, tmpccmr2);
 800526e:	687b      	ldr	r3, [r7, #4]
 8005270:	68fa      	ldr	r2, [r7, #12]
 8005272:	61da      	str	r2, [r3, #28]

  /* Set the Capture Compare Register value */
  LL_TIM_OC_SetCompareCH4(TIMx, TIM_OCInitStruct->CompareValue);
 8005274:	683b      	ldr	r3, [r7, #0]
 8005276:	68db      	ldr	r3, [r3, #12]
 8005278:	4619      	mov	r1, r3
 800527a:	6878      	ldr	r0, [r7, #4]
 800527c:	f7ff fd84 	bl	8004d88 <LL_TIM_OC_SetCompareCH4>

  /* Write to TIMx CCER */
  LL_TIM_WriteReg(TIMx, CCER, tmpccer);
 8005280:	687b      	ldr	r3, [r7, #4]
 8005282:	693a      	ldr	r2, [r7, #16]
 8005284:	621a      	str	r2, [r3, #32]

  return SUCCESS;
 8005286:	2300      	movs	r3, #0
}
 8005288:	4618      	mov	r0, r3
 800528a:	3718      	adds	r7, #24
 800528c:	46bd      	mov	sp, r7
 800528e:	bd80      	pop	{r7, pc}
 8005290:	40012c00 	.word	0x40012c00

08005294 <LL_USART_IsEnabled>:
{
 8005294:	b480      	push	{r7}
 8005296:	b083      	sub	sp, #12
 8005298:	af00      	add	r7, sp, #0
 800529a:	6078      	str	r0, [r7, #4]
  return (READ_BIT(USARTx->CR1, USART_CR1_UE) == (USART_CR1_UE));
 800529c:	687b      	ldr	r3, [r7, #4]
 800529e:	68db      	ldr	r3, [r3, #12]
 80052a0:	f403 5300 	and.w	r3, r3, #8192	; 0x2000
 80052a4:	f5b3 5f00 	cmp.w	r3, #8192	; 0x2000
 80052a8:	bf0c      	ite	eq
 80052aa:	2301      	moveq	r3, #1
 80052ac:	2300      	movne	r3, #0
 80052ae:	b2db      	uxtb	r3, r3
}
 80052b0:	4618      	mov	r0, r3
 80052b2:	370c      	adds	r7, #12
 80052b4:	46bd      	mov	sp, r7
 80052b6:	bc80      	pop	{r7}
 80052b8:	4770      	bx	lr

080052ba <LL_USART_SetStopBitsLength>:
{
 80052ba:	b480      	push	{r7}
 80052bc:	b083      	sub	sp, #12
 80052be:	af00      	add	r7, sp, #0
 80052c0:	6078      	str	r0, [r7, #4]
 80052c2:	6039      	str	r1, [r7, #0]
  MODIFY_REG(USARTx->CR2, USART_CR2_STOP, StopBits);
 80052c4:	687b      	ldr	r3, [r7, #4]
 80052c6:	691b      	ldr	r3, [r3, #16]
 80052c8:	f423 5240 	bic.w	r2, r3, #12288	; 0x3000
 80052cc:	683b      	ldr	r3, [r7, #0]
 80052ce:	431a      	orrs	r2, r3
 80052d0:	687b      	ldr	r3, [r7, #4]
 80052d2:	611a      	str	r2, [r3, #16]
}
 80052d4:	bf00      	nop
 80052d6:	370c      	adds	r7, #12
 80052d8:	46bd      	mov	sp, r7
 80052da:	bc80      	pop	{r7}
 80052dc:	4770      	bx	lr

080052de <LL_USART_SetHWFlowCtrl>:
{
 80052de:	b480      	push	{r7}
 80052e0:	b083      	sub	sp, #12
 80052e2:	af00      	add	r7, sp, #0
 80052e4:	6078      	str	r0, [r7, #4]
 80052e6:	6039      	str	r1, [r7, #0]
  MODIFY_REG(USARTx->CR3, USART_CR3_RTSE | USART_CR3_CTSE, HardwareFlowControl);
 80052e8:	687b      	ldr	r3, [r7, #4]
 80052ea:	695b      	ldr	r3, [r3, #20]
 80052ec:	f423 7240 	bic.w	r2, r3, #768	; 0x300
 80052f0:	683b      	ldr	r3, [r7, #0]
 80052f2:	431a      	orrs	r2, r3
 80052f4:	687b      	ldr	r3, [r7, #4]
 80052f6:	615a      	str	r2, [r3, #20]
}
 80052f8:	bf00      	nop
 80052fa:	370c      	adds	r7, #12
 80052fc:	46bd      	mov	sp, r7
 80052fe:	bc80      	pop	{r7}
 8005300:	4770      	bx	lr
	...

08005304 <LL_USART_SetBaudRate>:
{
 8005304:	b480      	push	{r7}
 8005306:	b085      	sub	sp, #20
 8005308:	af00      	add	r7, sp, #0
 800530a:	60f8      	str	r0, [r7, #12]
 800530c:	60b9      	str	r1, [r7, #8]
 800530e:	607a      	str	r2, [r7, #4]
  USARTx->BRR = (uint16_t)(__LL_USART_DIV_SAMPLING16(PeriphClk, BaudRate));
 8005310:	68ba      	ldr	r2, [r7, #8]
 8005312:	4613      	mov	r3, r2
 8005314:	009b      	lsls	r3, r3, #2
 8005316:	4413      	add	r3, r2
 8005318:	009a      	lsls	r2, r3, #2
 800531a:	441a      	add	r2, r3
 800531c:	687b      	ldr	r3, [r7, #4]
 800531e:	009b      	lsls	r3, r3, #2
 8005320:	fbb2 f3f3 	udiv	r3, r2, r3
 8005324:	4a25      	ldr	r2, [pc, #148]	; (80053bc <LL_USART_SetBaudRate+0xb8>)
 8005326:	fba2 2303 	umull	r2, r3, r2, r3
 800532a:	095b      	lsrs	r3, r3, #5
 800532c:	b29b      	uxth	r3, r3
 800532e:	011b      	lsls	r3, r3, #4
 8005330:	b299      	uxth	r1, r3
 8005332:	68ba      	ldr	r2, [r7, #8]
 8005334:	4613      	mov	r3, r2
 8005336:	009b      	lsls	r3, r3, #2
 8005338:	4413      	add	r3, r2
 800533a:	009a      	lsls	r2, r3, #2
 800533c:	441a      	add	r2, r3
 800533e:	687b      	ldr	r3, [r7, #4]
 8005340:	009b      	lsls	r3, r3, #2
 8005342:	fbb2 f2f3 	udiv	r2, r2, r3
 8005346:	4b1d      	ldr	r3, [pc, #116]	; (80053bc <LL_USART_SetBaudRate+0xb8>)
 8005348:	fba3 0302 	umull	r0, r3, r3, r2
 800534c:	095b      	lsrs	r3, r3, #5
 800534e:	2064      	movs	r0, #100	; 0x64
 8005350:	fb00 f303 	mul.w	r3, r0, r3
 8005354:	1ad3      	subs	r3, r2, r3
 8005356:	011b      	lsls	r3, r3, #4
 8005358:	3332      	adds	r3, #50	; 0x32
 800535a:	4a18      	ldr	r2, [pc, #96]	; (80053bc <LL_USART_SetBaudRate+0xb8>)
 800535c:	fba2 2303 	umull	r2, r3, r2, r3
 8005360:	095b      	lsrs	r3, r3, #5
 8005362:	b29b      	uxth	r3, r3
 8005364:	f003 03f0 	and.w	r3, r3, #240	; 0xf0
 8005368:	b29b      	uxth	r3, r3
 800536a:	440b      	add	r3, r1
 800536c:	b299      	uxth	r1, r3
 800536e:	68ba      	ldr	r2, [r7, #8]
 8005370:	4613      	mov	r3, r2
 8005372:	009b      	lsls	r3, r3, #2
 8005374:	4413      	add	r3, r2
 8005376:	009a      	lsls	r2, r3, #2
 8005378:	441a      	add	r2, r3
 800537a:	687b      	ldr	r3, [r7, #4]
 800537c:	009b      	lsls	r3, r3, #2
 800537e:	fbb2 f2f3 	udiv	r2, r2, r3
 8005382:	4b0e      	ldr	r3, [pc, #56]	; (80053bc <LL_USART_SetBaudRate+0xb8>)
 8005384:	fba3 0302 	umull	r0, r3, r3, r2
 8005388:	095b      	lsrs	r3, r3, #5
 800538a:	2064      	movs	r0, #100	; 0x64
 800538c:	fb00 f303 	mul.w	r3, r0, r3
 8005390:	1ad3      	subs	r3, r2, r3
 8005392:	011b      	lsls	r3, r3, #4
 8005394:	3332      	adds	r3, #50	; 0x32
 8005396:	4a09      	ldr	r2, [pc, #36]	; (80053bc <LL_USART_SetBaudRate+0xb8>)
 8005398:	fba2 2303 	umull	r2, r3, r2, r3
 800539c:	095b      	lsrs	r3, r3, #5
 800539e:	b29b      	uxth	r3, r3
 80053a0:	f003 030f 	and.w	r3, r3, #15
 80053a4:	b29b      	uxth	r3, r3
 80053a6:	440b      	add	r3, r1
 80053a8:	b29b      	uxth	r3, r3
 80053aa:	461a      	mov	r2, r3
 80053ac:	68fb      	ldr	r3, [r7, #12]
 80053ae:	609a      	str	r2, [r3, #8]
}
 80053b0:	bf00      	nop
 80053b2:	3714      	adds	r7, #20
 80053b4:	46bd      	mov	sp, r7
 80053b6:	bc80      	pop	{r7}
 80053b8:	4770      	bx	lr
 80053ba:	bf00      	nop
 80053bc:	51eb851f 	.word	0x51eb851f

080053c0 <LL_USART_Init>:
  * @retval An ErrorStatus enumeration value:
  *          - SUCCESS: USART registers are initialized according to USART_InitStruct content
  *          - ERROR: Problem occurred during USART Registers initialization
  */
ErrorStatus LL_USART_Init(USART_TypeDef *USARTx, LL_USART_InitTypeDef *USART_InitStruct)
{
 80053c0:	b580      	push	{r7, lr}
 80053c2:	b088      	sub	sp, #32
 80053c4:	af00      	add	r7, sp, #0
 80053c6:	6078      	str	r0, [r7, #4]
 80053c8:	6039      	str	r1, [r7, #0]
  ErrorStatus status = ERROR;
 80053ca:	2301      	movs	r3, #1
 80053cc:	77fb      	strb	r3, [r7, #31]
  uint32_t periphclk = LL_RCC_PERIPH_FREQUENCY_NO;
 80053ce:	2300      	movs	r3, #0
 80053d0:	61bb      	str	r3, [r7, #24]
  assert_param(IS_LL_USART_OVERSAMPLING(USART_InitStruct->OverSampling));
#endif /* USART_OverSampling_Feature */

  /* USART needs to be in disabled state, in order to be able to configure some bits in
     CRx registers */
  if (LL_USART_IsEnabled(USARTx) == 0U)
 80053d2:	6878      	ldr	r0, [r7, #4]
 80053d4:	f7ff ff5e 	bl	8005294 <LL_USART_IsEnabled>
 80053d8:	4603      	mov	r3, r0
 80053da:	2b00      	cmp	r3, #0
 80053dc:	d145      	bne.n	800546a <LL_USART_Init+0xaa>
               (USART_CR1_M | USART_CR1_PCE | USART_CR1_PS |
                USART_CR1_TE | USART_CR1_RE | USART_CR1_OVER8),
               (USART_InitStruct->DataWidth | USART_InitStruct->Parity |
                USART_InitStruct->TransferDirection | USART_InitStruct->OverSampling));
#else
    MODIFY_REG(USARTx->CR1,
 80053de:	687b      	ldr	r3, [r7, #4]
 80053e0:	68db      	ldr	r3, [r3, #12]
 80053e2:	f423 53b0 	bic.w	r3, r3, #5632	; 0x1600
 80053e6:	f023 030c 	bic.w	r3, r3, #12
 80053ea:	683a      	ldr	r2, [r7, #0]
 80053ec:	6851      	ldr	r1, [r2, #4]
 80053ee:	683a      	ldr	r2, [r7, #0]
 80053f0:	68d2      	ldr	r2, [r2, #12]
 80053f2:	4311      	orrs	r1, r2
 80053f4:	683a      	ldr	r2, [r7, #0]
 80053f6:	6912      	ldr	r2, [r2, #16]
 80053f8:	430a      	orrs	r2, r1
 80053fa:	431a      	orrs	r2, r3
 80053fc:	687b      	ldr	r3, [r7, #4]
 80053fe:	60da      	str	r2, [r3, #12]
    /*---------------------------- USART CR2 Configuration -----------------------
     * Configure USARTx CR2 (Stop bits) with parameters:
     * - Stop Bits:          USART_CR2_STOP bits according to USART_InitStruct->StopBits value.
     * - CLKEN, CPOL, CPHA and LBCL bits are to be configured using LL_USART_ClockInit().
     */
    LL_USART_SetStopBitsLength(USARTx, USART_InitStruct->StopBits);
 8005400:	683b      	ldr	r3, [r7, #0]
 8005402:	689b      	ldr	r3, [r3, #8]
 8005404:	4619      	mov	r1, r3
 8005406:	6878      	ldr	r0, [r7, #4]
 8005408:	f7ff ff57 	bl	80052ba <LL_USART_SetStopBitsLength>

    /*---------------------------- USART CR3 Configuration -----------------------
     * Configure USARTx CR3 (Hardware Flow Control) with parameters:
     * - HardwareFlowControl: USART_CR3_RTSE, USART_CR3_CTSE bits according to USART_InitStruct->HardwareFlowControl value.
     */
    LL_USART_SetHWFlowCtrl(USARTx, USART_InitStruct->HardwareFlowControl);
 800540c:	683b      	ldr	r3, [r7, #0]
 800540e:	695b      	ldr	r3, [r3, #20]
 8005410:	4619      	mov	r1, r3
 8005412:	6878      	ldr	r0, [r7, #4]
 8005414:	f7ff ff63 	bl	80052de <LL_USART_SetHWFlowCtrl>

    /*---------------------------- USART BRR Configuration -----------------------
     * Retrieve Clock frequency used for USART Peripheral
     */
    LL_RCC_GetSystemClocksFreq(&rcc_clocks);
 8005418:	f107 0308 	add.w	r3, r7, #8
 800541c:	4618      	mov	r0, r3
 800541e:	f7ff fbaf 	bl	8004b80 <LL_RCC_GetSystemClocksFreq>
    if (USARTx == USART1)
 8005422:	687b      	ldr	r3, [r7, #4]
 8005424:	4a13      	ldr	r2, [pc, #76]	; (8005474 <LL_USART_Init+0xb4>)
 8005426:	4293      	cmp	r3, r2
 8005428:	d102      	bne.n	8005430 <LL_USART_Init+0x70>
    {
      periphclk = rcc_clocks.PCLK2_Frequency;
 800542a:	697b      	ldr	r3, [r7, #20]
 800542c:	61bb      	str	r3, [r7, #24]
 800542e:	e00c      	b.n	800544a <LL_USART_Init+0x8a>
    }
    else if (USARTx == USART2)
 8005430:	687b      	ldr	r3, [r7, #4]
 8005432:	4a11      	ldr	r2, [pc, #68]	; (8005478 <LL_USART_Init+0xb8>)
 8005434:	4293      	cmp	r3, r2
 8005436:	d102      	bne.n	800543e <LL_USART_Init+0x7e>
    {
      periphclk = rcc_clocks.PCLK1_Frequency;
 8005438:	693b      	ldr	r3, [r7, #16]
 800543a:	61bb      	str	r3, [r7, #24]
 800543c:	e005      	b.n	800544a <LL_USART_Init+0x8a>
    }
#if defined(USART3)
    else if (USARTx == USART3)
 800543e:	687b      	ldr	r3, [r7, #4]
 8005440:	4a0e      	ldr	r2, [pc, #56]	; (800547c <LL_USART_Init+0xbc>)
 8005442:	4293      	cmp	r3, r2
 8005444:	d101      	bne.n	800544a <LL_USART_Init+0x8a>
    {
      periphclk = rcc_clocks.PCLK1_Frequency;
 8005446:	693b      	ldr	r3, [r7, #16]
 8005448:	61bb      	str	r3, [r7, #24]

    /* Configure the USART Baud Rate :
       - valid baud rate value (different from 0) is required
       - Peripheral clock as returned by RCC service, should be valid (different from 0).
    */
    if ((periphclk != LL_RCC_PERIPH_FREQUENCY_NO)
 800544a:	69bb      	ldr	r3, [r7, #24]
 800544c:	2b00      	cmp	r3, #0
 800544e:	d00c      	beq.n	800546a <LL_USART_Init+0xaa>
        && (USART_InitStruct->BaudRate != 0U))
 8005450:	683b      	ldr	r3, [r7, #0]
 8005452:	681b      	ldr	r3, [r3, #0]
 8005454:	2b00      	cmp	r3, #0
 8005456:	d008      	beq.n	800546a <LL_USART_Init+0xaa>
    {
      status = SUCCESS;
 8005458:	2300      	movs	r3, #0
 800545a:	77fb      	strb	r3, [r7, #31]
      LL_USART_SetBaudRate(USARTx,
                           periphclk,
                           USART_InitStruct->OverSampling,
                           USART_InitStruct->BaudRate);
#else
      LL_USART_SetBaudRate(USARTx,
 800545c:	683b      	ldr	r3, [r7, #0]
 800545e:	681b      	ldr	r3, [r3, #0]
 8005460:	461a      	mov	r2, r3
 8005462:	69b9      	ldr	r1, [r7, #24]
 8005464:	6878      	ldr	r0, [r7, #4]
 8005466:	f7ff ff4d 	bl	8005304 <LL_USART_SetBaudRate>
      assert_param(IS_LL_USART_BRR_MAX(USARTx->BRR));
    }
  }
  /* Endif (=> USART not in Disabled state => return ERROR) */

  return (status);
 800546a:	7ffb      	ldrb	r3, [r7, #31]
}
 800546c:	4618      	mov	r0, r3
 800546e:	3720      	adds	r7, #32
 8005470:	46bd      	mov	sp, r7
 8005472:	bd80      	pop	{r7, pc}
 8005474:	40013800 	.word	0x40013800
 8005478:	40004400 	.word	0x40004400
 800547c:	40004800 	.word	0x40004800

08005480 <LL_InitTick>:
  *         configuration by calling this function, for a delay use rather osDelay RTOS service.
  * @param  Ticks Number of ticks
  * @retval None
  */
__STATIC_INLINE void LL_InitTick(uint32_t HCLKFrequency, uint32_t Ticks)
{
 8005480:	b480      	push	{r7}
 8005482:	b083      	sub	sp, #12
 8005484:	af00      	add	r7, sp, #0
 8005486:	6078      	str	r0, [r7, #4]
 8005488:	6039      	str	r1, [r7, #0]
  /* Configure the SysTick to have interrupt in 1ms time base */
  SysTick->LOAD  = (uint32_t)((HCLKFrequency / Ticks) - 1UL);  /* set reload register */
 800548a:	687a      	ldr	r2, [r7, #4]
 800548c:	683b      	ldr	r3, [r7, #0]
 800548e:	fbb2 f3f3 	udiv	r3, r2, r3
 8005492:	4a07      	ldr	r2, [pc, #28]	; (80054b0 <LL_InitTick+0x30>)
 8005494:	3b01      	subs	r3, #1
 8005496:	6053      	str	r3, [r2, #4]
  SysTick->VAL   = 0UL;                                       /* Load the SysTick Counter Value */
 8005498:	4b05      	ldr	r3, [pc, #20]	; (80054b0 <LL_InitTick+0x30>)
 800549a:	2200      	movs	r2, #0
 800549c:	609a      	str	r2, [r3, #8]
  SysTick->CTRL  = SysTick_CTRL_CLKSOURCE_Msk |
 800549e:	4b04      	ldr	r3, [pc, #16]	; (80054b0 <LL_InitTick+0x30>)
 80054a0:	2205      	movs	r2, #5
 80054a2:	601a      	str	r2, [r3, #0]
                   SysTick_CTRL_ENABLE_Msk;                   /* Enable the Systick Timer */
}
 80054a4:	bf00      	nop
 80054a6:	370c      	adds	r7, #12
 80054a8:	46bd      	mov	sp, r7
 80054aa:	bc80      	pop	{r7}
 80054ac:	4770      	bx	lr
 80054ae:	bf00      	nop
 80054b0:	e000e010 	.word	0xe000e010

080054b4 <LL_Init1msTick>:
  * @param  HCLKFrequency HCLK frequency in Hz
  * @note   HCLK frequency can be calculated thanks to RCC helper macro or function @ref LL_RCC_GetSystemClocksFreq
  * @retval None
  */
void LL_Init1msTick(uint32_t HCLKFrequency)
{
 80054b4:	b580      	push	{r7, lr}
 80054b6:	b082      	sub	sp, #8
 80054b8:	af00      	add	r7, sp, #0
 80054ba:	6078      	str	r0, [r7, #4]
  /* Use frequency provided in argument */
  LL_InitTick(HCLKFrequency, 1000U);
 80054bc:	f44f 717a 	mov.w	r1, #1000	; 0x3e8
 80054c0:	6878      	ldr	r0, [r7, #4]
 80054c2:	f7ff ffdd 	bl	8005480 <LL_InitTick>
}
 80054c6:	bf00      	nop
 80054c8:	3708      	adds	r7, #8
 80054ca:	46bd      	mov	sp, r7
 80054cc:	bd80      	pop	{r7, pc}
	...

080054d0 <LL_SetSystemCoreClock>:
  * @note   Variable can be calculated also through SystemCoreClockUpdate function.
  * @param  HCLKFrequency HCLK frequency in Hz (can be calculated thanks to RCC helper macro)
  * @retval None
  */
void LL_SetSystemCoreClock(uint32_t HCLKFrequency)
{
 80054d0:	b480      	push	{r7}
 80054d2:	b083      	sub	sp, #12
 80054d4:	af00      	add	r7, sp, #0
 80054d6:	6078      	str	r0, [r7, #4]
  /* HCLK clock frequency */
  SystemCoreClock = HCLKFrequency;
 80054d8:	4a03      	ldr	r2, [pc, #12]	; (80054e8 <LL_SetSystemCoreClock+0x18>)
 80054da:	687b      	ldr	r3, [r7, #4]
 80054dc:	6013      	str	r3, [r2, #0]
}
 80054de:	bf00      	nop
 80054e0:	370c      	adds	r7, #12
 80054e2:	46bd      	mov	sp, r7
 80054e4:	bc80      	pop	{r7}
 80054e6:	4770      	bx	lr
 80054e8:	20000014 	.word	0x20000014

080054ec <__errno>:
 80054ec:	4b01      	ldr	r3, [pc, #4]	; (80054f4 <__errno+0x8>)
 80054ee:	6818      	ldr	r0, [r3, #0]
 80054f0:	4770      	bx	lr
 80054f2:	bf00      	nop
 80054f4:	20000018 	.word	0x20000018

080054f8 <__libc_init_array>:
 80054f8:	b570      	push	{r4, r5, r6, lr}
 80054fa:	2500      	movs	r5, #0
 80054fc:	4e0c      	ldr	r6, [pc, #48]	; (8005530 <__libc_init_array+0x38>)
 80054fe:	4c0d      	ldr	r4, [pc, #52]	; (8005534 <__libc_init_array+0x3c>)
 8005500:	1ba4      	subs	r4, r4, r6
 8005502:	10a4      	asrs	r4, r4, #2
 8005504:	42a5      	cmp	r5, r4
 8005506:	d109      	bne.n	800551c <__libc_init_array+0x24>
 8005508:	f002 f870 	bl	80075ec <_init>
 800550c:	2500      	movs	r5, #0
 800550e:	4e0a      	ldr	r6, [pc, #40]	; (8005538 <__libc_init_array+0x40>)
 8005510:	4c0a      	ldr	r4, [pc, #40]	; (800553c <__libc_init_array+0x44>)
 8005512:	1ba4      	subs	r4, r4, r6
 8005514:	10a4      	asrs	r4, r4, #2
 8005516:	42a5      	cmp	r5, r4
 8005518:	d105      	bne.n	8005526 <__libc_init_array+0x2e>
 800551a:	bd70      	pop	{r4, r5, r6, pc}
 800551c:	f856 3025 	ldr.w	r3, [r6, r5, lsl #2]
 8005520:	4798      	blx	r3
 8005522:	3501      	adds	r5, #1
 8005524:	e7ee      	b.n	8005504 <__libc_init_array+0xc>
 8005526:	f856 3025 	ldr.w	r3, [r6, r5, lsl #2]
 800552a:	4798      	blx	r3
 800552c:	3501      	adds	r5, #1
 800552e:	e7f2      	b.n	8005516 <__libc_init_array+0x1e>
 8005530:	080078d8 	.word	0x080078d8
 8005534:	080078d8 	.word	0x080078d8
 8005538:	080078d8 	.word	0x080078d8
 800553c:	080078dc 	.word	0x080078dc

08005540 <memset>:
 8005540:	4603      	mov	r3, r0
 8005542:	4402      	add	r2, r0
 8005544:	4293      	cmp	r3, r2
 8005546:	d100      	bne.n	800554a <memset+0xa>
 8005548:	4770      	bx	lr
 800554a:	f803 1b01 	strb.w	r1, [r3], #1
 800554e:	e7f9      	b.n	8005544 <memset+0x4>

08005550 <__cvt>:
 8005550:	2b00      	cmp	r3, #0
 8005552:	e92d 47f0 	stmdb	sp!, {r4, r5, r6, r7, r8, r9, sl, lr}
 8005556:	461e      	mov	r6, r3
 8005558:	bfbb      	ittet	lt
 800555a:	f103 4300 	addlt.w	r3, r3, #2147483648	; 0x80000000
 800555e:	461e      	movlt	r6, r3
 8005560:	2300      	movge	r3, #0
 8005562:	232d      	movlt	r3, #45	; 0x2d
 8005564:	b088      	sub	sp, #32
 8005566:	9f14      	ldr	r7, [sp, #80]	; 0x50
 8005568:	e9dd 1a12 	ldrd	r1, sl, [sp, #72]	; 0x48
 800556c:	f027 0720 	bic.w	r7, r7, #32
 8005570:	2f46      	cmp	r7, #70	; 0x46
 8005572:	4614      	mov	r4, r2
 8005574:	9d10      	ldr	r5, [sp, #64]	; 0x40
 8005576:	700b      	strb	r3, [r1, #0]
 8005578:	d004      	beq.n	8005584 <__cvt+0x34>
 800557a:	2f45      	cmp	r7, #69	; 0x45
 800557c:	d100      	bne.n	8005580 <__cvt+0x30>
 800557e:	3501      	adds	r5, #1
 8005580:	2302      	movs	r3, #2
 8005582:	e000      	b.n	8005586 <__cvt+0x36>
 8005584:	2303      	movs	r3, #3
 8005586:	aa07      	add	r2, sp, #28
 8005588:	9204      	str	r2, [sp, #16]
 800558a:	aa06      	add	r2, sp, #24
 800558c:	e9cd a202 	strd	sl, r2, [sp, #8]
 8005590:	e9cd 3500 	strd	r3, r5, [sp]
 8005594:	4622      	mov	r2, r4
 8005596:	4633      	mov	r3, r6
 8005598:	f000 fc56 	bl	8005e48 <_dtoa_r>
 800559c:	2f47      	cmp	r7, #71	; 0x47
 800559e:	4680      	mov	r8, r0
 80055a0:	d102      	bne.n	80055a8 <__cvt+0x58>
 80055a2:	9b11      	ldr	r3, [sp, #68]	; 0x44
 80055a4:	07db      	lsls	r3, r3, #31
 80055a6:	d526      	bpl.n	80055f6 <__cvt+0xa6>
 80055a8:	2f46      	cmp	r7, #70	; 0x46
 80055aa:	eb08 0905 	add.w	r9, r8, r5
 80055ae:	d111      	bne.n	80055d4 <__cvt+0x84>
 80055b0:	f898 3000 	ldrb.w	r3, [r8]
 80055b4:	2b30      	cmp	r3, #48	; 0x30
 80055b6:	d10a      	bne.n	80055ce <__cvt+0x7e>
 80055b8:	2200      	movs	r2, #0
 80055ba:	2300      	movs	r3, #0
 80055bc:	4620      	mov	r0, r4
 80055be:	4631      	mov	r1, r6
 80055c0:	f7fb f9f2 	bl	80009a8 <__aeabi_dcmpeq>
 80055c4:	b918      	cbnz	r0, 80055ce <__cvt+0x7e>
 80055c6:	f1c5 0501 	rsb	r5, r5, #1
 80055ca:	f8ca 5000 	str.w	r5, [sl]
 80055ce:	f8da 3000 	ldr.w	r3, [sl]
 80055d2:	4499      	add	r9, r3
 80055d4:	2200      	movs	r2, #0
 80055d6:	2300      	movs	r3, #0
 80055d8:	4620      	mov	r0, r4
 80055da:	4631      	mov	r1, r6
 80055dc:	f7fb f9e4 	bl	80009a8 <__aeabi_dcmpeq>
 80055e0:	b938      	cbnz	r0, 80055f2 <__cvt+0xa2>
 80055e2:	2230      	movs	r2, #48	; 0x30
 80055e4:	9b07      	ldr	r3, [sp, #28]
 80055e6:	454b      	cmp	r3, r9
 80055e8:	d205      	bcs.n	80055f6 <__cvt+0xa6>
 80055ea:	1c59      	adds	r1, r3, #1
 80055ec:	9107      	str	r1, [sp, #28]
 80055ee:	701a      	strb	r2, [r3, #0]
 80055f0:	e7f8      	b.n	80055e4 <__cvt+0x94>
 80055f2:	f8cd 901c 	str.w	r9, [sp, #28]
 80055f6:	4640      	mov	r0, r8
 80055f8:	9b07      	ldr	r3, [sp, #28]
 80055fa:	9a15      	ldr	r2, [sp, #84]	; 0x54
 80055fc:	eba3 0308 	sub.w	r3, r3, r8
 8005600:	6013      	str	r3, [r2, #0]
 8005602:	b008      	add	sp, #32
 8005604:	e8bd 87f0 	ldmia.w	sp!, {r4, r5, r6, r7, r8, r9, sl, pc}

08005608 <__exponent>:
 8005608:	b5f7      	push	{r0, r1, r2, r4, r5, r6, r7, lr}
 800560a:	2900      	cmp	r1, #0
 800560c:	bfb4      	ite	lt
 800560e:	232d      	movlt	r3, #45	; 0x2d
 8005610:	232b      	movge	r3, #43	; 0x2b
 8005612:	4604      	mov	r4, r0
 8005614:	bfb8      	it	lt
 8005616:	4249      	neglt	r1, r1
 8005618:	2909      	cmp	r1, #9
 800561a:	f804 2b02 	strb.w	r2, [r4], #2
 800561e:	7043      	strb	r3, [r0, #1]
 8005620:	dd21      	ble.n	8005666 <__exponent+0x5e>
 8005622:	f10d 0307 	add.w	r3, sp, #7
 8005626:	461f      	mov	r7, r3
 8005628:	260a      	movs	r6, #10
 800562a:	fb91 f5f6 	sdiv	r5, r1, r6
 800562e:	fb06 1115 	mls	r1, r6, r5, r1
 8005632:	2d09      	cmp	r5, #9
 8005634:	f101 0130 	add.w	r1, r1, #48	; 0x30
 8005638:	f803 1c01 	strb.w	r1, [r3, #-1]
 800563c:	f103 32ff 	add.w	r2, r3, #4294967295
 8005640:	4629      	mov	r1, r5
 8005642:	dc09      	bgt.n	8005658 <__exponent+0x50>
 8005644:	3130      	adds	r1, #48	; 0x30
 8005646:	3b02      	subs	r3, #2
 8005648:	f802 1c01 	strb.w	r1, [r2, #-1]
 800564c:	42bb      	cmp	r3, r7
 800564e:	4622      	mov	r2, r4
 8005650:	d304      	bcc.n	800565c <__exponent+0x54>
 8005652:	1a10      	subs	r0, r2, r0
 8005654:	b003      	add	sp, #12
 8005656:	bdf0      	pop	{r4, r5, r6, r7, pc}
 8005658:	4613      	mov	r3, r2
 800565a:	e7e6      	b.n	800562a <__exponent+0x22>
 800565c:	f813 2b01 	ldrb.w	r2, [r3], #1
 8005660:	f804 2b01 	strb.w	r2, [r4], #1
 8005664:	e7f2      	b.n	800564c <__exponent+0x44>
 8005666:	2330      	movs	r3, #48	; 0x30
 8005668:	4419      	add	r1, r3
 800566a:	7083      	strb	r3, [r0, #2]
 800566c:	1d02      	adds	r2, r0, #4
 800566e:	70c1      	strb	r1, [r0, #3]
 8005670:	e7ef      	b.n	8005652 <__exponent+0x4a>
	...

08005674 <_printf_float>:
 8005674:	e92d 4ff0 	stmdb	sp!, {r4, r5, r6, r7, r8, r9, sl, fp, lr}
 8005678:	b091      	sub	sp, #68	; 0x44
 800567a:	460c      	mov	r4, r1
 800567c:	9f1a      	ldr	r7, [sp, #104]	; 0x68
 800567e:	4693      	mov	fp, r2
 8005680:	461e      	mov	r6, r3
 8005682:	4605      	mov	r5, r0
 8005684:	f001 fb0e 	bl	8006ca4 <_localeconv_r>
 8005688:	6803      	ldr	r3, [r0, #0]
 800568a:	4618      	mov	r0, r3
 800568c:	9309      	str	r3, [sp, #36]	; 0x24
 800568e:	f7fa fd5f 	bl	8000150 <strlen>
 8005692:	2300      	movs	r3, #0
 8005694:	930e      	str	r3, [sp, #56]	; 0x38
 8005696:	683b      	ldr	r3, [r7, #0]
 8005698:	900a      	str	r0, [sp, #40]	; 0x28
 800569a:	3307      	adds	r3, #7
 800569c:	f023 0307 	bic.w	r3, r3, #7
 80056a0:	f103 0208 	add.w	r2, r3, #8
 80056a4:	f894 8018 	ldrb.w	r8, [r4, #24]
 80056a8:	f8d4 a000 	ldr.w	sl, [r4]
 80056ac:	603a      	str	r2, [r7, #0]
 80056ae:	e9d3 2300 	ldrd	r2, r3, [r3]
 80056b2:	e9c4 2312 	strd	r2, r3, [r4, #72]	; 0x48
 80056b6:	e9d4 7912 	ldrd	r7, r9, [r4, #72]	; 0x48
 80056ba:	f029 4300 	bic.w	r3, r9, #2147483648	; 0x80000000
 80056be:	930b      	str	r3, [sp, #44]	; 0x2c
 80056c0:	f04f 32ff 	mov.w	r2, #4294967295
 80056c4:	4ba6      	ldr	r3, [pc, #664]	; (8005960 <_printf_float+0x2ec>)
 80056c6:	4638      	mov	r0, r7
 80056c8:	990b      	ldr	r1, [sp, #44]	; 0x2c
 80056ca:	f7fb f99f 	bl	8000a0c <__aeabi_dcmpun>
 80056ce:	bb68      	cbnz	r0, 800572c <_printf_float+0xb8>
 80056d0:	f04f 32ff 	mov.w	r2, #4294967295
 80056d4:	4ba2      	ldr	r3, [pc, #648]	; (8005960 <_printf_float+0x2ec>)
 80056d6:	4638      	mov	r0, r7
 80056d8:	990b      	ldr	r1, [sp, #44]	; 0x2c
 80056da:	f7fb f979 	bl	80009d0 <__aeabi_dcmple>
 80056de:	bb28      	cbnz	r0, 800572c <_printf_float+0xb8>
 80056e0:	2200      	movs	r2, #0
 80056e2:	2300      	movs	r3, #0
 80056e4:	4638      	mov	r0, r7
 80056e6:	4649      	mov	r1, r9
 80056e8:	f7fb f968 	bl	80009bc <__aeabi_dcmplt>
 80056ec:	b110      	cbz	r0, 80056f4 <_printf_float+0x80>
 80056ee:	232d      	movs	r3, #45	; 0x2d
 80056f0:	f884 3043 	strb.w	r3, [r4, #67]	; 0x43
 80056f4:	4f9b      	ldr	r7, [pc, #620]	; (8005964 <_printf_float+0x2f0>)
 80056f6:	4b9c      	ldr	r3, [pc, #624]	; (8005968 <_printf_float+0x2f4>)
 80056f8:	f1b8 0f47 	cmp.w	r8, #71	; 0x47
 80056fc:	bf98      	it	ls
 80056fe:	461f      	movls	r7, r3
 8005700:	2303      	movs	r3, #3
 8005702:	f04f 0900 	mov.w	r9, #0
 8005706:	6123      	str	r3, [r4, #16]
 8005708:	f02a 0304 	bic.w	r3, sl, #4
 800570c:	6023      	str	r3, [r4, #0]
 800570e:	9600      	str	r6, [sp, #0]
 8005710:	465b      	mov	r3, fp
 8005712:	aa0f      	add	r2, sp, #60	; 0x3c
 8005714:	4621      	mov	r1, r4
 8005716:	4628      	mov	r0, r5
 8005718:	f000 f9e2 	bl	8005ae0 <_printf_common>
 800571c:	3001      	adds	r0, #1
 800571e:	f040 8090 	bne.w	8005842 <_printf_float+0x1ce>
 8005722:	f04f 30ff 	mov.w	r0, #4294967295
 8005726:	b011      	add	sp, #68	; 0x44
 8005728:	e8bd 8ff0 	ldmia.w	sp!, {r4, r5, r6, r7, r8, r9, sl, fp, pc}
 800572c:	463a      	mov	r2, r7
 800572e:	464b      	mov	r3, r9
 8005730:	4638      	mov	r0, r7
 8005732:	4649      	mov	r1, r9
 8005734:	f7fb f96a 	bl	8000a0c <__aeabi_dcmpun>
 8005738:	b110      	cbz	r0, 8005740 <_printf_float+0xcc>
 800573a:	4f8c      	ldr	r7, [pc, #560]	; (800596c <_printf_float+0x2f8>)
 800573c:	4b8c      	ldr	r3, [pc, #560]	; (8005970 <_printf_float+0x2fc>)
 800573e:	e7db      	b.n	80056f8 <_printf_float+0x84>
 8005740:	6863      	ldr	r3, [r4, #4]
 8005742:	f44a 6280 	orr.w	r2, sl, #1024	; 0x400
 8005746:	1c59      	adds	r1, r3, #1
 8005748:	a80d      	add	r0, sp, #52	; 0x34
 800574a:	a90e      	add	r1, sp, #56	; 0x38
 800574c:	d140      	bne.n	80057d0 <_printf_float+0x15c>
 800574e:	2306      	movs	r3, #6
 8005750:	6063      	str	r3, [r4, #4]
 8005752:	f04f 0c00 	mov.w	ip, #0
 8005756:	f10d 0333 	add.w	r3, sp, #51	; 0x33
 800575a:	e9cd 2301 	strd	r2, r3, [sp, #4]
 800575e:	6863      	ldr	r3, [r4, #4]
 8005760:	6022      	str	r2, [r4, #0]
 8005762:	e9cd 0803 	strd	r0, r8, [sp, #12]
 8005766:	9300      	str	r3, [sp, #0]
 8005768:	463a      	mov	r2, r7
 800576a:	464b      	mov	r3, r9
 800576c:	e9cd 1c05 	strd	r1, ip, [sp, #20]
 8005770:	4628      	mov	r0, r5
 8005772:	f7ff feed 	bl	8005550 <__cvt>
 8005776:	f008 03df 	and.w	r3, r8, #223	; 0xdf
 800577a:	2b47      	cmp	r3, #71	; 0x47
 800577c:	4607      	mov	r7, r0
 800577e:	d109      	bne.n	8005794 <_printf_float+0x120>
 8005780:	9b0d      	ldr	r3, [sp, #52]	; 0x34
 8005782:	1cd8      	adds	r0, r3, #3
 8005784:	db02      	blt.n	800578c <_printf_float+0x118>
 8005786:	6862      	ldr	r2, [r4, #4]
 8005788:	4293      	cmp	r3, r2
 800578a:	dd47      	ble.n	800581c <_printf_float+0x1a8>
 800578c:	f1a8 0802 	sub.w	r8, r8, #2
 8005790:	fa5f f888 	uxtb.w	r8, r8
 8005794:	f1b8 0f65 	cmp.w	r8, #101	; 0x65
 8005798:	990d      	ldr	r1, [sp, #52]	; 0x34
 800579a:	d824      	bhi.n	80057e6 <_printf_float+0x172>
 800579c:	3901      	subs	r1, #1
 800579e:	4642      	mov	r2, r8
 80057a0:	f104 0050 	add.w	r0, r4, #80	; 0x50
 80057a4:	910d      	str	r1, [sp, #52]	; 0x34
 80057a6:	f7ff ff2f 	bl	8005608 <__exponent>
 80057aa:	9a0e      	ldr	r2, [sp, #56]	; 0x38
 80057ac:	4681      	mov	r9, r0
 80057ae:	1813      	adds	r3, r2, r0
 80057b0:	2a01      	cmp	r2, #1
 80057b2:	6123      	str	r3, [r4, #16]
 80057b4:	dc02      	bgt.n	80057bc <_printf_float+0x148>
 80057b6:	6822      	ldr	r2, [r4, #0]
 80057b8:	07d1      	lsls	r1, r2, #31
 80057ba:	d501      	bpl.n	80057c0 <_printf_float+0x14c>
 80057bc:	3301      	adds	r3, #1
 80057be:	6123      	str	r3, [r4, #16]
 80057c0:	f89d 3033 	ldrb.w	r3, [sp, #51]	; 0x33
 80057c4:	2b00      	cmp	r3, #0
 80057c6:	d0a2      	beq.n	800570e <_printf_float+0x9a>
 80057c8:	232d      	movs	r3, #45	; 0x2d
 80057ca:	f884 3043 	strb.w	r3, [r4, #67]	; 0x43
 80057ce:	e79e      	b.n	800570e <_printf_float+0x9a>
 80057d0:	f1b8 0f67 	cmp.w	r8, #103	; 0x67
 80057d4:	f000 816e 	beq.w	8005ab4 <_printf_float+0x440>
 80057d8:	f1b8 0f47 	cmp.w	r8, #71	; 0x47
 80057dc:	d1b9      	bne.n	8005752 <_printf_float+0xde>
 80057de:	2b00      	cmp	r3, #0
 80057e0:	d1b7      	bne.n	8005752 <_printf_float+0xde>
 80057e2:	2301      	movs	r3, #1
 80057e4:	e7b4      	b.n	8005750 <_printf_float+0xdc>
 80057e6:	f1b8 0f66 	cmp.w	r8, #102	; 0x66
 80057ea:	d119      	bne.n	8005820 <_printf_float+0x1ac>
 80057ec:	2900      	cmp	r1, #0
 80057ee:	6863      	ldr	r3, [r4, #4]
 80057f0:	dd0c      	ble.n	800580c <_printf_float+0x198>
 80057f2:	6121      	str	r1, [r4, #16]
 80057f4:	b913      	cbnz	r3, 80057fc <_printf_float+0x188>
 80057f6:	6822      	ldr	r2, [r4, #0]
 80057f8:	07d2      	lsls	r2, r2, #31
 80057fa:	d502      	bpl.n	8005802 <_printf_float+0x18e>
 80057fc:	3301      	adds	r3, #1
 80057fe:	440b      	add	r3, r1
 8005800:	6123      	str	r3, [r4, #16]
 8005802:	9b0d      	ldr	r3, [sp, #52]	; 0x34
 8005804:	f04f 0900 	mov.w	r9, #0
 8005808:	65a3      	str	r3, [r4, #88]	; 0x58
 800580a:	e7d9      	b.n	80057c0 <_printf_float+0x14c>
 800580c:	b913      	cbnz	r3, 8005814 <_printf_float+0x1a0>
 800580e:	6822      	ldr	r2, [r4, #0]
 8005810:	07d0      	lsls	r0, r2, #31
 8005812:	d501      	bpl.n	8005818 <_printf_float+0x1a4>
 8005814:	3302      	adds	r3, #2
 8005816:	e7f3      	b.n	8005800 <_printf_float+0x18c>
 8005818:	2301      	movs	r3, #1
 800581a:	e7f1      	b.n	8005800 <_printf_float+0x18c>
 800581c:	f04f 0867 	mov.w	r8, #103	; 0x67
 8005820:	e9dd 320d 	ldrd	r3, r2, [sp, #52]	; 0x34
 8005824:	4293      	cmp	r3, r2
 8005826:	db05      	blt.n	8005834 <_printf_float+0x1c0>
 8005828:	6822      	ldr	r2, [r4, #0]
 800582a:	6123      	str	r3, [r4, #16]
 800582c:	07d1      	lsls	r1, r2, #31
 800582e:	d5e8      	bpl.n	8005802 <_printf_float+0x18e>
 8005830:	3301      	adds	r3, #1
 8005832:	e7e5      	b.n	8005800 <_printf_float+0x18c>
 8005834:	2b00      	cmp	r3, #0
 8005836:	bfcc      	ite	gt
 8005838:	2301      	movgt	r3, #1
 800583a:	f1c3 0302 	rsble	r3, r3, #2
 800583e:	4413      	add	r3, r2
 8005840:	e7de      	b.n	8005800 <_printf_float+0x18c>
 8005842:	6823      	ldr	r3, [r4, #0]
 8005844:	055a      	lsls	r2, r3, #21
 8005846:	d407      	bmi.n	8005858 <_printf_float+0x1e4>
 8005848:	6923      	ldr	r3, [r4, #16]
 800584a:	463a      	mov	r2, r7
 800584c:	4659      	mov	r1, fp
 800584e:	4628      	mov	r0, r5
 8005850:	47b0      	blx	r6
 8005852:	3001      	adds	r0, #1
 8005854:	d129      	bne.n	80058aa <_printf_float+0x236>
 8005856:	e764      	b.n	8005722 <_printf_float+0xae>
 8005858:	f1b8 0f65 	cmp.w	r8, #101	; 0x65
 800585c:	f240 80d7 	bls.w	8005a0e <_printf_float+0x39a>
 8005860:	e9d4 0112 	ldrd	r0, r1, [r4, #72]	; 0x48
 8005864:	2200      	movs	r2, #0
 8005866:	2300      	movs	r3, #0
 8005868:	f7fb f89e 	bl	80009a8 <__aeabi_dcmpeq>
 800586c:	b388      	cbz	r0, 80058d2 <_printf_float+0x25e>
 800586e:	2301      	movs	r3, #1
 8005870:	4a40      	ldr	r2, [pc, #256]	; (8005974 <_printf_float+0x300>)
 8005872:	4659      	mov	r1, fp
 8005874:	4628      	mov	r0, r5
 8005876:	47b0      	blx	r6
 8005878:	3001      	adds	r0, #1
 800587a:	f43f af52 	beq.w	8005722 <_printf_float+0xae>
 800587e:	e9dd 230d 	ldrd	r2, r3, [sp, #52]	; 0x34
 8005882:	429a      	cmp	r2, r3
 8005884:	db02      	blt.n	800588c <_printf_float+0x218>
 8005886:	6823      	ldr	r3, [r4, #0]
 8005888:	07d8      	lsls	r0, r3, #31
 800588a:	d50e      	bpl.n	80058aa <_printf_float+0x236>
 800588c:	e9dd 2309 	ldrd	r2, r3, [sp, #36]	; 0x24
 8005890:	4659      	mov	r1, fp
 8005892:	4628      	mov	r0, r5
 8005894:	47b0      	blx	r6
 8005896:	3001      	adds	r0, #1
 8005898:	f43f af43 	beq.w	8005722 <_printf_float+0xae>
 800589c:	2700      	movs	r7, #0
 800589e:	f104 081a 	add.w	r8, r4, #26
 80058a2:	9b0e      	ldr	r3, [sp, #56]	; 0x38
 80058a4:	3b01      	subs	r3, #1
 80058a6:	42bb      	cmp	r3, r7
 80058a8:	dc09      	bgt.n	80058be <_printf_float+0x24a>
 80058aa:	6823      	ldr	r3, [r4, #0]
 80058ac:	079f      	lsls	r7, r3, #30
 80058ae:	f100 80fd 	bmi.w	8005aac <_printf_float+0x438>
 80058b2:	68e0      	ldr	r0, [r4, #12]
 80058b4:	9b0f      	ldr	r3, [sp, #60]	; 0x3c
 80058b6:	4298      	cmp	r0, r3
 80058b8:	bfb8      	it	lt
 80058ba:	4618      	movlt	r0, r3
 80058bc:	e733      	b.n	8005726 <_printf_float+0xb2>
 80058be:	2301      	movs	r3, #1
 80058c0:	4642      	mov	r2, r8
 80058c2:	4659      	mov	r1, fp
 80058c4:	4628      	mov	r0, r5
 80058c6:	47b0      	blx	r6
 80058c8:	3001      	adds	r0, #1
 80058ca:	f43f af2a 	beq.w	8005722 <_printf_float+0xae>
 80058ce:	3701      	adds	r7, #1
 80058d0:	e7e7      	b.n	80058a2 <_printf_float+0x22e>
 80058d2:	9b0d      	ldr	r3, [sp, #52]	; 0x34
 80058d4:	2b00      	cmp	r3, #0
 80058d6:	dc2b      	bgt.n	8005930 <_printf_float+0x2bc>
 80058d8:	2301      	movs	r3, #1
 80058da:	4a26      	ldr	r2, [pc, #152]	; (8005974 <_printf_float+0x300>)
 80058dc:	4659      	mov	r1, fp
 80058de:	4628      	mov	r0, r5
 80058e0:	47b0      	blx	r6
 80058e2:	3001      	adds	r0, #1
 80058e4:	f43f af1d 	beq.w	8005722 <_printf_float+0xae>
 80058e8:	9b0d      	ldr	r3, [sp, #52]	; 0x34
 80058ea:	b923      	cbnz	r3, 80058f6 <_printf_float+0x282>
 80058ec:	9b0e      	ldr	r3, [sp, #56]	; 0x38
 80058ee:	b913      	cbnz	r3, 80058f6 <_printf_float+0x282>
 80058f0:	6823      	ldr	r3, [r4, #0]
 80058f2:	07d9      	lsls	r1, r3, #31
 80058f4:	d5d9      	bpl.n	80058aa <_printf_float+0x236>
 80058f6:	e9dd 2309 	ldrd	r2, r3, [sp, #36]	; 0x24
 80058fa:	4659      	mov	r1, fp
 80058fc:	4628      	mov	r0, r5
 80058fe:	47b0      	blx	r6
 8005900:	3001      	adds	r0, #1
 8005902:	f43f af0e 	beq.w	8005722 <_printf_float+0xae>
 8005906:	f04f 0800 	mov.w	r8, #0
 800590a:	f104 091a 	add.w	r9, r4, #26
 800590e:	9b0d      	ldr	r3, [sp, #52]	; 0x34
 8005910:	425b      	negs	r3, r3
 8005912:	4543      	cmp	r3, r8
 8005914:	dc01      	bgt.n	800591a <_printf_float+0x2a6>
 8005916:	9b0e      	ldr	r3, [sp, #56]	; 0x38
 8005918:	e797      	b.n	800584a <_printf_float+0x1d6>
 800591a:	2301      	movs	r3, #1
 800591c:	464a      	mov	r2, r9
 800591e:	4659      	mov	r1, fp
 8005920:	4628      	mov	r0, r5
 8005922:	47b0      	blx	r6
 8005924:	3001      	adds	r0, #1
 8005926:	f43f aefc 	beq.w	8005722 <_printf_float+0xae>
 800592a:	f108 0801 	add.w	r8, r8, #1
 800592e:	e7ee      	b.n	800590e <_printf_float+0x29a>
 8005930:	9a0e      	ldr	r2, [sp, #56]	; 0x38
 8005932:	6da3      	ldr	r3, [r4, #88]	; 0x58
 8005934:	429a      	cmp	r2, r3
 8005936:	bfa8      	it	ge
 8005938:	461a      	movge	r2, r3
 800593a:	2a00      	cmp	r2, #0
 800593c:	4690      	mov	r8, r2
 800593e:	dd07      	ble.n	8005950 <_printf_float+0x2dc>
 8005940:	4613      	mov	r3, r2
 8005942:	4659      	mov	r1, fp
 8005944:	463a      	mov	r2, r7
 8005946:	4628      	mov	r0, r5
 8005948:	47b0      	blx	r6
 800594a:	3001      	adds	r0, #1
 800594c:	f43f aee9 	beq.w	8005722 <_printf_float+0xae>
 8005950:	f104 031a 	add.w	r3, r4, #26
 8005954:	f04f 0a00 	mov.w	sl, #0
 8005958:	ea28 78e8 	bic.w	r8, r8, r8, asr #31
 800595c:	930b      	str	r3, [sp, #44]	; 0x2c
 800595e:	e015      	b.n	800598c <_printf_float+0x318>
 8005960:	7fefffff 	.word	0x7fefffff
 8005964:	08007650 	.word	0x08007650
 8005968:	0800764c 	.word	0x0800764c
 800596c:	08007658 	.word	0x08007658
 8005970:	08007654 	.word	0x08007654
 8005974:	0800765c 	.word	0x0800765c
 8005978:	2301      	movs	r3, #1
 800597a:	9a0b      	ldr	r2, [sp, #44]	; 0x2c
 800597c:	4659      	mov	r1, fp
 800597e:	4628      	mov	r0, r5
 8005980:	47b0      	blx	r6
 8005982:	3001      	adds	r0, #1
 8005984:	f43f aecd 	beq.w	8005722 <_printf_float+0xae>
 8005988:	f10a 0a01 	add.w	sl, sl, #1
 800598c:	f8d4 9058 	ldr.w	r9, [r4, #88]	; 0x58
 8005990:	eba9 0308 	sub.w	r3, r9, r8
 8005994:	4553      	cmp	r3, sl
 8005996:	dcef      	bgt.n	8005978 <_printf_float+0x304>
 8005998:	e9dd 230d 	ldrd	r2, r3, [sp, #52]	; 0x34
 800599c:	429a      	cmp	r2, r3
 800599e:	444f      	add	r7, r9
 80059a0:	db14      	blt.n	80059cc <_printf_float+0x358>
 80059a2:	6823      	ldr	r3, [r4, #0]
 80059a4:	07da      	lsls	r2, r3, #31
 80059a6:	d411      	bmi.n	80059cc <_printf_float+0x358>
 80059a8:	9b0e      	ldr	r3, [sp, #56]	; 0x38
 80059aa:	990d      	ldr	r1, [sp, #52]	; 0x34
 80059ac:	eba3 0209 	sub.w	r2, r3, r9
 80059b0:	eba3 0901 	sub.w	r9, r3, r1
 80059b4:	4591      	cmp	r9, r2
 80059b6:	bfa8      	it	ge
 80059b8:	4691      	movge	r9, r2
 80059ba:	f1b9 0f00 	cmp.w	r9, #0
 80059be:	dc0d      	bgt.n	80059dc <_printf_float+0x368>
 80059c0:	2700      	movs	r7, #0
 80059c2:	ea29 79e9 	bic.w	r9, r9, r9, asr #31
 80059c6:	f104 081a 	add.w	r8, r4, #26
 80059ca:	e018      	b.n	80059fe <_printf_float+0x38a>
 80059cc:	e9dd 2309 	ldrd	r2, r3, [sp, #36]	; 0x24
 80059d0:	4659      	mov	r1, fp
 80059d2:	4628      	mov	r0, r5
 80059d4:	47b0      	blx	r6
 80059d6:	3001      	adds	r0, #1
 80059d8:	d1e6      	bne.n	80059a8 <_printf_float+0x334>
 80059da:	e6a2      	b.n	8005722 <_printf_float+0xae>
 80059dc:	464b      	mov	r3, r9
 80059de:	463a      	mov	r2, r7
 80059e0:	4659      	mov	r1, fp
 80059e2:	4628      	mov	r0, r5
 80059e4:	47b0      	blx	r6
 80059e6:	3001      	adds	r0, #1
 80059e8:	d1ea      	bne.n	80059c0 <_printf_float+0x34c>
 80059ea:	e69a      	b.n	8005722 <_printf_float+0xae>
 80059ec:	2301      	movs	r3, #1
 80059ee:	4642      	mov	r2, r8
 80059f0:	4659      	mov	r1, fp
 80059f2:	4628      	mov	r0, r5
 80059f4:	47b0      	blx	r6
 80059f6:	3001      	adds	r0, #1
 80059f8:	f43f ae93 	beq.w	8005722 <_printf_float+0xae>
 80059fc:	3701      	adds	r7, #1
 80059fe:	e9dd 230d 	ldrd	r2, r3, [sp, #52]	; 0x34
 8005a02:	1a9b      	subs	r3, r3, r2
 8005a04:	eba3 0309 	sub.w	r3, r3, r9
 8005a08:	42bb      	cmp	r3, r7
 8005a0a:	dcef      	bgt.n	80059ec <_printf_float+0x378>
 8005a0c:	e74d      	b.n	80058aa <_printf_float+0x236>
 8005a0e:	9a0e      	ldr	r2, [sp, #56]	; 0x38
 8005a10:	2a01      	cmp	r2, #1
 8005a12:	dc01      	bgt.n	8005a18 <_printf_float+0x3a4>
 8005a14:	07db      	lsls	r3, r3, #31
 8005a16:	d538      	bpl.n	8005a8a <_printf_float+0x416>
 8005a18:	2301      	movs	r3, #1
 8005a1a:	463a      	mov	r2, r7
 8005a1c:	4659      	mov	r1, fp
 8005a1e:	4628      	mov	r0, r5
 8005a20:	47b0      	blx	r6
 8005a22:	3001      	adds	r0, #1
 8005a24:	f43f ae7d 	beq.w	8005722 <_printf_float+0xae>
 8005a28:	e9dd 2309 	ldrd	r2, r3, [sp, #36]	; 0x24
 8005a2c:	4659      	mov	r1, fp
 8005a2e:	4628      	mov	r0, r5
 8005a30:	47b0      	blx	r6
 8005a32:	3001      	adds	r0, #1
 8005a34:	f107 0701 	add.w	r7, r7, #1
 8005a38:	f43f ae73 	beq.w	8005722 <_printf_float+0xae>
 8005a3c:	e9d4 0112 	ldrd	r0, r1, [r4, #72]	; 0x48
 8005a40:	9b0e      	ldr	r3, [sp, #56]	; 0x38
 8005a42:	2200      	movs	r2, #0
 8005a44:	f103 38ff 	add.w	r8, r3, #4294967295
 8005a48:	2300      	movs	r3, #0
 8005a4a:	f7fa ffad 	bl	80009a8 <__aeabi_dcmpeq>
 8005a4e:	b9c0      	cbnz	r0, 8005a82 <_printf_float+0x40e>
 8005a50:	4643      	mov	r3, r8
 8005a52:	463a      	mov	r2, r7
 8005a54:	4659      	mov	r1, fp
 8005a56:	4628      	mov	r0, r5
 8005a58:	47b0      	blx	r6
 8005a5a:	3001      	adds	r0, #1
 8005a5c:	d10d      	bne.n	8005a7a <_printf_float+0x406>
 8005a5e:	e660      	b.n	8005722 <_printf_float+0xae>
 8005a60:	2301      	movs	r3, #1
 8005a62:	4642      	mov	r2, r8
 8005a64:	4659      	mov	r1, fp
 8005a66:	4628      	mov	r0, r5
 8005a68:	47b0      	blx	r6
 8005a6a:	3001      	adds	r0, #1
 8005a6c:	f43f ae59 	beq.w	8005722 <_printf_float+0xae>
 8005a70:	3701      	adds	r7, #1
 8005a72:	9b0e      	ldr	r3, [sp, #56]	; 0x38
 8005a74:	3b01      	subs	r3, #1
 8005a76:	42bb      	cmp	r3, r7
 8005a78:	dcf2      	bgt.n	8005a60 <_printf_float+0x3ec>
 8005a7a:	464b      	mov	r3, r9
 8005a7c:	f104 0250 	add.w	r2, r4, #80	; 0x50
 8005a80:	e6e4      	b.n	800584c <_printf_float+0x1d8>
 8005a82:	2700      	movs	r7, #0
 8005a84:	f104 081a 	add.w	r8, r4, #26
 8005a88:	e7f3      	b.n	8005a72 <_printf_float+0x3fe>
 8005a8a:	2301      	movs	r3, #1
 8005a8c:	e7e1      	b.n	8005a52 <_printf_float+0x3de>
 8005a8e:	2301      	movs	r3, #1
 8005a90:	4642      	mov	r2, r8
 8005a92:	4659      	mov	r1, fp
 8005a94:	4628      	mov	r0, r5
 8005a96:	47b0      	blx	r6
 8005a98:	3001      	adds	r0, #1
 8005a9a:	f43f ae42 	beq.w	8005722 <_printf_float+0xae>
 8005a9e:	3701      	adds	r7, #1
 8005aa0:	68e3      	ldr	r3, [r4, #12]
 8005aa2:	9a0f      	ldr	r2, [sp, #60]	; 0x3c
 8005aa4:	1a9b      	subs	r3, r3, r2
 8005aa6:	42bb      	cmp	r3, r7
 8005aa8:	dcf1      	bgt.n	8005a8e <_printf_float+0x41a>
 8005aaa:	e702      	b.n	80058b2 <_printf_float+0x23e>
 8005aac:	2700      	movs	r7, #0
 8005aae:	f104 0819 	add.w	r8, r4, #25
 8005ab2:	e7f5      	b.n	8005aa0 <_printf_float+0x42c>
 8005ab4:	2b00      	cmp	r3, #0
 8005ab6:	f43f ae94 	beq.w	80057e2 <_printf_float+0x16e>
 8005aba:	f04f 0c00 	mov.w	ip, #0
 8005abe:	e9cd 1c05 	strd	r1, ip, [sp, #20]
 8005ac2:	f10d 0133 	add.w	r1, sp, #51	; 0x33
 8005ac6:	6022      	str	r2, [r4, #0]
 8005ac8:	e9cd 0803 	strd	r0, r8, [sp, #12]
 8005acc:	e9cd 2101 	strd	r2, r1, [sp, #4]
 8005ad0:	9300      	str	r3, [sp, #0]
 8005ad2:	463a      	mov	r2, r7
 8005ad4:	464b      	mov	r3, r9
 8005ad6:	4628      	mov	r0, r5
 8005ad8:	f7ff fd3a 	bl	8005550 <__cvt>
 8005adc:	4607      	mov	r7, r0
 8005ade:	e64f      	b.n	8005780 <_printf_float+0x10c>

08005ae0 <_printf_common>:
 8005ae0:	e92d 47f0 	stmdb	sp!, {r4, r5, r6, r7, r8, r9, sl, lr}
 8005ae4:	4691      	mov	r9, r2
 8005ae6:	461f      	mov	r7, r3
 8005ae8:	688a      	ldr	r2, [r1, #8]
 8005aea:	690b      	ldr	r3, [r1, #16]
 8005aec:	4606      	mov	r6, r0
 8005aee:	4293      	cmp	r3, r2
 8005af0:	bfb8      	it	lt
 8005af2:	4613      	movlt	r3, r2
 8005af4:	f8c9 3000 	str.w	r3, [r9]
 8005af8:	f891 2043 	ldrb.w	r2, [r1, #67]	; 0x43
 8005afc:	460c      	mov	r4, r1
 8005afe:	f8dd 8020 	ldr.w	r8, [sp, #32]
 8005b02:	b112      	cbz	r2, 8005b0a <_printf_common+0x2a>
 8005b04:	3301      	adds	r3, #1
 8005b06:	f8c9 3000 	str.w	r3, [r9]
 8005b0a:	6823      	ldr	r3, [r4, #0]
 8005b0c:	0699      	lsls	r1, r3, #26
 8005b0e:	bf42      	ittt	mi
 8005b10:	f8d9 3000 	ldrmi.w	r3, [r9]
 8005b14:	3302      	addmi	r3, #2
 8005b16:	f8c9 3000 	strmi.w	r3, [r9]
 8005b1a:	6825      	ldr	r5, [r4, #0]
 8005b1c:	f015 0506 	ands.w	r5, r5, #6
 8005b20:	d107      	bne.n	8005b32 <_printf_common+0x52>
 8005b22:	f104 0a19 	add.w	sl, r4, #25
 8005b26:	68e3      	ldr	r3, [r4, #12]
 8005b28:	f8d9 2000 	ldr.w	r2, [r9]
 8005b2c:	1a9b      	subs	r3, r3, r2
 8005b2e:	42ab      	cmp	r3, r5
 8005b30:	dc29      	bgt.n	8005b86 <_printf_common+0xa6>
 8005b32:	f894 3043 	ldrb.w	r3, [r4, #67]	; 0x43
 8005b36:	6822      	ldr	r2, [r4, #0]
 8005b38:	3300      	adds	r3, #0
 8005b3a:	bf18      	it	ne
 8005b3c:	2301      	movne	r3, #1
 8005b3e:	0692      	lsls	r2, r2, #26
 8005b40:	d42e      	bmi.n	8005ba0 <_printf_common+0xc0>
 8005b42:	f104 0243 	add.w	r2, r4, #67	; 0x43
 8005b46:	4639      	mov	r1, r7
 8005b48:	4630      	mov	r0, r6
 8005b4a:	47c0      	blx	r8
 8005b4c:	3001      	adds	r0, #1
 8005b4e:	d021      	beq.n	8005b94 <_printf_common+0xb4>
 8005b50:	6823      	ldr	r3, [r4, #0]
 8005b52:	68e5      	ldr	r5, [r4, #12]
 8005b54:	f003 0306 	and.w	r3, r3, #6
 8005b58:	2b04      	cmp	r3, #4
 8005b5a:	bf18      	it	ne
 8005b5c:	2500      	movne	r5, #0
 8005b5e:	f8d9 2000 	ldr.w	r2, [r9]
 8005b62:	f04f 0900 	mov.w	r9, #0
 8005b66:	bf08      	it	eq
 8005b68:	1aad      	subeq	r5, r5, r2
 8005b6a:	68a3      	ldr	r3, [r4, #8]
 8005b6c:	6922      	ldr	r2, [r4, #16]
 8005b6e:	bf08      	it	eq
 8005b70:	ea25 75e5 	biceq.w	r5, r5, r5, asr #31
 8005b74:	4293      	cmp	r3, r2
 8005b76:	bfc4      	itt	gt
 8005b78:	1a9b      	subgt	r3, r3, r2
 8005b7a:	18ed      	addgt	r5, r5, r3
 8005b7c:	341a      	adds	r4, #26
 8005b7e:	454d      	cmp	r5, r9
 8005b80:	d11a      	bne.n	8005bb8 <_printf_common+0xd8>
 8005b82:	2000      	movs	r0, #0
 8005b84:	e008      	b.n	8005b98 <_printf_common+0xb8>
 8005b86:	2301      	movs	r3, #1
 8005b88:	4652      	mov	r2, sl
 8005b8a:	4639      	mov	r1, r7
 8005b8c:	4630      	mov	r0, r6
 8005b8e:	47c0      	blx	r8
 8005b90:	3001      	adds	r0, #1
 8005b92:	d103      	bne.n	8005b9c <_printf_common+0xbc>
 8005b94:	f04f 30ff 	mov.w	r0, #4294967295
 8005b98:	e8bd 87f0 	ldmia.w	sp!, {r4, r5, r6, r7, r8, r9, sl, pc}
 8005b9c:	3501      	adds	r5, #1
 8005b9e:	e7c2      	b.n	8005b26 <_printf_common+0x46>
 8005ba0:	2030      	movs	r0, #48	; 0x30
 8005ba2:	18e1      	adds	r1, r4, r3
 8005ba4:	f881 0043 	strb.w	r0, [r1, #67]	; 0x43
 8005ba8:	1c5a      	adds	r2, r3, #1
 8005baa:	f894 1045 	ldrb.w	r1, [r4, #69]	; 0x45
 8005bae:	4422      	add	r2, r4
 8005bb0:	3302      	adds	r3, #2
 8005bb2:	f882 1043 	strb.w	r1, [r2, #67]	; 0x43
 8005bb6:	e7c4      	b.n	8005b42 <_printf_common+0x62>
 8005bb8:	2301      	movs	r3, #1
 8005bba:	4622      	mov	r2, r4
 8005bbc:	4639      	mov	r1, r7
 8005bbe:	4630      	mov	r0, r6
 8005bc0:	47c0      	blx	r8
 8005bc2:	3001      	adds	r0, #1
 8005bc4:	d0e6      	beq.n	8005b94 <_printf_common+0xb4>
 8005bc6:	f109 0901 	add.w	r9, r9, #1
 8005bca:	e7d8      	b.n	8005b7e <_printf_common+0x9e>

08005bcc <setvbuf>:
 8005bcc:	e92d 43f7 	stmdb	sp!, {r0, r1, r2, r4, r5, r6, r7, r8, r9, lr}
 8005bd0:	461d      	mov	r5, r3
 8005bd2:	4b51      	ldr	r3, [pc, #324]	; (8005d18 <setvbuf+0x14c>)
 8005bd4:	4604      	mov	r4, r0
 8005bd6:	681e      	ldr	r6, [r3, #0]
 8005bd8:	460f      	mov	r7, r1
 8005bda:	4690      	mov	r8, r2
 8005bdc:	b126      	cbz	r6, 8005be8 <setvbuf+0x1c>
 8005bde:	69b3      	ldr	r3, [r6, #24]
 8005be0:	b913      	cbnz	r3, 8005be8 <setvbuf+0x1c>
 8005be2:	4630      	mov	r0, r6
 8005be4:	f000 ffd4 	bl	8006b90 <__sinit>
 8005be8:	4b4c      	ldr	r3, [pc, #304]	; (8005d1c <setvbuf+0x150>)
 8005bea:	429c      	cmp	r4, r3
 8005bec:	d152      	bne.n	8005c94 <setvbuf+0xc8>
 8005bee:	6874      	ldr	r4, [r6, #4]
 8005bf0:	f1b8 0f02 	cmp.w	r8, #2
 8005bf4:	d006      	beq.n	8005c04 <setvbuf+0x38>
 8005bf6:	f1b8 0f01 	cmp.w	r8, #1
 8005bfa:	f200 8089 	bhi.w	8005d10 <setvbuf+0x144>
 8005bfe:	2d00      	cmp	r5, #0
 8005c00:	f2c0 8086 	blt.w	8005d10 <setvbuf+0x144>
 8005c04:	4621      	mov	r1, r4
 8005c06:	4630      	mov	r0, r6
 8005c08:	f000 ff58 	bl	8006abc <_fflush_r>
 8005c0c:	6b61      	ldr	r1, [r4, #52]	; 0x34
 8005c0e:	b141      	cbz	r1, 8005c22 <setvbuf+0x56>
 8005c10:	f104 0344 	add.w	r3, r4, #68	; 0x44
 8005c14:	4299      	cmp	r1, r3
 8005c16:	d002      	beq.n	8005c1e <setvbuf+0x52>
 8005c18:	4630      	mov	r0, r6
 8005c1a:	f001 fb73 	bl	8007304 <_free_r>
 8005c1e:	2300      	movs	r3, #0
 8005c20:	6363      	str	r3, [r4, #52]	; 0x34
 8005c22:	2300      	movs	r3, #0
 8005c24:	61a3      	str	r3, [r4, #24]
 8005c26:	6063      	str	r3, [r4, #4]
 8005c28:	89a3      	ldrh	r3, [r4, #12]
 8005c2a:	061b      	lsls	r3, r3, #24
 8005c2c:	d503      	bpl.n	8005c36 <setvbuf+0x6a>
 8005c2e:	6921      	ldr	r1, [r4, #16]
 8005c30:	4630      	mov	r0, r6
 8005c32:	f001 fb67 	bl	8007304 <_free_r>
 8005c36:	89a3      	ldrh	r3, [r4, #12]
 8005c38:	f1b8 0f02 	cmp.w	r8, #2
 8005c3c:	f423 634a 	bic.w	r3, r3, #3232	; 0xca0
 8005c40:	f023 0303 	bic.w	r3, r3, #3
 8005c44:	81a3      	strh	r3, [r4, #12]
 8005c46:	d05d      	beq.n	8005d04 <setvbuf+0x138>
 8005c48:	ab01      	add	r3, sp, #4
 8005c4a:	466a      	mov	r2, sp
 8005c4c:	4621      	mov	r1, r4
 8005c4e:	4630      	mov	r0, r6
 8005c50:	f001 f836 	bl	8006cc0 <__swhatbuf_r>
 8005c54:	89a3      	ldrh	r3, [r4, #12]
 8005c56:	4318      	orrs	r0, r3
 8005c58:	81a0      	strh	r0, [r4, #12]
 8005c5a:	bb2d      	cbnz	r5, 8005ca8 <setvbuf+0xdc>
 8005c5c:	9d00      	ldr	r5, [sp, #0]
 8005c5e:	4628      	mov	r0, r5
 8005c60:	f001 f852 	bl	8006d08 <malloc>
 8005c64:	4607      	mov	r7, r0
 8005c66:	2800      	cmp	r0, #0
 8005c68:	d14e      	bne.n	8005d08 <setvbuf+0x13c>
 8005c6a:	f8dd 9000 	ldr.w	r9, [sp]
 8005c6e:	45a9      	cmp	r9, r5
 8005c70:	d13c      	bne.n	8005cec <setvbuf+0x120>
 8005c72:	f04f 30ff 	mov.w	r0, #4294967295
 8005c76:	89a3      	ldrh	r3, [r4, #12]
 8005c78:	f043 0302 	orr.w	r3, r3, #2
 8005c7c:	81a3      	strh	r3, [r4, #12]
 8005c7e:	2300      	movs	r3, #0
 8005c80:	60a3      	str	r3, [r4, #8]
 8005c82:	f104 0347 	add.w	r3, r4, #71	; 0x47
 8005c86:	6023      	str	r3, [r4, #0]
 8005c88:	6123      	str	r3, [r4, #16]
 8005c8a:	2301      	movs	r3, #1
 8005c8c:	6163      	str	r3, [r4, #20]
 8005c8e:	b003      	add	sp, #12
 8005c90:	e8bd 83f0 	ldmia.w	sp!, {r4, r5, r6, r7, r8, r9, pc}
 8005c94:	4b22      	ldr	r3, [pc, #136]	; (8005d20 <setvbuf+0x154>)
 8005c96:	429c      	cmp	r4, r3
 8005c98:	d101      	bne.n	8005c9e <setvbuf+0xd2>
 8005c9a:	68b4      	ldr	r4, [r6, #8]
 8005c9c:	e7a8      	b.n	8005bf0 <setvbuf+0x24>
 8005c9e:	4b21      	ldr	r3, [pc, #132]	; (8005d24 <setvbuf+0x158>)
 8005ca0:	429c      	cmp	r4, r3
 8005ca2:	bf08      	it	eq
 8005ca4:	68f4      	ldreq	r4, [r6, #12]
 8005ca6:	e7a3      	b.n	8005bf0 <setvbuf+0x24>
 8005ca8:	2f00      	cmp	r7, #0
 8005caa:	d0d8      	beq.n	8005c5e <setvbuf+0x92>
 8005cac:	69b3      	ldr	r3, [r6, #24]
 8005cae:	b913      	cbnz	r3, 8005cb6 <setvbuf+0xea>
 8005cb0:	4630      	mov	r0, r6
 8005cb2:	f000 ff6d 	bl	8006b90 <__sinit>
 8005cb6:	f1b8 0f01 	cmp.w	r8, #1
 8005cba:	bf08      	it	eq
 8005cbc:	89a3      	ldrheq	r3, [r4, #12]
 8005cbe:	6027      	str	r7, [r4, #0]
 8005cc0:	bf04      	itt	eq
 8005cc2:	f043 0301 	orreq.w	r3, r3, #1
 8005cc6:	81a3      	strheq	r3, [r4, #12]
 8005cc8:	89a3      	ldrh	r3, [r4, #12]
 8005cca:	e9c4 7504 	strd	r7, r5, [r4, #16]
 8005cce:	f013 0008 	ands.w	r0, r3, #8
 8005cd2:	d01b      	beq.n	8005d0c <setvbuf+0x140>
 8005cd4:	f013 0001 	ands.w	r0, r3, #1
 8005cd8:	f04f 0300 	mov.w	r3, #0
 8005cdc:	bf1f      	itttt	ne
 8005cde:	426d      	negne	r5, r5
 8005ce0:	60a3      	strne	r3, [r4, #8]
 8005ce2:	61a5      	strne	r5, [r4, #24]
 8005ce4:	4618      	movne	r0, r3
 8005ce6:	bf08      	it	eq
 8005ce8:	60a5      	streq	r5, [r4, #8]
 8005cea:	e7d0      	b.n	8005c8e <setvbuf+0xc2>
 8005cec:	4648      	mov	r0, r9
 8005cee:	f001 f80b 	bl	8006d08 <malloc>
 8005cf2:	4607      	mov	r7, r0
 8005cf4:	2800      	cmp	r0, #0
 8005cf6:	d0bc      	beq.n	8005c72 <setvbuf+0xa6>
 8005cf8:	89a3      	ldrh	r3, [r4, #12]
 8005cfa:	464d      	mov	r5, r9
 8005cfc:	f043 0380 	orr.w	r3, r3, #128	; 0x80
 8005d00:	81a3      	strh	r3, [r4, #12]
 8005d02:	e7d3      	b.n	8005cac <setvbuf+0xe0>
 8005d04:	2000      	movs	r0, #0
 8005d06:	e7b6      	b.n	8005c76 <setvbuf+0xaa>
 8005d08:	46a9      	mov	r9, r5
 8005d0a:	e7f5      	b.n	8005cf8 <setvbuf+0x12c>
 8005d0c:	60a0      	str	r0, [r4, #8]
 8005d0e:	e7be      	b.n	8005c8e <setvbuf+0xc2>
 8005d10:	f04f 30ff 	mov.w	r0, #4294967295
 8005d14:	e7bb      	b.n	8005c8e <setvbuf+0xc2>
 8005d16:	bf00      	nop
 8005d18:	20000018 	.word	0x20000018
 8005d1c:	0800768c 	.word	0x0800768c
 8005d20:	080076ac 	.word	0x080076ac
 8005d24:	0800766c 	.word	0x0800766c

08005d28 <quorem>:
 8005d28:	e92d 4ff7 	stmdb	sp!, {r0, r1, r2, r4, r5, r6, r7, r8, r9, sl, fp, lr}
 8005d2c:	6903      	ldr	r3, [r0, #16]
 8005d2e:	690c      	ldr	r4, [r1, #16]
 8005d30:	4680      	mov	r8, r0
 8005d32:	42a3      	cmp	r3, r4
 8005d34:	f2c0 8084 	blt.w	8005e40 <quorem+0x118>
 8005d38:	3c01      	subs	r4, #1
 8005d3a:	f101 0714 	add.w	r7, r1, #20
 8005d3e:	f100 0614 	add.w	r6, r0, #20
 8005d42:	f857 5024 	ldr.w	r5, [r7, r4, lsl #2]
 8005d46:	f856 0024 	ldr.w	r0, [r6, r4, lsl #2]
 8005d4a:	3501      	adds	r5, #1
 8005d4c:	fbb0 f5f5 	udiv	r5, r0, r5
 8005d50:	ea4f 0c84 	mov.w	ip, r4, lsl #2
 8005d54:	eb06 030c 	add.w	r3, r6, ip
 8005d58:	eb07 090c 	add.w	r9, r7, ip
 8005d5c:	9301      	str	r3, [sp, #4]
 8005d5e:	b39d      	cbz	r5, 8005dc8 <quorem+0xa0>
 8005d60:	f04f 0a00 	mov.w	sl, #0
 8005d64:	4638      	mov	r0, r7
 8005d66:	46b6      	mov	lr, r6
 8005d68:	46d3      	mov	fp, sl
 8005d6a:	f850 2b04 	ldr.w	r2, [r0], #4
 8005d6e:	b293      	uxth	r3, r2
 8005d70:	fb05 a303 	mla	r3, r5, r3, sl
 8005d74:	0c12      	lsrs	r2, r2, #16
 8005d76:	ea4f 4a13 	mov.w	sl, r3, lsr #16
 8005d7a:	fb05 a202 	mla	r2, r5, r2, sl
 8005d7e:	b29b      	uxth	r3, r3
 8005d80:	ebab 0303 	sub.w	r3, fp, r3
 8005d84:	f8de b000 	ldr.w	fp, [lr]
 8005d88:	ea4f 4a12 	mov.w	sl, r2, lsr #16
 8005d8c:	fa1f fb8b 	uxth.w	fp, fp
 8005d90:	445b      	add	r3, fp
 8005d92:	fa1f fb82 	uxth.w	fp, r2
 8005d96:	f8de 2000 	ldr.w	r2, [lr]
 8005d9a:	4581      	cmp	r9, r0
 8005d9c:	ebcb 4212 	rsb	r2, fp, r2, lsr #16
 8005da0:	eb02 4223 	add.w	r2, r2, r3, asr #16
 8005da4:	b29b      	uxth	r3, r3
 8005da6:	ea43 4302 	orr.w	r3, r3, r2, lsl #16
 8005daa:	ea4f 4b22 	mov.w	fp, r2, asr #16
 8005dae:	f84e 3b04 	str.w	r3, [lr], #4
 8005db2:	d2da      	bcs.n	8005d6a <quorem+0x42>
 8005db4:	f856 300c 	ldr.w	r3, [r6, ip]
 8005db8:	b933      	cbnz	r3, 8005dc8 <quorem+0xa0>
 8005dba:	9b01      	ldr	r3, [sp, #4]
 8005dbc:	3b04      	subs	r3, #4
 8005dbe:	429e      	cmp	r6, r3
 8005dc0:	461a      	mov	r2, r3
 8005dc2:	d331      	bcc.n	8005e28 <quorem+0x100>
 8005dc4:	f8c8 4010 	str.w	r4, [r8, #16]
 8005dc8:	4640      	mov	r0, r8
 8005dca:	f001 f9c5 	bl	8007158 <__mcmp>
 8005dce:	2800      	cmp	r0, #0
 8005dd0:	db26      	blt.n	8005e20 <quorem+0xf8>
 8005dd2:	4630      	mov	r0, r6
 8005dd4:	f04f 0c00 	mov.w	ip, #0
 8005dd8:	3501      	adds	r5, #1
 8005dda:	f857 1b04 	ldr.w	r1, [r7], #4
 8005dde:	f8d0 e000 	ldr.w	lr, [r0]
 8005de2:	b28b      	uxth	r3, r1
 8005de4:	ebac 0303 	sub.w	r3, ip, r3
 8005de8:	fa1f f28e 	uxth.w	r2, lr
 8005dec:	4413      	add	r3, r2
 8005dee:	0c0a      	lsrs	r2, r1, #16
 8005df0:	ebc2 421e 	rsb	r2, r2, lr, lsr #16
 8005df4:	eb02 4223 	add.w	r2, r2, r3, asr #16
 8005df8:	b29b      	uxth	r3, r3
 8005dfa:	ea43 4302 	orr.w	r3, r3, r2, lsl #16
 8005dfe:	45b9      	cmp	r9, r7
 8005e00:	ea4f 4c22 	mov.w	ip, r2, asr #16
 8005e04:	f840 3b04 	str.w	r3, [r0], #4
 8005e08:	d2e7      	bcs.n	8005dda <quorem+0xb2>
 8005e0a:	f856 2024 	ldr.w	r2, [r6, r4, lsl #2]
 8005e0e:	eb06 0384 	add.w	r3, r6, r4, lsl #2
 8005e12:	b92a      	cbnz	r2, 8005e20 <quorem+0xf8>
 8005e14:	3b04      	subs	r3, #4
 8005e16:	429e      	cmp	r6, r3
 8005e18:	461a      	mov	r2, r3
 8005e1a:	d30b      	bcc.n	8005e34 <quorem+0x10c>
 8005e1c:	f8c8 4010 	str.w	r4, [r8, #16]
 8005e20:	4628      	mov	r0, r5
 8005e22:	b003      	add	sp, #12
 8005e24:	e8bd 8ff0 	ldmia.w	sp!, {r4, r5, r6, r7, r8, r9, sl, fp, pc}
 8005e28:	6812      	ldr	r2, [r2, #0]
 8005e2a:	3b04      	subs	r3, #4
 8005e2c:	2a00      	cmp	r2, #0
 8005e2e:	d1c9      	bne.n	8005dc4 <quorem+0x9c>
 8005e30:	3c01      	subs	r4, #1
 8005e32:	e7c4      	b.n	8005dbe <quorem+0x96>
 8005e34:	6812      	ldr	r2, [r2, #0]
 8005e36:	3b04      	subs	r3, #4
 8005e38:	2a00      	cmp	r2, #0
 8005e3a:	d1ef      	bne.n	8005e1c <quorem+0xf4>
 8005e3c:	3c01      	subs	r4, #1
 8005e3e:	e7ea      	b.n	8005e16 <quorem+0xee>
 8005e40:	2000      	movs	r0, #0
 8005e42:	e7ee      	b.n	8005e22 <quorem+0xfa>
 8005e44:	0000      	movs	r0, r0
	...

08005e48 <_dtoa_r>:
 8005e48:	e92d 4ff0 	stmdb	sp!, {r4, r5, r6, r7, r8, r9, sl, fp, lr}
 8005e4c:	4616      	mov	r6, r2
 8005e4e:	461f      	mov	r7, r3
 8005e50:	6a45      	ldr	r5, [r0, #36]	; 0x24
 8005e52:	b095      	sub	sp, #84	; 0x54
 8005e54:	4604      	mov	r4, r0
 8005e56:	f8dd 8084 	ldr.w	r8, [sp, #132]	; 0x84
 8005e5a:	e9cd 6702 	strd	r6, r7, [sp, #8]
 8005e5e:	b93d      	cbnz	r5, 8005e70 <_dtoa_r+0x28>
 8005e60:	2010      	movs	r0, #16
 8005e62:	f000 ff51 	bl	8006d08 <malloc>
 8005e66:	6260      	str	r0, [r4, #36]	; 0x24
 8005e68:	e9c0 5501 	strd	r5, r5, [r0, #4]
 8005e6c:	6005      	str	r5, [r0, #0]
 8005e6e:	60c5      	str	r5, [r0, #12]
 8005e70:	6a63      	ldr	r3, [r4, #36]	; 0x24
 8005e72:	6819      	ldr	r1, [r3, #0]
 8005e74:	b151      	cbz	r1, 8005e8c <_dtoa_r+0x44>
 8005e76:	685a      	ldr	r2, [r3, #4]
 8005e78:	2301      	movs	r3, #1
 8005e7a:	4093      	lsls	r3, r2
 8005e7c:	604a      	str	r2, [r1, #4]
 8005e7e:	608b      	str	r3, [r1, #8]
 8005e80:	4620      	mov	r0, r4
 8005e82:	f000 ff88 	bl	8006d96 <_Bfree>
 8005e86:	2200      	movs	r2, #0
 8005e88:	6a63      	ldr	r3, [r4, #36]	; 0x24
 8005e8a:	601a      	str	r2, [r3, #0]
 8005e8c:	1e3b      	subs	r3, r7, #0
 8005e8e:	bfaf      	iteee	ge
 8005e90:	2300      	movge	r3, #0
 8005e92:	2201      	movlt	r2, #1
 8005e94:	f023 4300 	biclt.w	r3, r3, #2147483648	; 0x80000000
 8005e98:	9303      	strlt	r3, [sp, #12]
 8005e9a:	bfac      	ite	ge
 8005e9c:	f8c8 3000 	strge.w	r3, [r8]
 8005ea0:	f8c8 2000 	strlt.w	r2, [r8]
 8005ea4:	4bae      	ldr	r3, [pc, #696]	; (8006160 <_dtoa_r+0x318>)
 8005ea6:	f8dd 800c 	ldr.w	r8, [sp, #12]
 8005eaa:	ea33 0308 	bics.w	r3, r3, r8
 8005eae:	d11b      	bne.n	8005ee8 <_dtoa_r+0xa0>
 8005eb0:	f242 730f 	movw	r3, #9999	; 0x270f
 8005eb4:	9a20      	ldr	r2, [sp, #128]	; 0x80
 8005eb6:	6013      	str	r3, [r2, #0]
 8005eb8:	9b02      	ldr	r3, [sp, #8]
 8005eba:	b923      	cbnz	r3, 8005ec6 <_dtoa_r+0x7e>
 8005ebc:	f3c8 0013 	ubfx	r0, r8, #0, #20
 8005ec0:	2800      	cmp	r0, #0
 8005ec2:	f000 8545 	beq.w	8006950 <_dtoa_r+0xb08>
 8005ec6:	9b22      	ldr	r3, [sp, #136]	; 0x88
 8005ec8:	b953      	cbnz	r3, 8005ee0 <_dtoa_r+0x98>
 8005eca:	4ba6      	ldr	r3, [pc, #664]	; (8006164 <_dtoa_r+0x31c>)
 8005ecc:	e021      	b.n	8005f12 <_dtoa_r+0xca>
 8005ece:	4ba6      	ldr	r3, [pc, #664]	; (8006168 <_dtoa_r+0x320>)
 8005ed0:	9306      	str	r3, [sp, #24]
 8005ed2:	3308      	adds	r3, #8
 8005ed4:	9a22      	ldr	r2, [sp, #136]	; 0x88
 8005ed6:	6013      	str	r3, [r2, #0]
 8005ed8:	9806      	ldr	r0, [sp, #24]
 8005eda:	b015      	add	sp, #84	; 0x54
 8005edc:	e8bd 8ff0 	ldmia.w	sp!, {r4, r5, r6, r7, r8, r9, sl, fp, pc}
 8005ee0:	4ba0      	ldr	r3, [pc, #640]	; (8006164 <_dtoa_r+0x31c>)
 8005ee2:	9306      	str	r3, [sp, #24]
 8005ee4:	3303      	adds	r3, #3
 8005ee6:	e7f5      	b.n	8005ed4 <_dtoa_r+0x8c>
 8005ee8:	e9dd 6702 	ldrd	r6, r7, [sp, #8]
 8005eec:	2200      	movs	r2, #0
 8005eee:	2300      	movs	r3, #0
 8005ef0:	4630      	mov	r0, r6
 8005ef2:	4639      	mov	r1, r7
 8005ef4:	f7fa fd58 	bl	80009a8 <__aeabi_dcmpeq>
 8005ef8:	4682      	mov	sl, r0
 8005efa:	b160      	cbz	r0, 8005f16 <_dtoa_r+0xce>
 8005efc:	2301      	movs	r3, #1
 8005efe:	9a20      	ldr	r2, [sp, #128]	; 0x80
 8005f00:	6013      	str	r3, [r2, #0]
 8005f02:	9b22      	ldr	r3, [sp, #136]	; 0x88
 8005f04:	2b00      	cmp	r3, #0
 8005f06:	f000 8520 	beq.w	800694a <_dtoa_r+0xb02>
 8005f0a:	4b98      	ldr	r3, [pc, #608]	; (800616c <_dtoa_r+0x324>)
 8005f0c:	9a22      	ldr	r2, [sp, #136]	; 0x88
 8005f0e:	6013      	str	r3, [r2, #0]
 8005f10:	3b01      	subs	r3, #1
 8005f12:	9306      	str	r3, [sp, #24]
 8005f14:	e7e0      	b.n	8005ed8 <_dtoa_r+0x90>
 8005f16:	ab12      	add	r3, sp, #72	; 0x48
 8005f18:	9301      	str	r3, [sp, #4]
 8005f1a:	ab13      	add	r3, sp, #76	; 0x4c
 8005f1c:	9300      	str	r3, [sp, #0]
 8005f1e:	4632      	mov	r2, r6
 8005f20:	463b      	mov	r3, r7
 8005f22:	4620      	mov	r0, r4
 8005f24:	f001 f990 	bl	8007248 <__d2b>
 8005f28:	f3c8 550a 	ubfx	r5, r8, #20, #11
 8005f2c:	4683      	mov	fp, r0
 8005f2e:	2d00      	cmp	r5, #0
 8005f30:	d07d      	beq.n	800602e <_dtoa_r+0x1e6>
 8005f32:	46b0      	mov	r8, r6
 8005f34:	f3c7 0313 	ubfx	r3, r7, #0, #20
 8005f38:	f043 597f 	orr.w	r9, r3, #1069547520	; 0x3fc00000
 8005f3c:	f449 1940 	orr.w	r9, r9, #3145728	; 0x300000
 8005f40:	f2a5 35ff 	subw	r5, r5, #1023	; 0x3ff
 8005f44:	f8cd a040 	str.w	sl, [sp, #64]	; 0x40
 8005f48:	2200      	movs	r2, #0
 8005f4a:	4b89      	ldr	r3, [pc, #548]	; (8006170 <_dtoa_r+0x328>)
 8005f4c:	4640      	mov	r0, r8
 8005f4e:	4649      	mov	r1, r9
 8005f50:	f7fa f90a 	bl	8000168 <__aeabi_dsub>
 8005f54:	a37c      	add	r3, pc, #496	; (adr r3, 8006148 <_dtoa_r+0x300>)
 8005f56:	e9d3 2300 	ldrd	r2, r3, [r3]
 8005f5a:	f7fa fabd 	bl	80004d8 <__aeabi_dmul>
 8005f5e:	a37c      	add	r3, pc, #496	; (adr r3, 8006150 <_dtoa_r+0x308>)
 8005f60:	e9d3 2300 	ldrd	r2, r3, [r3]
 8005f64:	f7fa f902 	bl	800016c <__adddf3>
 8005f68:	4606      	mov	r6, r0
 8005f6a:	4628      	mov	r0, r5
 8005f6c:	460f      	mov	r7, r1
 8005f6e:	f7fa fa49 	bl	8000404 <__aeabi_i2d>
 8005f72:	a379      	add	r3, pc, #484	; (adr r3, 8006158 <_dtoa_r+0x310>)
 8005f74:	e9d3 2300 	ldrd	r2, r3, [r3]
 8005f78:	f7fa faae 	bl	80004d8 <__aeabi_dmul>
 8005f7c:	4602      	mov	r2, r0
 8005f7e:	460b      	mov	r3, r1
 8005f80:	4630      	mov	r0, r6
 8005f82:	4639      	mov	r1, r7
 8005f84:	f7fa f8f2 	bl	800016c <__adddf3>
 8005f88:	4606      	mov	r6, r0
 8005f8a:	460f      	mov	r7, r1
 8005f8c:	f7fa fd54 	bl	8000a38 <__aeabi_d2iz>
 8005f90:	2200      	movs	r2, #0
 8005f92:	4682      	mov	sl, r0
 8005f94:	2300      	movs	r3, #0
 8005f96:	4630      	mov	r0, r6
 8005f98:	4639      	mov	r1, r7
 8005f9a:	f7fa fd0f 	bl	80009bc <__aeabi_dcmplt>
 8005f9e:	b148      	cbz	r0, 8005fb4 <_dtoa_r+0x16c>
 8005fa0:	4650      	mov	r0, sl
 8005fa2:	f7fa fa2f 	bl	8000404 <__aeabi_i2d>
 8005fa6:	4632      	mov	r2, r6
 8005fa8:	463b      	mov	r3, r7
 8005faa:	f7fa fcfd 	bl	80009a8 <__aeabi_dcmpeq>
 8005fae:	b908      	cbnz	r0, 8005fb4 <_dtoa_r+0x16c>
 8005fb0:	f10a 3aff 	add.w	sl, sl, #4294967295
 8005fb4:	f1ba 0f16 	cmp.w	sl, #22
 8005fb8:	d85a      	bhi.n	8006070 <_dtoa_r+0x228>
 8005fba:	e9dd 2302 	ldrd	r2, r3, [sp, #8]
 8005fbe:	496d      	ldr	r1, [pc, #436]	; (8006174 <_dtoa_r+0x32c>)
 8005fc0:	eb01 01ca 	add.w	r1, r1, sl, lsl #3
 8005fc4:	e9d1 0100 	ldrd	r0, r1, [r1]
 8005fc8:	f7fa fd16 	bl	80009f8 <__aeabi_dcmpgt>
 8005fcc:	2800      	cmp	r0, #0
 8005fce:	d051      	beq.n	8006074 <_dtoa_r+0x22c>
 8005fd0:	2300      	movs	r3, #0
 8005fd2:	f10a 3aff 	add.w	sl, sl, #4294967295
 8005fd6:	930d      	str	r3, [sp, #52]	; 0x34
 8005fd8:	9b12      	ldr	r3, [sp, #72]	; 0x48
 8005fda:	1b5d      	subs	r5, r3, r5
 8005fdc:	1e6b      	subs	r3, r5, #1
 8005fde:	9307      	str	r3, [sp, #28]
 8005fe0:	bf43      	ittte	mi
 8005fe2:	2300      	movmi	r3, #0
 8005fe4:	f1c5 0901 	rsbmi	r9, r5, #1
 8005fe8:	9307      	strmi	r3, [sp, #28]
 8005fea:	f04f 0900 	movpl.w	r9, #0
 8005fee:	f1ba 0f00 	cmp.w	sl, #0
 8005ff2:	db41      	blt.n	8006078 <_dtoa_r+0x230>
 8005ff4:	9b07      	ldr	r3, [sp, #28]
 8005ff6:	f8cd a030 	str.w	sl, [sp, #48]	; 0x30
 8005ffa:	4453      	add	r3, sl
 8005ffc:	9307      	str	r3, [sp, #28]
 8005ffe:	2300      	movs	r3, #0
 8006000:	9308      	str	r3, [sp, #32]
 8006002:	9b1e      	ldr	r3, [sp, #120]	; 0x78
 8006004:	2b09      	cmp	r3, #9
 8006006:	f200 808f 	bhi.w	8006128 <_dtoa_r+0x2e0>
 800600a:	2b05      	cmp	r3, #5
 800600c:	bfc4      	itt	gt
 800600e:	3b04      	subgt	r3, #4
 8006010:	931e      	strgt	r3, [sp, #120]	; 0x78
 8006012:	9b1e      	ldr	r3, [sp, #120]	; 0x78
 8006014:	bfc8      	it	gt
 8006016:	2500      	movgt	r5, #0
 8006018:	f1a3 0302 	sub.w	r3, r3, #2
 800601c:	bfd8      	it	le
 800601e:	2501      	movle	r5, #1
 8006020:	2b03      	cmp	r3, #3
 8006022:	f200 808d 	bhi.w	8006140 <_dtoa_r+0x2f8>
 8006026:	e8df f003 	tbb	[pc, r3]
 800602a:	7d7b      	.short	0x7d7b
 800602c:	6f2f      	.short	0x6f2f
 800602e:	e9dd 5312 	ldrd	r5, r3, [sp, #72]	; 0x48
 8006032:	441d      	add	r5, r3
 8006034:	f205 4032 	addw	r0, r5, #1074	; 0x432
 8006038:	2820      	cmp	r0, #32
 800603a:	dd13      	ble.n	8006064 <_dtoa_r+0x21c>
 800603c:	f1c0 0040 	rsb	r0, r0, #64	; 0x40
 8006040:	9b02      	ldr	r3, [sp, #8]
 8006042:	fa08 f800 	lsl.w	r8, r8, r0
 8006046:	f205 4012 	addw	r0, r5, #1042	; 0x412
 800604a:	fa23 f000 	lsr.w	r0, r3, r0
 800604e:	ea48 0000 	orr.w	r0, r8, r0
 8006052:	f7fa f9c7 	bl	80003e4 <__aeabi_ui2d>
 8006056:	2301      	movs	r3, #1
 8006058:	4680      	mov	r8, r0
 800605a:	f1a1 79f8 	sub.w	r9, r1, #32505856	; 0x1f00000
 800605e:	3d01      	subs	r5, #1
 8006060:	9310      	str	r3, [sp, #64]	; 0x40
 8006062:	e771      	b.n	8005f48 <_dtoa_r+0x100>
 8006064:	9b02      	ldr	r3, [sp, #8]
 8006066:	f1c0 0020 	rsb	r0, r0, #32
 800606a:	fa03 f000 	lsl.w	r0, r3, r0
 800606e:	e7f0      	b.n	8006052 <_dtoa_r+0x20a>
 8006070:	2301      	movs	r3, #1
 8006072:	e7b0      	b.n	8005fd6 <_dtoa_r+0x18e>
 8006074:	900d      	str	r0, [sp, #52]	; 0x34
 8006076:	e7af      	b.n	8005fd8 <_dtoa_r+0x190>
 8006078:	f1ca 0300 	rsb	r3, sl, #0
 800607c:	9308      	str	r3, [sp, #32]
 800607e:	2300      	movs	r3, #0
 8006080:	eba9 090a 	sub.w	r9, r9, sl
 8006084:	930c      	str	r3, [sp, #48]	; 0x30
 8006086:	e7bc      	b.n	8006002 <_dtoa_r+0x1ba>
 8006088:	2301      	movs	r3, #1
 800608a:	9309      	str	r3, [sp, #36]	; 0x24
 800608c:	9b1f      	ldr	r3, [sp, #124]	; 0x7c
 800608e:	2b00      	cmp	r3, #0
 8006090:	dd74      	ble.n	800617c <_dtoa_r+0x334>
 8006092:	4698      	mov	r8, r3
 8006094:	9304      	str	r3, [sp, #16]
 8006096:	2200      	movs	r2, #0
 8006098:	6a66      	ldr	r6, [r4, #36]	; 0x24
 800609a:	6072      	str	r2, [r6, #4]
 800609c:	2204      	movs	r2, #4
 800609e:	f102 0014 	add.w	r0, r2, #20
 80060a2:	4298      	cmp	r0, r3
 80060a4:	6871      	ldr	r1, [r6, #4]
 80060a6:	d96e      	bls.n	8006186 <_dtoa_r+0x33e>
 80060a8:	4620      	mov	r0, r4
 80060aa:	f000 fe40 	bl	8006d2e <_Balloc>
 80060ae:	6a63      	ldr	r3, [r4, #36]	; 0x24
 80060b0:	6030      	str	r0, [r6, #0]
 80060b2:	681b      	ldr	r3, [r3, #0]
 80060b4:	f1b8 0f0e 	cmp.w	r8, #14
 80060b8:	9306      	str	r3, [sp, #24]
 80060ba:	f200 80ed 	bhi.w	8006298 <_dtoa_r+0x450>
 80060be:	2d00      	cmp	r5, #0
 80060c0:	f000 80ea 	beq.w	8006298 <_dtoa_r+0x450>
 80060c4:	e9dd 2302 	ldrd	r2, r3, [sp, #8]
 80060c8:	f1ba 0f00 	cmp.w	sl, #0
 80060cc:	e9cd 230e 	strd	r2, r3, [sp, #56]	; 0x38
 80060d0:	dd77      	ble.n	80061c2 <_dtoa_r+0x37a>
 80060d2:	4a28      	ldr	r2, [pc, #160]	; (8006174 <_dtoa_r+0x32c>)
 80060d4:	f00a 030f 	and.w	r3, sl, #15
 80060d8:	ea4f 162a 	mov.w	r6, sl, asr #4
 80060dc:	eb02 03c3 	add.w	r3, r2, r3, lsl #3
 80060e0:	06f0      	lsls	r0, r6, #27
 80060e2:	e9d3 2300 	ldrd	r2, r3, [r3]
 80060e6:	e9cd 230a 	strd	r2, r3, [sp, #40]	; 0x28
 80060ea:	d568      	bpl.n	80061be <_dtoa_r+0x376>
 80060ec:	e9dd 010e 	ldrd	r0, r1, [sp, #56]	; 0x38
 80060f0:	4b21      	ldr	r3, [pc, #132]	; (8006178 <_dtoa_r+0x330>)
 80060f2:	2503      	movs	r5, #3
 80060f4:	e9d3 2308 	ldrd	r2, r3, [r3, #32]
 80060f8:	f7fa fb18 	bl	800072c <__aeabi_ddiv>
 80060fc:	e9cd 0102 	strd	r0, r1, [sp, #8]
 8006100:	f006 060f 	and.w	r6, r6, #15
 8006104:	4f1c      	ldr	r7, [pc, #112]	; (8006178 <_dtoa_r+0x330>)
 8006106:	e04f      	b.n	80061a8 <_dtoa_r+0x360>
 8006108:	2301      	movs	r3, #1
 800610a:	9309      	str	r3, [sp, #36]	; 0x24
 800610c:	9b1f      	ldr	r3, [sp, #124]	; 0x7c
 800610e:	4453      	add	r3, sl
 8006110:	f103 0801 	add.w	r8, r3, #1
 8006114:	9304      	str	r3, [sp, #16]
 8006116:	4643      	mov	r3, r8
 8006118:	2b01      	cmp	r3, #1
 800611a:	bfb8      	it	lt
 800611c:	2301      	movlt	r3, #1
 800611e:	e7ba      	b.n	8006096 <_dtoa_r+0x24e>
 8006120:	2300      	movs	r3, #0
 8006122:	e7b2      	b.n	800608a <_dtoa_r+0x242>
 8006124:	2300      	movs	r3, #0
 8006126:	e7f0      	b.n	800610a <_dtoa_r+0x2c2>
 8006128:	2501      	movs	r5, #1
 800612a:	2300      	movs	r3, #0
 800612c:	9509      	str	r5, [sp, #36]	; 0x24
 800612e:	931e      	str	r3, [sp, #120]	; 0x78
 8006130:	f04f 33ff 	mov.w	r3, #4294967295
 8006134:	2200      	movs	r2, #0
 8006136:	9304      	str	r3, [sp, #16]
 8006138:	4698      	mov	r8, r3
 800613a:	2312      	movs	r3, #18
 800613c:	921f      	str	r2, [sp, #124]	; 0x7c
 800613e:	e7aa      	b.n	8006096 <_dtoa_r+0x24e>
 8006140:	2301      	movs	r3, #1
 8006142:	9309      	str	r3, [sp, #36]	; 0x24
 8006144:	e7f4      	b.n	8006130 <_dtoa_r+0x2e8>
 8006146:	bf00      	nop
 8006148:	636f4361 	.word	0x636f4361
 800614c:	3fd287a7 	.word	0x3fd287a7
 8006150:	8b60c8b3 	.word	0x8b60c8b3
 8006154:	3fc68a28 	.word	0x3fc68a28
 8006158:	509f79fb 	.word	0x509f79fb
 800615c:	3fd34413 	.word	0x3fd34413
 8006160:	7ff00000 	.word	0x7ff00000
 8006164:	08007667 	.word	0x08007667
 8006168:	0800765e 	.word	0x0800765e
 800616c:	0800765d 	.word	0x0800765d
 8006170:	3ff80000 	.word	0x3ff80000
 8006174:	080076f8 	.word	0x080076f8
 8006178:	080076d0 	.word	0x080076d0
 800617c:	2301      	movs	r3, #1
 800617e:	9304      	str	r3, [sp, #16]
 8006180:	4698      	mov	r8, r3
 8006182:	461a      	mov	r2, r3
 8006184:	e7da      	b.n	800613c <_dtoa_r+0x2f4>
 8006186:	3101      	adds	r1, #1
 8006188:	6071      	str	r1, [r6, #4]
 800618a:	0052      	lsls	r2, r2, #1
 800618c:	e787      	b.n	800609e <_dtoa_r+0x256>
 800618e:	07f1      	lsls	r1, r6, #31
 8006190:	d508      	bpl.n	80061a4 <_dtoa_r+0x35c>
 8006192:	e9dd 010a 	ldrd	r0, r1, [sp, #40]	; 0x28
 8006196:	e9d7 2300 	ldrd	r2, r3, [r7]
 800619a:	f7fa f99d 	bl	80004d8 <__aeabi_dmul>
 800619e:	e9cd 010a 	strd	r0, r1, [sp, #40]	; 0x28
 80061a2:	3501      	adds	r5, #1
 80061a4:	1076      	asrs	r6, r6, #1
 80061a6:	3708      	adds	r7, #8
 80061a8:	2e00      	cmp	r6, #0
 80061aa:	d1f0      	bne.n	800618e <_dtoa_r+0x346>
 80061ac:	e9dd 230a 	ldrd	r2, r3, [sp, #40]	; 0x28
 80061b0:	e9dd 0102 	ldrd	r0, r1, [sp, #8]
 80061b4:	f7fa faba 	bl	800072c <__aeabi_ddiv>
 80061b8:	e9cd 0102 	strd	r0, r1, [sp, #8]
 80061bc:	e01b      	b.n	80061f6 <_dtoa_r+0x3ae>
 80061be:	2502      	movs	r5, #2
 80061c0:	e7a0      	b.n	8006104 <_dtoa_r+0x2bc>
 80061c2:	f000 80a4 	beq.w	800630e <_dtoa_r+0x4c6>
 80061c6:	e9dd 010e 	ldrd	r0, r1, [sp, #56]	; 0x38
 80061ca:	f1ca 0600 	rsb	r6, sl, #0
 80061ce:	4ba0      	ldr	r3, [pc, #640]	; (8006450 <_dtoa_r+0x608>)
 80061d0:	f006 020f 	and.w	r2, r6, #15
 80061d4:	eb03 03c2 	add.w	r3, r3, r2, lsl #3
 80061d8:	e9d3 2300 	ldrd	r2, r3, [r3]
 80061dc:	f7fa f97c 	bl	80004d8 <__aeabi_dmul>
 80061e0:	2502      	movs	r5, #2
 80061e2:	2300      	movs	r3, #0
 80061e4:	e9cd 0102 	strd	r0, r1, [sp, #8]
 80061e8:	4f9a      	ldr	r7, [pc, #616]	; (8006454 <_dtoa_r+0x60c>)
 80061ea:	1136      	asrs	r6, r6, #4
 80061ec:	2e00      	cmp	r6, #0
 80061ee:	f040 8083 	bne.w	80062f8 <_dtoa_r+0x4b0>
 80061f2:	2b00      	cmp	r3, #0
 80061f4:	d1e0      	bne.n	80061b8 <_dtoa_r+0x370>
 80061f6:	9b0d      	ldr	r3, [sp, #52]	; 0x34
 80061f8:	2b00      	cmp	r3, #0
 80061fa:	f000 808a 	beq.w	8006312 <_dtoa_r+0x4ca>
 80061fe:	e9dd 2302 	ldrd	r2, r3, [sp, #8]
 8006202:	e9cd 230a 	strd	r2, r3, [sp, #40]	; 0x28
 8006206:	e9dd 010a 	ldrd	r0, r1, [sp, #40]	; 0x28
 800620a:	2200      	movs	r2, #0
 800620c:	4b92      	ldr	r3, [pc, #584]	; (8006458 <_dtoa_r+0x610>)
 800620e:	f7fa fbd5 	bl	80009bc <__aeabi_dcmplt>
 8006212:	2800      	cmp	r0, #0
 8006214:	d07d      	beq.n	8006312 <_dtoa_r+0x4ca>
 8006216:	f1b8 0f00 	cmp.w	r8, #0
 800621a:	d07a      	beq.n	8006312 <_dtoa_r+0x4ca>
 800621c:	9b04      	ldr	r3, [sp, #16]
 800621e:	2b00      	cmp	r3, #0
 8006220:	dd36      	ble.n	8006290 <_dtoa_r+0x448>
 8006222:	e9dd 010a 	ldrd	r0, r1, [sp, #40]	; 0x28
 8006226:	2200      	movs	r2, #0
 8006228:	4b8c      	ldr	r3, [pc, #560]	; (800645c <_dtoa_r+0x614>)
 800622a:	f7fa f955 	bl	80004d8 <__aeabi_dmul>
 800622e:	e9cd 0102 	strd	r0, r1, [sp, #8]
 8006232:	9e04      	ldr	r6, [sp, #16]
 8006234:	f10a 37ff 	add.w	r7, sl, #4294967295
 8006238:	3501      	adds	r5, #1
 800623a:	4628      	mov	r0, r5
 800623c:	f7fa f8e2 	bl	8000404 <__aeabi_i2d>
 8006240:	e9dd 2302 	ldrd	r2, r3, [sp, #8]
 8006244:	f7fa f948 	bl	80004d8 <__aeabi_dmul>
 8006248:	2200      	movs	r2, #0
 800624a:	4b85      	ldr	r3, [pc, #532]	; (8006460 <_dtoa_r+0x618>)
 800624c:	f7f9 ff8e 	bl	800016c <__adddf3>
 8006250:	f1a1 7550 	sub.w	r5, r1, #54525952	; 0x3400000
 8006254:	e9cd 010a 	strd	r0, r1, [sp, #40]	; 0x28
 8006258:	950b      	str	r5, [sp, #44]	; 0x2c
 800625a:	2e00      	cmp	r6, #0
 800625c:	d15c      	bne.n	8006318 <_dtoa_r+0x4d0>
 800625e:	e9dd 0102 	ldrd	r0, r1, [sp, #8]
 8006262:	2200      	movs	r2, #0
 8006264:	4b7f      	ldr	r3, [pc, #508]	; (8006464 <_dtoa_r+0x61c>)
 8006266:	f7f9 ff7f 	bl	8000168 <__aeabi_dsub>
 800626a:	9a0a      	ldr	r2, [sp, #40]	; 0x28
 800626c:	462b      	mov	r3, r5
 800626e:	e9cd 0102 	strd	r0, r1, [sp, #8]
 8006272:	f7fa fbc1 	bl	80009f8 <__aeabi_dcmpgt>
 8006276:	2800      	cmp	r0, #0
 8006278:	f040 8281 	bne.w	800677e <_dtoa_r+0x936>
 800627c:	e9dd 0102 	ldrd	r0, r1, [sp, #8]
 8006280:	9a0a      	ldr	r2, [sp, #40]	; 0x28
 8006282:	f105 4300 	add.w	r3, r5, #2147483648	; 0x80000000
 8006286:	f7fa fb99 	bl	80009bc <__aeabi_dcmplt>
 800628a:	2800      	cmp	r0, #0
 800628c:	f040 8275 	bne.w	800677a <_dtoa_r+0x932>
 8006290:	e9dd 230e 	ldrd	r2, r3, [sp, #56]	; 0x38
 8006294:	e9cd 2302 	strd	r2, r3, [sp, #8]
 8006298:	9b13      	ldr	r3, [sp, #76]	; 0x4c
 800629a:	2b00      	cmp	r3, #0
 800629c:	f2c0 814b 	blt.w	8006536 <_dtoa_r+0x6ee>
 80062a0:	f1ba 0f0e 	cmp.w	sl, #14
 80062a4:	f300 8147 	bgt.w	8006536 <_dtoa_r+0x6ee>
 80062a8:	4b69      	ldr	r3, [pc, #420]	; (8006450 <_dtoa_r+0x608>)
 80062aa:	eb03 03ca 	add.w	r3, r3, sl, lsl #3
 80062ae:	e9d3 2300 	ldrd	r2, r3, [r3]
 80062b2:	e9cd 2304 	strd	r2, r3, [sp, #16]
 80062b6:	9b1f      	ldr	r3, [sp, #124]	; 0x7c
 80062b8:	2b00      	cmp	r3, #0
 80062ba:	f280 80d7 	bge.w	800646c <_dtoa_r+0x624>
 80062be:	f1b8 0f00 	cmp.w	r8, #0
 80062c2:	f300 80d3 	bgt.w	800646c <_dtoa_r+0x624>
 80062c6:	f040 8257 	bne.w	8006778 <_dtoa_r+0x930>
 80062ca:	e9dd 0104 	ldrd	r0, r1, [sp, #16]
 80062ce:	2200      	movs	r2, #0
 80062d0:	4b64      	ldr	r3, [pc, #400]	; (8006464 <_dtoa_r+0x61c>)
 80062d2:	f7fa f901 	bl	80004d8 <__aeabi_dmul>
 80062d6:	e9dd 2302 	ldrd	r2, r3, [sp, #8]
 80062da:	f7fa fb83 	bl	80009e4 <__aeabi_dcmpge>
 80062de:	4646      	mov	r6, r8
 80062e0:	4647      	mov	r7, r8
 80062e2:	2800      	cmp	r0, #0
 80062e4:	f040 822d 	bne.w	8006742 <_dtoa_r+0x8fa>
 80062e8:	9b06      	ldr	r3, [sp, #24]
 80062ea:	9a06      	ldr	r2, [sp, #24]
 80062ec:	1c5d      	adds	r5, r3, #1
 80062ee:	2331      	movs	r3, #49	; 0x31
 80062f0:	f10a 0a01 	add.w	sl, sl, #1
 80062f4:	7013      	strb	r3, [r2, #0]
 80062f6:	e228      	b.n	800674a <_dtoa_r+0x902>
 80062f8:	07f2      	lsls	r2, r6, #31
 80062fa:	d505      	bpl.n	8006308 <_dtoa_r+0x4c0>
 80062fc:	e9d7 2300 	ldrd	r2, r3, [r7]
 8006300:	f7fa f8ea 	bl	80004d8 <__aeabi_dmul>
 8006304:	2301      	movs	r3, #1
 8006306:	3501      	adds	r5, #1
 8006308:	1076      	asrs	r6, r6, #1
 800630a:	3708      	adds	r7, #8
 800630c:	e76e      	b.n	80061ec <_dtoa_r+0x3a4>
 800630e:	2502      	movs	r5, #2
 8006310:	e771      	b.n	80061f6 <_dtoa_r+0x3ae>
 8006312:	4657      	mov	r7, sl
 8006314:	4646      	mov	r6, r8
 8006316:	e790      	b.n	800623a <_dtoa_r+0x3f2>
 8006318:	4b4d      	ldr	r3, [pc, #308]	; (8006450 <_dtoa_r+0x608>)
 800631a:	eb03 03c6 	add.w	r3, r3, r6, lsl #3
 800631e:	e953 0102 	ldrd	r0, r1, [r3, #-8]
 8006322:	9b09      	ldr	r3, [sp, #36]	; 0x24
 8006324:	2b00      	cmp	r3, #0
 8006326:	d048      	beq.n	80063ba <_dtoa_r+0x572>
 8006328:	4602      	mov	r2, r0
 800632a:	460b      	mov	r3, r1
 800632c:	2000      	movs	r0, #0
 800632e:	494e      	ldr	r1, [pc, #312]	; (8006468 <_dtoa_r+0x620>)
 8006330:	f7fa f9fc 	bl	800072c <__aeabi_ddiv>
 8006334:	e9dd 230a 	ldrd	r2, r3, [sp, #40]	; 0x28
 8006338:	f7f9 ff16 	bl	8000168 <__aeabi_dsub>
 800633c:	e9cd 010a 	strd	r0, r1, [sp, #40]	; 0x28
 8006340:	9d06      	ldr	r5, [sp, #24]
 8006342:	e9dd 0102 	ldrd	r0, r1, [sp, #8]
 8006346:	f7fa fb77 	bl	8000a38 <__aeabi_d2iz>
 800634a:	9011      	str	r0, [sp, #68]	; 0x44
 800634c:	f7fa f85a 	bl	8000404 <__aeabi_i2d>
 8006350:	4602      	mov	r2, r0
 8006352:	460b      	mov	r3, r1
 8006354:	e9dd 0102 	ldrd	r0, r1, [sp, #8]
 8006358:	f7f9 ff06 	bl	8000168 <__aeabi_dsub>
 800635c:	9b11      	ldr	r3, [sp, #68]	; 0x44
 800635e:	e9cd 0102 	strd	r0, r1, [sp, #8]
 8006362:	3330      	adds	r3, #48	; 0x30
 8006364:	f805 3b01 	strb.w	r3, [r5], #1
 8006368:	e9dd 230a 	ldrd	r2, r3, [sp, #40]	; 0x28
 800636c:	f7fa fb26 	bl	80009bc <__aeabi_dcmplt>
 8006370:	2800      	cmp	r0, #0
 8006372:	d163      	bne.n	800643c <_dtoa_r+0x5f4>
 8006374:	e9dd 2302 	ldrd	r2, r3, [sp, #8]
 8006378:	2000      	movs	r0, #0
 800637a:	4937      	ldr	r1, [pc, #220]	; (8006458 <_dtoa_r+0x610>)
 800637c:	f7f9 fef4 	bl	8000168 <__aeabi_dsub>
 8006380:	e9dd 230a 	ldrd	r2, r3, [sp, #40]	; 0x28
 8006384:	f7fa fb1a 	bl	80009bc <__aeabi_dcmplt>
 8006388:	2800      	cmp	r0, #0
 800638a:	f040 80b5 	bne.w	80064f8 <_dtoa_r+0x6b0>
 800638e:	9b06      	ldr	r3, [sp, #24]
 8006390:	1aeb      	subs	r3, r5, r3
 8006392:	429e      	cmp	r6, r3
 8006394:	f77f af7c 	ble.w	8006290 <_dtoa_r+0x448>
 8006398:	e9dd 010a 	ldrd	r0, r1, [sp, #40]	; 0x28
 800639c:	2200      	movs	r2, #0
 800639e:	4b2f      	ldr	r3, [pc, #188]	; (800645c <_dtoa_r+0x614>)
 80063a0:	f7fa f89a 	bl	80004d8 <__aeabi_dmul>
 80063a4:	2200      	movs	r2, #0
 80063a6:	e9cd 010a 	strd	r0, r1, [sp, #40]	; 0x28
 80063aa:	e9dd 0102 	ldrd	r0, r1, [sp, #8]
 80063ae:	4b2b      	ldr	r3, [pc, #172]	; (800645c <_dtoa_r+0x614>)
 80063b0:	f7fa f892 	bl	80004d8 <__aeabi_dmul>
 80063b4:	e9cd 0102 	strd	r0, r1, [sp, #8]
 80063b8:	e7c3      	b.n	8006342 <_dtoa_r+0x4fa>
 80063ba:	e9dd 230a 	ldrd	r2, r3, [sp, #40]	; 0x28
 80063be:	f7fa f88b 	bl	80004d8 <__aeabi_dmul>
 80063c2:	9b06      	ldr	r3, [sp, #24]
 80063c4:	e9cd 010a 	strd	r0, r1, [sp, #40]	; 0x28
 80063c8:	199d      	adds	r5, r3, r6
 80063ca:	461e      	mov	r6, r3
 80063cc:	e9dd 0102 	ldrd	r0, r1, [sp, #8]
 80063d0:	f7fa fb32 	bl	8000a38 <__aeabi_d2iz>
 80063d4:	9011      	str	r0, [sp, #68]	; 0x44
 80063d6:	f7fa f815 	bl	8000404 <__aeabi_i2d>
 80063da:	4602      	mov	r2, r0
 80063dc:	460b      	mov	r3, r1
 80063de:	e9dd 0102 	ldrd	r0, r1, [sp, #8]
 80063e2:	f7f9 fec1 	bl	8000168 <__aeabi_dsub>
 80063e6:	9b11      	ldr	r3, [sp, #68]	; 0x44
 80063e8:	e9cd 0102 	strd	r0, r1, [sp, #8]
 80063ec:	3330      	adds	r3, #48	; 0x30
 80063ee:	f806 3b01 	strb.w	r3, [r6], #1
 80063f2:	42ae      	cmp	r6, r5
 80063f4:	f04f 0200 	mov.w	r2, #0
 80063f8:	d124      	bne.n	8006444 <_dtoa_r+0x5fc>
 80063fa:	e9dd 010a 	ldrd	r0, r1, [sp, #40]	; 0x28
 80063fe:	4b1a      	ldr	r3, [pc, #104]	; (8006468 <_dtoa_r+0x620>)
 8006400:	f7f9 feb4 	bl	800016c <__adddf3>
 8006404:	4602      	mov	r2, r0
 8006406:	460b      	mov	r3, r1
 8006408:	e9dd 0102 	ldrd	r0, r1, [sp, #8]
 800640c:	f7fa faf4 	bl	80009f8 <__aeabi_dcmpgt>
 8006410:	2800      	cmp	r0, #0
 8006412:	d171      	bne.n	80064f8 <_dtoa_r+0x6b0>
 8006414:	e9dd 230a 	ldrd	r2, r3, [sp, #40]	; 0x28
 8006418:	2000      	movs	r0, #0
 800641a:	4913      	ldr	r1, [pc, #76]	; (8006468 <_dtoa_r+0x620>)
 800641c:	f7f9 fea4 	bl	8000168 <__aeabi_dsub>
 8006420:	4602      	mov	r2, r0
 8006422:	460b      	mov	r3, r1
 8006424:	e9dd 0102 	ldrd	r0, r1, [sp, #8]
 8006428:	f7fa fac8 	bl	80009bc <__aeabi_dcmplt>
 800642c:	2800      	cmp	r0, #0
 800642e:	f43f af2f 	beq.w	8006290 <_dtoa_r+0x448>
 8006432:	f815 3c01 	ldrb.w	r3, [r5, #-1]
 8006436:	1e6a      	subs	r2, r5, #1
 8006438:	2b30      	cmp	r3, #48	; 0x30
 800643a:	d001      	beq.n	8006440 <_dtoa_r+0x5f8>
 800643c:	46ba      	mov	sl, r7
 800643e:	e04a      	b.n	80064d6 <_dtoa_r+0x68e>
 8006440:	4615      	mov	r5, r2
 8006442:	e7f6      	b.n	8006432 <_dtoa_r+0x5ea>
 8006444:	4b05      	ldr	r3, [pc, #20]	; (800645c <_dtoa_r+0x614>)
 8006446:	f7fa f847 	bl	80004d8 <__aeabi_dmul>
 800644a:	e9cd 0102 	strd	r0, r1, [sp, #8]
 800644e:	e7bd      	b.n	80063cc <_dtoa_r+0x584>
 8006450:	080076f8 	.word	0x080076f8
 8006454:	080076d0 	.word	0x080076d0
 8006458:	3ff00000 	.word	0x3ff00000
 800645c:	40240000 	.word	0x40240000
 8006460:	401c0000 	.word	0x401c0000
 8006464:	40140000 	.word	0x40140000
 8006468:	3fe00000 	.word	0x3fe00000
 800646c:	9d06      	ldr	r5, [sp, #24]
 800646e:	e9dd 6702 	ldrd	r6, r7, [sp, #8]
 8006472:	e9dd 2304 	ldrd	r2, r3, [sp, #16]
 8006476:	4630      	mov	r0, r6
 8006478:	4639      	mov	r1, r7
 800647a:	f7fa f957 	bl	800072c <__aeabi_ddiv>
 800647e:	f7fa fadb 	bl	8000a38 <__aeabi_d2iz>
 8006482:	4681      	mov	r9, r0
 8006484:	f7f9 ffbe 	bl	8000404 <__aeabi_i2d>
 8006488:	e9dd 2304 	ldrd	r2, r3, [sp, #16]
 800648c:	f7fa f824 	bl	80004d8 <__aeabi_dmul>
 8006490:	4602      	mov	r2, r0
 8006492:	460b      	mov	r3, r1
 8006494:	4630      	mov	r0, r6
 8006496:	4639      	mov	r1, r7
 8006498:	f7f9 fe66 	bl	8000168 <__aeabi_dsub>
 800649c:	f109 0630 	add.w	r6, r9, #48	; 0x30
 80064a0:	f805 6b01 	strb.w	r6, [r5], #1
 80064a4:	9e06      	ldr	r6, [sp, #24]
 80064a6:	4602      	mov	r2, r0
 80064a8:	1bae      	subs	r6, r5, r6
 80064aa:	45b0      	cmp	r8, r6
 80064ac:	460b      	mov	r3, r1
 80064ae:	d135      	bne.n	800651c <_dtoa_r+0x6d4>
 80064b0:	f7f9 fe5c 	bl	800016c <__adddf3>
 80064b4:	e9dd 2304 	ldrd	r2, r3, [sp, #16]
 80064b8:	4606      	mov	r6, r0
 80064ba:	460f      	mov	r7, r1
 80064bc:	f7fa fa9c 	bl	80009f8 <__aeabi_dcmpgt>
 80064c0:	b9c8      	cbnz	r0, 80064f6 <_dtoa_r+0x6ae>
 80064c2:	e9dd 2304 	ldrd	r2, r3, [sp, #16]
 80064c6:	4630      	mov	r0, r6
 80064c8:	4639      	mov	r1, r7
 80064ca:	f7fa fa6d 	bl	80009a8 <__aeabi_dcmpeq>
 80064ce:	b110      	cbz	r0, 80064d6 <_dtoa_r+0x68e>
 80064d0:	f019 0f01 	tst.w	r9, #1
 80064d4:	d10f      	bne.n	80064f6 <_dtoa_r+0x6ae>
 80064d6:	4659      	mov	r1, fp
 80064d8:	4620      	mov	r0, r4
 80064da:	f000 fc5c 	bl	8006d96 <_Bfree>
 80064de:	2300      	movs	r3, #0
 80064e0:	9a20      	ldr	r2, [sp, #128]	; 0x80
 80064e2:	702b      	strb	r3, [r5, #0]
 80064e4:	f10a 0301 	add.w	r3, sl, #1
 80064e8:	6013      	str	r3, [r2, #0]
 80064ea:	9b22      	ldr	r3, [sp, #136]	; 0x88
 80064ec:	2b00      	cmp	r3, #0
 80064ee:	f43f acf3 	beq.w	8005ed8 <_dtoa_r+0x90>
 80064f2:	601d      	str	r5, [r3, #0]
 80064f4:	e4f0      	b.n	8005ed8 <_dtoa_r+0x90>
 80064f6:	4657      	mov	r7, sl
 80064f8:	f815 2c01 	ldrb.w	r2, [r5, #-1]
 80064fc:	1e6b      	subs	r3, r5, #1
 80064fe:	2a39      	cmp	r2, #57	; 0x39
 8006500:	d106      	bne.n	8006510 <_dtoa_r+0x6c8>
 8006502:	9a06      	ldr	r2, [sp, #24]
 8006504:	429a      	cmp	r2, r3
 8006506:	d107      	bne.n	8006518 <_dtoa_r+0x6d0>
 8006508:	2330      	movs	r3, #48	; 0x30
 800650a:	7013      	strb	r3, [r2, #0]
 800650c:	4613      	mov	r3, r2
 800650e:	3701      	adds	r7, #1
 8006510:	781a      	ldrb	r2, [r3, #0]
 8006512:	3201      	adds	r2, #1
 8006514:	701a      	strb	r2, [r3, #0]
 8006516:	e791      	b.n	800643c <_dtoa_r+0x5f4>
 8006518:	461d      	mov	r5, r3
 800651a:	e7ed      	b.n	80064f8 <_dtoa_r+0x6b0>
 800651c:	2200      	movs	r2, #0
 800651e:	4b99      	ldr	r3, [pc, #612]	; (8006784 <_dtoa_r+0x93c>)
 8006520:	f7f9 ffda 	bl	80004d8 <__aeabi_dmul>
 8006524:	2200      	movs	r2, #0
 8006526:	2300      	movs	r3, #0
 8006528:	4606      	mov	r6, r0
 800652a:	460f      	mov	r7, r1
 800652c:	f7fa fa3c 	bl	80009a8 <__aeabi_dcmpeq>
 8006530:	2800      	cmp	r0, #0
 8006532:	d09e      	beq.n	8006472 <_dtoa_r+0x62a>
 8006534:	e7cf      	b.n	80064d6 <_dtoa_r+0x68e>
 8006536:	9a09      	ldr	r2, [sp, #36]	; 0x24
 8006538:	2a00      	cmp	r2, #0
 800653a:	f000 8088 	beq.w	800664e <_dtoa_r+0x806>
 800653e:	9a1e      	ldr	r2, [sp, #120]	; 0x78
 8006540:	2a01      	cmp	r2, #1
 8006542:	dc6d      	bgt.n	8006620 <_dtoa_r+0x7d8>
 8006544:	9a10      	ldr	r2, [sp, #64]	; 0x40
 8006546:	2a00      	cmp	r2, #0
 8006548:	d066      	beq.n	8006618 <_dtoa_r+0x7d0>
 800654a:	f203 4333 	addw	r3, r3, #1075	; 0x433
 800654e:	464d      	mov	r5, r9
 8006550:	9e08      	ldr	r6, [sp, #32]
 8006552:	9a07      	ldr	r2, [sp, #28]
 8006554:	2101      	movs	r1, #1
 8006556:	441a      	add	r2, r3
 8006558:	4620      	mov	r0, r4
 800655a:	4499      	add	r9, r3
 800655c:	9207      	str	r2, [sp, #28]
 800655e:	f000 fcba 	bl	8006ed6 <__i2b>
 8006562:	4607      	mov	r7, r0
 8006564:	2d00      	cmp	r5, #0
 8006566:	dd0b      	ble.n	8006580 <_dtoa_r+0x738>
 8006568:	9b07      	ldr	r3, [sp, #28]
 800656a:	2b00      	cmp	r3, #0
 800656c:	dd08      	ble.n	8006580 <_dtoa_r+0x738>
 800656e:	42ab      	cmp	r3, r5
 8006570:	bfa8      	it	ge
 8006572:	462b      	movge	r3, r5
 8006574:	9a07      	ldr	r2, [sp, #28]
 8006576:	eba9 0903 	sub.w	r9, r9, r3
 800657a:	1aed      	subs	r5, r5, r3
 800657c:	1ad3      	subs	r3, r2, r3
 800657e:	9307      	str	r3, [sp, #28]
 8006580:	9b08      	ldr	r3, [sp, #32]
 8006582:	b1eb      	cbz	r3, 80065c0 <_dtoa_r+0x778>
 8006584:	9b09      	ldr	r3, [sp, #36]	; 0x24
 8006586:	2b00      	cmp	r3, #0
 8006588:	d065      	beq.n	8006656 <_dtoa_r+0x80e>
 800658a:	b18e      	cbz	r6, 80065b0 <_dtoa_r+0x768>
 800658c:	4639      	mov	r1, r7
 800658e:	4632      	mov	r2, r6
 8006590:	4620      	mov	r0, r4
 8006592:	f000 fd3f 	bl	8007014 <__pow5mult>
 8006596:	465a      	mov	r2, fp
 8006598:	4601      	mov	r1, r0
 800659a:	4607      	mov	r7, r0
 800659c:	4620      	mov	r0, r4
 800659e:	f000 fca3 	bl	8006ee8 <__multiply>
 80065a2:	4659      	mov	r1, fp
 80065a4:	900a      	str	r0, [sp, #40]	; 0x28
 80065a6:	4620      	mov	r0, r4
 80065a8:	f000 fbf5 	bl	8006d96 <_Bfree>
 80065ac:	9b0a      	ldr	r3, [sp, #40]	; 0x28
 80065ae:	469b      	mov	fp, r3
 80065b0:	9b08      	ldr	r3, [sp, #32]
 80065b2:	1b9a      	subs	r2, r3, r6
 80065b4:	d004      	beq.n	80065c0 <_dtoa_r+0x778>
 80065b6:	4659      	mov	r1, fp
 80065b8:	4620      	mov	r0, r4
 80065ba:	f000 fd2b 	bl	8007014 <__pow5mult>
 80065be:	4683      	mov	fp, r0
 80065c0:	2101      	movs	r1, #1
 80065c2:	4620      	mov	r0, r4
 80065c4:	f000 fc87 	bl	8006ed6 <__i2b>
 80065c8:	9b0c      	ldr	r3, [sp, #48]	; 0x30
 80065ca:	4606      	mov	r6, r0
 80065cc:	2b00      	cmp	r3, #0
 80065ce:	f000 81c6 	beq.w	800695e <_dtoa_r+0xb16>
 80065d2:	461a      	mov	r2, r3
 80065d4:	4601      	mov	r1, r0
 80065d6:	4620      	mov	r0, r4
 80065d8:	f000 fd1c 	bl	8007014 <__pow5mult>
 80065dc:	9b1e      	ldr	r3, [sp, #120]	; 0x78
 80065de:	4606      	mov	r6, r0
 80065e0:	2b01      	cmp	r3, #1
 80065e2:	dc3e      	bgt.n	8006662 <_dtoa_r+0x81a>
 80065e4:	9b02      	ldr	r3, [sp, #8]
 80065e6:	2b00      	cmp	r3, #0
 80065e8:	d137      	bne.n	800665a <_dtoa_r+0x812>
 80065ea:	9b03      	ldr	r3, [sp, #12]
 80065ec:	f3c3 0313 	ubfx	r3, r3, #0, #20
 80065f0:	2b00      	cmp	r3, #0
 80065f2:	d134      	bne.n	800665e <_dtoa_r+0x816>
 80065f4:	9b03      	ldr	r3, [sp, #12]
 80065f6:	f023 4300 	bic.w	r3, r3, #2147483648	; 0x80000000
 80065fa:	0d1b      	lsrs	r3, r3, #20
 80065fc:	051b      	lsls	r3, r3, #20
 80065fe:	b12b      	cbz	r3, 800660c <_dtoa_r+0x7c4>
 8006600:	9b07      	ldr	r3, [sp, #28]
 8006602:	f109 0901 	add.w	r9, r9, #1
 8006606:	3301      	adds	r3, #1
 8006608:	9307      	str	r3, [sp, #28]
 800660a:	2301      	movs	r3, #1
 800660c:	9308      	str	r3, [sp, #32]
 800660e:	9b0c      	ldr	r3, [sp, #48]	; 0x30
 8006610:	2b00      	cmp	r3, #0
 8006612:	d128      	bne.n	8006666 <_dtoa_r+0x81e>
 8006614:	2001      	movs	r0, #1
 8006616:	e02e      	b.n	8006676 <_dtoa_r+0x82e>
 8006618:	9b12      	ldr	r3, [sp, #72]	; 0x48
 800661a:	f1c3 0336 	rsb	r3, r3, #54	; 0x36
 800661e:	e796      	b.n	800654e <_dtoa_r+0x706>
 8006620:	9b08      	ldr	r3, [sp, #32]
 8006622:	f108 36ff 	add.w	r6, r8, #4294967295
 8006626:	42b3      	cmp	r3, r6
 8006628:	bfb7      	itett	lt
 800662a:	9b08      	ldrlt	r3, [sp, #32]
 800662c:	1b9e      	subge	r6, r3, r6
 800662e:	1af2      	sublt	r2, r6, r3
 8006630:	9b0c      	ldrlt	r3, [sp, #48]	; 0x30
 8006632:	bfbf      	itttt	lt
 8006634:	9608      	strlt	r6, [sp, #32]
 8006636:	189b      	addlt	r3, r3, r2
 8006638:	930c      	strlt	r3, [sp, #48]	; 0x30
 800663a:	2600      	movlt	r6, #0
 800663c:	f1b8 0f00 	cmp.w	r8, #0
 8006640:	bfb9      	ittee	lt
 8006642:	eba9 0508 	sublt.w	r5, r9, r8
 8006646:	2300      	movlt	r3, #0
 8006648:	464d      	movge	r5, r9
 800664a:	4643      	movge	r3, r8
 800664c:	e781      	b.n	8006552 <_dtoa_r+0x70a>
 800664e:	9e08      	ldr	r6, [sp, #32]
 8006650:	464d      	mov	r5, r9
 8006652:	9f09      	ldr	r7, [sp, #36]	; 0x24
 8006654:	e786      	b.n	8006564 <_dtoa_r+0x71c>
 8006656:	9a08      	ldr	r2, [sp, #32]
 8006658:	e7ad      	b.n	80065b6 <_dtoa_r+0x76e>
 800665a:	2300      	movs	r3, #0
 800665c:	e7d6      	b.n	800660c <_dtoa_r+0x7c4>
 800665e:	9b02      	ldr	r3, [sp, #8]
 8006660:	e7d4      	b.n	800660c <_dtoa_r+0x7c4>
 8006662:	2300      	movs	r3, #0
 8006664:	9308      	str	r3, [sp, #32]
 8006666:	6933      	ldr	r3, [r6, #16]
 8006668:	eb06 0383 	add.w	r3, r6, r3, lsl #2
 800666c:	6918      	ldr	r0, [r3, #16]
 800666e:	f000 fbe4 	bl	8006e3a <__hi0bits>
 8006672:	f1c0 0020 	rsb	r0, r0, #32
 8006676:	9b07      	ldr	r3, [sp, #28]
 8006678:	4418      	add	r0, r3
 800667a:	f010 001f 	ands.w	r0, r0, #31
 800667e:	d047      	beq.n	8006710 <_dtoa_r+0x8c8>
 8006680:	f1c0 0320 	rsb	r3, r0, #32
 8006684:	2b04      	cmp	r3, #4
 8006686:	dd3b      	ble.n	8006700 <_dtoa_r+0x8b8>
 8006688:	9b07      	ldr	r3, [sp, #28]
 800668a:	f1c0 001c 	rsb	r0, r0, #28
 800668e:	4481      	add	r9, r0
 8006690:	4405      	add	r5, r0
 8006692:	4403      	add	r3, r0
 8006694:	9307      	str	r3, [sp, #28]
 8006696:	f1b9 0f00 	cmp.w	r9, #0
 800669a:	dd05      	ble.n	80066a8 <_dtoa_r+0x860>
 800669c:	4659      	mov	r1, fp
 800669e:	464a      	mov	r2, r9
 80066a0:	4620      	mov	r0, r4
 80066a2:	f000 fd05 	bl	80070b0 <__lshift>
 80066a6:	4683      	mov	fp, r0
 80066a8:	9b07      	ldr	r3, [sp, #28]
 80066aa:	2b00      	cmp	r3, #0
 80066ac:	dd05      	ble.n	80066ba <_dtoa_r+0x872>
 80066ae:	4631      	mov	r1, r6
 80066b0:	461a      	mov	r2, r3
 80066b2:	4620      	mov	r0, r4
 80066b4:	f000 fcfc 	bl	80070b0 <__lshift>
 80066b8:	4606      	mov	r6, r0
 80066ba:	9b0d      	ldr	r3, [sp, #52]	; 0x34
 80066bc:	b353      	cbz	r3, 8006714 <_dtoa_r+0x8cc>
 80066be:	4631      	mov	r1, r6
 80066c0:	4658      	mov	r0, fp
 80066c2:	f000 fd49 	bl	8007158 <__mcmp>
 80066c6:	2800      	cmp	r0, #0
 80066c8:	da24      	bge.n	8006714 <_dtoa_r+0x8cc>
 80066ca:	2300      	movs	r3, #0
 80066cc:	4659      	mov	r1, fp
 80066ce:	220a      	movs	r2, #10
 80066d0:	4620      	mov	r0, r4
 80066d2:	f000 fb77 	bl	8006dc4 <__multadd>
 80066d6:	9b09      	ldr	r3, [sp, #36]	; 0x24
 80066d8:	f10a 3aff 	add.w	sl, sl, #4294967295
 80066dc:	4683      	mov	fp, r0
 80066de:	2b00      	cmp	r3, #0
 80066e0:	f000 8144 	beq.w	800696c <_dtoa_r+0xb24>
 80066e4:	2300      	movs	r3, #0
 80066e6:	4639      	mov	r1, r7
 80066e8:	220a      	movs	r2, #10
 80066ea:	4620      	mov	r0, r4
 80066ec:	f000 fb6a 	bl	8006dc4 <__multadd>
 80066f0:	9b04      	ldr	r3, [sp, #16]
 80066f2:	4607      	mov	r7, r0
 80066f4:	2b00      	cmp	r3, #0
 80066f6:	dc4d      	bgt.n	8006794 <_dtoa_r+0x94c>
 80066f8:	9b1e      	ldr	r3, [sp, #120]	; 0x78
 80066fa:	2b02      	cmp	r3, #2
 80066fc:	dd4a      	ble.n	8006794 <_dtoa_r+0x94c>
 80066fe:	e011      	b.n	8006724 <_dtoa_r+0x8dc>
 8006700:	d0c9      	beq.n	8006696 <_dtoa_r+0x84e>
 8006702:	9a07      	ldr	r2, [sp, #28]
 8006704:	331c      	adds	r3, #28
 8006706:	441a      	add	r2, r3
 8006708:	4499      	add	r9, r3
 800670a:	441d      	add	r5, r3
 800670c:	4613      	mov	r3, r2
 800670e:	e7c1      	b.n	8006694 <_dtoa_r+0x84c>
 8006710:	4603      	mov	r3, r0
 8006712:	e7f6      	b.n	8006702 <_dtoa_r+0x8ba>
 8006714:	f1b8 0f00 	cmp.w	r8, #0
 8006718:	dc36      	bgt.n	8006788 <_dtoa_r+0x940>
 800671a:	9b1e      	ldr	r3, [sp, #120]	; 0x78
 800671c:	2b02      	cmp	r3, #2
 800671e:	dd33      	ble.n	8006788 <_dtoa_r+0x940>
 8006720:	f8cd 8010 	str.w	r8, [sp, #16]
 8006724:	9b04      	ldr	r3, [sp, #16]
 8006726:	b963      	cbnz	r3, 8006742 <_dtoa_r+0x8fa>
 8006728:	4631      	mov	r1, r6
 800672a:	2205      	movs	r2, #5
 800672c:	4620      	mov	r0, r4
 800672e:	f000 fb49 	bl	8006dc4 <__multadd>
 8006732:	4601      	mov	r1, r0
 8006734:	4606      	mov	r6, r0
 8006736:	4658      	mov	r0, fp
 8006738:	f000 fd0e 	bl	8007158 <__mcmp>
 800673c:	2800      	cmp	r0, #0
 800673e:	f73f add3 	bgt.w	80062e8 <_dtoa_r+0x4a0>
 8006742:	9b1f      	ldr	r3, [sp, #124]	; 0x7c
 8006744:	9d06      	ldr	r5, [sp, #24]
 8006746:	ea6f 0a03 	mvn.w	sl, r3
 800674a:	f04f 0900 	mov.w	r9, #0
 800674e:	4631      	mov	r1, r6
 8006750:	4620      	mov	r0, r4
 8006752:	f000 fb20 	bl	8006d96 <_Bfree>
 8006756:	2f00      	cmp	r7, #0
 8006758:	f43f aebd 	beq.w	80064d6 <_dtoa_r+0x68e>
 800675c:	f1b9 0f00 	cmp.w	r9, #0
 8006760:	d005      	beq.n	800676e <_dtoa_r+0x926>
 8006762:	45b9      	cmp	r9, r7
 8006764:	d003      	beq.n	800676e <_dtoa_r+0x926>
 8006766:	4649      	mov	r1, r9
 8006768:	4620      	mov	r0, r4
 800676a:	f000 fb14 	bl	8006d96 <_Bfree>
 800676e:	4639      	mov	r1, r7
 8006770:	4620      	mov	r0, r4
 8006772:	f000 fb10 	bl	8006d96 <_Bfree>
 8006776:	e6ae      	b.n	80064d6 <_dtoa_r+0x68e>
 8006778:	2600      	movs	r6, #0
 800677a:	4637      	mov	r7, r6
 800677c:	e7e1      	b.n	8006742 <_dtoa_r+0x8fa>
 800677e:	46ba      	mov	sl, r7
 8006780:	4637      	mov	r7, r6
 8006782:	e5b1      	b.n	80062e8 <_dtoa_r+0x4a0>
 8006784:	40240000 	.word	0x40240000
 8006788:	9b09      	ldr	r3, [sp, #36]	; 0x24
 800678a:	f8cd 8010 	str.w	r8, [sp, #16]
 800678e:	2b00      	cmp	r3, #0
 8006790:	f000 80f3 	beq.w	800697a <_dtoa_r+0xb32>
 8006794:	2d00      	cmp	r5, #0
 8006796:	dd05      	ble.n	80067a4 <_dtoa_r+0x95c>
 8006798:	4639      	mov	r1, r7
 800679a:	462a      	mov	r2, r5
 800679c:	4620      	mov	r0, r4
 800679e:	f000 fc87 	bl	80070b0 <__lshift>
 80067a2:	4607      	mov	r7, r0
 80067a4:	9b08      	ldr	r3, [sp, #32]
 80067a6:	2b00      	cmp	r3, #0
 80067a8:	d04c      	beq.n	8006844 <_dtoa_r+0x9fc>
 80067aa:	6879      	ldr	r1, [r7, #4]
 80067ac:	4620      	mov	r0, r4
 80067ae:	f000 fabe 	bl	8006d2e <_Balloc>
 80067b2:	4605      	mov	r5, r0
 80067b4:	693a      	ldr	r2, [r7, #16]
 80067b6:	f107 010c 	add.w	r1, r7, #12
 80067ba:	3202      	adds	r2, #2
 80067bc:	0092      	lsls	r2, r2, #2
 80067be:	300c      	adds	r0, #12
 80067c0:	f000 faaa 	bl	8006d18 <memcpy>
 80067c4:	2201      	movs	r2, #1
 80067c6:	4629      	mov	r1, r5
 80067c8:	4620      	mov	r0, r4
 80067ca:	f000 fc71 	bl	80070b0 <__lshift>
 80067ce:	46b9      	mov	r9, r7
 80067d0:	4607      	mov	r7, r0
 80067d2:	9b06      	ldr	r3, [sp, #24]
 80067d4:	9307      	str	r3, [sp, #28]
 80067d6:	9b02      	ldr	r3, [sp, #8]
 80067d8:	f003 0301 	and.w	r3, r3, #1
 80067dc:	9308      	str	r3, [sp, #32]
 80067de:	4631      	mov	r1, r6
 80067e0:	4658      	mov	r0, fp
 80067e2:	f7ff faa1 	bl	8005d28 <quorem>
 80067e6:	4649      	mov	r1, r9
 80067e8:	4605      	mov	r5, r0
 80067ea:	f100 0830 	add.w	r8, r0, #48	; 0x30
 80067ee:	4658      	mov	r0, fp
 80067f0:	f000 fcb2 	bl	8007158 <__mcmp>
 80067f4:	463a      	mov	r2, r7
 80067f6:	9002      	str	r0, [sp, #8]
 80067f8:	4631      	mov	r1, r6
 80067fa:	4620      	mov	r0, r4
 80067fc:	f000 fcc6 	bl	800718c <__mdiff>
 8006800:	68c3      	ldr	r3, [r0, #12]
 8006802:	4602      	mov	r2, r0
 8006804:	bb03      	cbnz	r3, 8006848 <_dtoa_r+0xa00>
 8006806:	4601      	mov	r1, r0
 8006808:	9009      	str	r0, [sp, #36]	; 0x24
 800680a:	4658      	mov	r0, fp
 800680c:	f000 fca4 	bl	8007158 <__mcmp>
 8006810:	4603      	mov	r3, r0
 8006812:	9a09      	ldr	r2, [sp, #36]	; 0x24
 8006814:	4611      	mov	r1, r2
 8006816:	4620      	mov	r0, r4
 8006818:	9309      	str	r3, [sp, #36]	; 0x24
 800681a:	f000 fabc 	bl	8006d96 <_Bfree>
 800681e:	9b09      	ldr	r3, [sp, #36]	; 0x24
 8006820:	b9a3      	cbnz	r3, 800684c <_dtoa_r+0xa04>
 8006822:	9a1e      	ldr	r2, [sp, #120]	; 0x78
 8006824:	b992      	cbnz	r2, 800684c <_dtoa_r+0xa04>
 8006826:	9a08      	ldr	r2, [sp, #32]
 8006828:	b982      	cbnz	r2, 800684c <_dtoa_r+0xa04>
 800682a:	f1b8 0f39 	cmp.w	r8, #57	; 0x39
 800682e:	d029      	beq.n	8006884 <_dtoa_r+0xa3c>
 8006830:	9b02      	ldr	r3, [sp, #8]
 8006832:	2b00      	cmp	r3, #0
 8006834:	dd01      	ble.n	800683a <_dtoa_r+0x9f2>
 8006836:	f105 0831 	add.w	r8, r5, #49	; 0x31
 800683a:	9b07      	ldr	r3, [sp, #28]
 800683c:	1c5d      	adds	r5, r3, #1
 800683e:	f883 8000 	strb.w	r8, [r3]
 8006842:	e784      	b.n	800674e <_dtoa_r+0x906>
 8006844:	4638      	mov	r0, r7
 8006846:	e7c2      	b.n	80067ce <_dtoa_r+0x986>
 8006848:	2301      	movs	r3, #1
 800684a:	e7e3      	b.n	8006814 <_dtoa_r+0x9cc>
 800684c:	9a02      	ldr	r2, [sp, #8]
 800684e:	2a00      	cmp	r2, #0
 8006850:	db04      	blt.n	800685c <_dtoa_r+0xa14>
 8006852:	d123      	bne.n	800689c <_dtoa_r+0xa54>
 8006854:	9a1e      	ldr	r2, [sp, #120]	; 0x78
 8006856:	bb0a      	cbnz	r2, 800689c <_dtoa_r+0xa54>
 8006858:	9a08      	ldr	r2, [sp, #32]
 800685a:	b9fa      	cbnz	r2, 800689c <_dtoa_r+0xa54>
 800685c:	2b00      	cmp	r3, #0
 800685e:	ddec      	ble.n	800683a <_dtoa_r+0x9f2>
 8006860:	4659      	mov	r1, fp
 8006862:	2201      	movs	r2, #1
 8006864:	4620      	mov	r0, r4
 8006866:	f000 fc23 	bl	80070b0 <__lshift>
 800686a:	4631      	mov	r1, r6
 800686c:	4683      	mov	fp, r0
 800686e:	f000 fc73 	bl	8007158 <__mcmp>
 8006872:	2800      	cmp	r0, #0
 8006874:	dc03      	bgt.n	800687e <_dtoa_r+0xa36>
 8006876:	d1e0      	bne.n	800683a <_dtoa_r+0x9f2>
 8006878:	f018 0f01 	tst.w	r8, #1
 800687c:	d0dd      	beq.n	800683a <_dtoa_r+0x9f2>
 800687e:	f1b8 0f39 	cmp.w	r8, #57	; 0x39
 8006882:	d1d8      	bne.n	8006836 <_dtoa_r+0x9ee>
 8006884:	9b07      	ldr	r3, [sp, #28]
 8006886:	9a07      	ldr	r2, [sp, #28]
 8006888:	1c5d      	adds	r5, r3, #1
 800688a:	2339      	movs	r3, #57	; 0x39
 800688c:	7013      	strb	r3, [r2, #0]
 800688e:	f815 3c01 	ldrb.w	r3, [r5, #-1]
 8006892:	1e6a      	subs	r2, r5, #1
 8006894:	2b39      	cmp	r3, #57	; 0x39
 8006896:	d04d      	beq.n	8006934 <_dtoa_r+0xaec>
 8006898:	3301      	adds	r3, #1
 800689a:	e052      	b.n	8006942 <_dtoa_r+0xafa>
 800689c:	9a07      	ldr	r2, [sp, #28]
 800689e:	2b00      	cmp	r3, #0
 80068a0:	f102 0501 	add.w	r5, r2, #1
 80068a4:	dd06      	ble.n	80068b4 <_dtoa_r+0xa6c>
 80068a6:	f1b8 0f39 	cmp.w	r8, #57	; 0x39
 80068aa:	d0eb      	beq.n	8006884 <_dtoa_r+0xa3c>
 80068ac:	f108 0801 	add.w	r8, r8, #1
 80068b0:	9b07      	ldr	r3, [sp, #28]
 80068b2:	e7c4      	b.n	800683e <_dtoa_r+0x9f6>
 80068b4:	9b06      	ldr	r3, [sp, #24]
 80068b6:	9a04      	ldr	r2, [sp, #16]
 80068b8:	1aeb      	subs	r3, r5, r3
 80068ba:	4293      	cmp	r3, r2
 80068bc:	f805 8c01 	strb.w	r8, [r5, #-1]
 80068c0:	d021      	beq.n	8006906 <_dtoa_r+0xabe>
 80068c2:	4659      	mov	r1, fp
 80068c4:	2300      	movs	r3, #0
 80068c6:	220a      	movs	r2, #10
 80068c8:	4620      	mov	r0, r4
 80068ca:	f000 fa7b 	bl	8006dc4 <__multadd>
 80068ce:	45b9      	cmp	r9, r7
 80068d0:	4683      	mov	fp, r0
 80068d2:	f04f 0300 	mov.w	r3, #0
 80068d6:	f04f 020a 	mov.w	r2, #10
 80068da:	4649      	mov	r1, r9
 80068dc:	4620      	mov	r0, r4
 80068de:	d105      	bne.n	80068ec <_dtoa_r+0xaa4>
 80068e0:	f000 fa70 	bl	8006dc4 <__multadd>
 80068e4:	4681      	mov	r9, r0
 80068e6:	4607      	mov	r7, r0
 80068e8:	9507      	str	r5, [sp, #28]
 80068ea:	e778      	b.n	80067de <_dtoa_r+0x996>
 80068ec:	f000 fa6a 	bl	8006dc4 <__multadd>
 80068f0:	4639      	mov	r1, r7
 80068f2:	4681      	mov	r9, r0
 80068f4:	2300      	movs	r3, #0
 80068f6:	220a      	movs	r2, #10
 80068f8:	4620      	mov	r0, r4
 80068fa:	f000 fa63 	bl	8006dc4 <__multadd>
 80068fe:	4607      	mov	r7, r0
 8006900:	e7f2      	b.n	80068e8 <_dtoa_r+0xaa0>
 8006902:	f04f 0900 	mov.w	r9, #0
 8006906:	4659      	mov	r1, fp
 8006908:	2201      	movs	r2, #1
 800690a:	4620      	mov	r0, r4
 800690c:	f000 fbd0 	bl	80070b0 <__lshift>
 8006910:	4631      	mov	r1, r6
 8006912:	4683      	mov	fp, r0
 8006914:	f000 fc20 	bl	8007158 <__mcmp>
 8006918:	2800      	cmp	r0, #0
 800691a:	dcb8      	bgt.n	800688e <_dtoa_r+0xa46>
 800691c:	d102      	bne.n	8006924 <_dtoa_r+0xadc>
 800691e:	f018 0f01 	tst.w	r8, #1
 8006922:	d1b4      	bne.n	800688e <_dtoa_r+0xa46>
 8006924:	f815 3c01 	ldrb.w	r3, [r5, #-1]
 8006928:	1e6a      	subs	r2, r5, #1
 800692a:	2b30      	cmp	r3, #48	; 0x30
 800692c:	f47f af0f 	bne.w	800674e <_dtoa_r+0x906>
 8006930:	4615      	mov	r5, r2
 8006932:	e7f7      	b.n	8006924 <_dtoa_r+0xadc>
 8006934:	9b06      	ldr	r3, [sp, #24]
 8006936:	4293      	cmp	r3, r2
 8006938:	d105      	bne.n	8006946 <_dtoa_r+0xafe>
 800693a:	2331      	movs	r3, #49	; 0x31
 800693c:	9a06      	ldr	r2, [sp, #24]
 800693e:	f10a 0a01 	add.w	sl, sl, #1
 8006942:	7013      	strb	r3, [r2, #0]
 8006944:	e703      	b.n	800674e <_dtoa_r+0x906>
 8006946:	4615      	mov	r5, r2
 8006948:	e7a1      	b.n	800688e <_dtoa_r+0xa46>
 800694a:	4b17      	ldr	r3, [pc, #92]	; (80069a8 <_dtoa_r+0xb60>)
 800694c:	f7ff bae1 	b.w	8005f12 <_dtoa_r+0xca>
 8006950:	9b22      	ldr	r3, [sp, #136]	; 0x88
 8006952:	2b00      	cmp	r3, #0
 8006954:	f47f aabb 	bne.w	8005ece <_dtoa_r+0x86>
 8006958:	4b14      	ldr	r3, [pc, #80]	; (80069ac <_dtoa_r+0xb64>)
 800695a:	f7ff bada 	b.w	8005f12 <_dtoa_r+0xca>
 800695e:	9b1e      	ldr	r3, [sp, #120]	; 0x78
 8006960:	2b01      	cmp	r3, #1
 8006962:	f77f ae3f 	ble.w	80065e4 <_dtoa_r+0x79c>
 8006966:	9b0c      	ldr	r3, [sp, #48]	; 0x30
 8006968:	9308      	str	r3, [sp, #32]
 800696a:	e653      	b.n	8006614 <_dtoa_r+0x7cc>
 800696c:	9b04      	ldr	r3, [sp, #16]
 800696e:	2b00      	cmp	r3, #0
 8006970:	dc03      	bgt.n	800697a <_dtoa_r+0xb32>
 8006972:	9b1e      	ldr	r3, [sp, #120]	; 0x78
 8006974:	2b02      	cmp	r3, #2
 8006976:	f73f aed5 	bgt.w	8006724 <_dtoa_r+0x8dc>
 800697a:	9d06      	ldr	r5, [sp, #24]
 800697c:	4631      	mov	r1, r6
 800697e:	4658      	mov	r0, fp
 8006980:	f7ff f9d2 	bl	8005d28 <quorem>
 8006984:	9b06      	ldr	r3, [sp, #24]
 8006986:	f100 0830 	add.w	r8, r0, #48	; 0x30
 800698a:	f805 8b01 	strb.w	r8, [r5], #1
 800698e:	9a04      	ldr	r2, [sp, #16]
 8006990:	1aeb      	subs	r3, r5, r3
 8006992:	429a      	cmp	r2, r3
 8006994:	ddb5      	ble.n	8006902 <_dtoa_r+0xaba>
 8006996:	4659      	mov	r1, fp
 8006998:	2300      	movs	r3, #0
 800699a:	220a      	movs	r2, #10
 800699c:	4620      	mov	r0, r4
 800699e:	f000 fa11 	bl	8006dc4 <__multadd>
 80069a2:	4683      	mov	fp, r0
 80069a4:	e7ea      	b.n	800697c <_dtoa_r+0xb34>
 80069a6:	bf00      	nop
 80069a8:	0800765c 	.word	0x0800765c
 80069ac:	0800765e 	.word	0x0800765e

080069b0 <__sflush_r>:
 80069b0:	898a      	ldrh	r2, [r1, #12]
 80069b2:	e92d 41f0 	stmdb	sp!, {r4, r5, r6, r7, r8, lr}
 80069b6:	4605      	mov	r5, r0
 80069b8:	0710      	lsls	r0, r2, #28
 80069ba:	460c      	mov	r4, r1
 80069bc:	d458      	bmi.n	8006a70 <__sflush_r+0xc0>
 80069be:	684b      	ldr	r3, [r1, #4]
 80069c0:	2b00      	cmp	r3, #0
 80069c2:	dc05      	bgt.n	80069d0 <__sflush_r+0x20>
 80069c4:	6c0b      	ldr	r3, [r1, #64]	; 0x40
 80069c6:	2b00      	cmp	r3, #0
 80069c8:	dc02      	bgt.n	80069d0 <__sflush_r+0x20>
 80069ca:	2000      	movs	r0, #0
 80069cc:	e8bd 81f0 	ldmia.w	sp!, {r4, r5, r6, r7, r8, pc}
 80069d0:	6ae6      	ldr	r6, [r4, #44]	; 0x2c
 80069d2:	2e00      	cmp	r6, #0
 80069d4:	d0f9      	beq.n	80069ca <__sflush_r+0x1a>
 80069d6:	2300      	movs	r3, #0
 80069d8:	f412 5280 	ands.w	r2, r2, #4096	; 0x1000
 80069dc:	682f      	ldr	r7, [r5, #0]
 80069de:	6a21      	ldr	r1, [r4, #32]
 80069e0:	602b      	str	r3, [r5, #0]
 80069e2:	d032      	beq.n	8006a4a <__sflush_r+0x9a>
 80069e4:	6d60      	ldr	r0, [r4, #84]	; 0x54
 80069e6:	89a3      	ldrh	r3, [r4, #12]
 80069e8:	075a      	lsls	r2, r3, #29
 80069ea:	d505      	bpl.n	80069f8 <__sflush_r+0x48>
 80069ec:	6863      	ldr	r3, [r4, #4]
 80069ee:	1ac0      	subs	r0, r0, r3
 80069f0:	6b63      	ldr	r3, [r4, #52]	; 0x34
 80069f2:	b10b      	cbz	r3, 80069f8 <__sflush_r+0x48>
 80069f4:	6c23      	ldr	r3, [r4, #64]	; 0x40
 80069f6:	1ac0      	subs	r0, r0, r3
 80069f8:	2300      	movs	r3, #0
 80069fa:	4602      	mov	r2, r0
 80069fc:	6ae6      	ldr	r6, [r4, #44]	; 0x2c
 80069fe:	6a21      	ldr	r1, [r4, #32]
 8006a00:	4628      	mov	r0, r5
 8006a02:	47b0      	blx	r6
 8006a04:	1c43      	adds	r3, r0, #1
 8006a06:	89a3      	ldrh	r3, [r4, #12]
 8006a08:	d106      	bne.n	8006a18 <__sflush_r+0x68>
 8006a0a:	6829      	ldr	r1, [r5, #0]
 8006a0c:	291d      	cmp	r1, #29
 8006a0e:	d848      	bhi.n	8006aa2 <__sflush_r+0xf2>
 8006a10:	4a29      	ldr	r2, [pc, #164]	; (8006ab8 <__sflush_r+0x108>)
 8006a12:	40ca      	lsrs	r2, r1
 8006a14:	07d6      	lsls	r6, r2, #31
 8006a16:	d544      	bpl.n	8006aa2 <__sflush_r+0xf2>
 8006a18:	2200      	movs	r2, #0
 8006a1a:	6062      	str	r2, [r4, #4]
 8006a1c:	6922      	ldr	r2, [r4, #16]
 8006a1e:	04d9      	lsls	r1, r3, #19
 8006a20:	6022      	str	r2, [r4, #0]
 8006a22:	d504      	bpl.n	8006a2e <__sflush_r+0x7e>
 8006a24:	1c42      	adds	r2, r0, #1
 8006a26:	d101      	bne.n	8006a2c <__sflush_r+0x7c>
 8006a28:	682b      	ldr	r3, [r5, #0]
 8006a2a:	b903      	cbnz	r3, 8006a2e <__sflush_r+0x7e>
 8006a2c:	6560      	str	r0, [r4, #84]	; 0x54
 8006a2e:	6b61      	ldr	r1, [r4, #52]	; 0x34
 8006a30:	602f      	str	r7, [r5, #0]
 8006a32:	2900      	cmp	r1, #0
 8006a34:	d0c9      	beq.n	80069ca <__sflush_r+0x1a>
 8006a36:	f104 0344 	add.w	r3, r4, #68	; 0x44
 8006a3a:	4299      	cmp	r1, r3
 8006a3c:	d002      	beq.n	8006a44 <__sflush_r+0x94>
 8006a3e:	4628      	mov	r0, r5
 8006a40:	f000 fc60 	bl	8007304 <_free_r>
 8006a44:	2000      	movs	r0, #0
 8006a46:	6360      	str	r0, [r4, #52]	; 0x34
 8006a48:	e7c0      	b.n	80069cc <__sflush_r+0x1c>
 8006a4a:	2301      	movs	r3, #1
 8006a4c:	4628      	mov	r0, r5
 8006a4e:	47b0      	blx	r6
 8006a50:	1c41      	adds	r1, r0, #1
 8006a52:	d1c8      	bne.n	80069e6 <__sflush_r+0x36>
 8006a54:	682b      	ldr	r3, [r5, #0]
 8006a56:	2b00      	cmp	r3, #0
 8006a58:	d0c5      	beq.n	80069e6 <__sflush_r+0x36>
 8006a5a:	2b1d      	cmp	r3, #29
 8006a5c:	d001      	beq.n	8006a62 <__sflush_r+0xb2>
 8006a5e:	2b16      	cmp	r3, #22
 8006a60:	d101      	bne.n	8006a66 <__sflush_r+0xb6>
 8006a62:	602f      	str	r7, [r5, #0]
 8006a64:	e7b1      	b.n	80069ca <__sflush_r+0x1a>
 8006a66:	89a3      	ldrh	r3, [r4, #12]
 8006a68:	f043 0340 	orr.w	r3, r3, #64	; 0x40
 8006a6c:	81a3      	strh	r3, [r4, #12]
 8006a6e:	e7ad      	b.n	80069cc <__sflush_r+0x1c>
 8006a70:	690f      	ldr	r7, [r1, #16]
 8006a72:	2f00      	cmp	r7, #0
 8006a74:	d0a9      	beq.n	80069ca <__sflush_r+0x1a>
 8006a76:	0793      	lsls	r3, r2, #30
 8006a78:	bf18      	it	ne
 8006a7a:	2300      	movne	r3, #0
 8006a7c:	680e      	ldr	r6, [r1, #0]
 8006a7e:	bf08      	it	eq
 8006a80:	694b      	ldreq	r3, [r1, #20]
 8006a82:	eba6 0807 	sub.w	r8, r6, r7
 8006a86:	600f      	str	r7, [r1, #0]
 8006a88:	608b      	str	r3, [r1, #8]
 8006a8a:	f1b8 0f00 	cmp.w	r8, #0
 8006a8e:	dd9c      	ble.n	80069ca <__sflush_r+0x1a>
 8006a90:	4643      	mov	r3, r8
 8006a92:	463a      	mov	r2, r7
 8006a94:	6a21      	ldr	r1, [r4, #32]
 8006a96:	4628      	mov	r0, r5
 8006a98:	6aa6      	ldr	r6, [r4, #40]	; 0x28
 8006a9a:	47b0      	blx	r6
 8006a9c:	2800      	cmp	r0, #0
 8006a9e:	dc06      	bgt.n	8006aae <__sflush_r+0xfe>
 8006aa0:	89a3      	ldrh	r3, [r4, #12]
 8006aa2:	f043 0340 	orr.w	r3, r3, #64	; 0x40
 8006aa6:	81a3      	strh	r3, [r4, #12]
 8006aa8:	f04f 30ff 	mov.w	r0, #4294967295
 8006aac:	e78e      	b.n	80069cc <__sflush_r+0x1c>
 8006aae:	4407      	add	r7, r0
 8006ab0:	eba8 0800 	sub.w	r8, r8, r0
 8006ab4:	e7e9      	b.n	8006a8a <__sflush_r+0xda>
 8006ab6:	bf00      	nop
 8006ab8:	20400001 	.word	0x20400001

08006abc <_fflush_r>:
 8006abc:	b538      	push	{r3, r4, r5, lr}
 8006abe:	690b      	ldr	r3, [r1, #16]
 8006ac0:	4605      	mov	r5, r0
 8006ac2:	460c      	mov	r4, r1
 8006ac4:	b1db      	cbz	r3, 8006afe <_fflush_r+0x42>
 8006ac6:	b118      	cbz	r0, 8006ad0 <_fflush_r+0x14>
 8006ac8:	6983      	ldr	r3, [r0, #24]
 8006aca:	b90b      	cbnz	r3, 8006ad0 <_fflush_r+0x14>
 8006acc:	f000 f860 	bl	8006b90 <__sinit>
 8006ad0:	4b0c      	ldr	r3, [pc, #48]	; (8006b04 <_fflush_r+0x48>)
 8006ad2:	429c      	cmp	r4, r3
 8006ad4:	d109      	bne.n	8006aea <_fflush_r+0x2e>
 8006ad6:	686c      	ldr	r4, [r5, #4]
 8006ad8:	f9b4 300c 	ldrsh.w	r3, [r4, #12]
 8006adc:	b17b      	cbz	r3, 8006afe <_fflush_r+0x42>
 8006ade:	4621      	mov	r1, r4
 8006ae0:	4628      	mov	r0, r5
 8006ae2:	e8bd 4038 	ldmia.w	sp!, {r3, r4, r5, lr}
 8006ae6:	f7ff bf63 	b.w	80069b0 <__sflush_r>
 8006aea:	4b07      	ldr	r3, [pc, #28]	; (8006b08 <_fflush_r+0x4c>)
 8006aec:	429c      	cmp	r4, r3
 8006aee:	d101      	bne.n	8006af4 <_fflush_r+0x38>
 8006af0:	68ac      	ldr	r4, [r5, #8]
 8006af2:	e7f1      	b.n	8006ad8 <_fflush_r+0x1c>
 8006af4:	4b05      	ldr	r3, [pc, #20]	; (8006b0c <_fflush_r+0x50>)
 8006af6:	429c      	cmp	r4, r3
 8006af8:	bf08      	it	eq
 8006afa:	68ec      	ldreq	r4, [r5, #12]
 8006afc:	e7ec      	b.n	8006ad8 <_fflush_r+0x1c>
 8006afe:	2000      	movs	r0, #0
 8006b00:	bd38      	pop	{r3, r4, r5, pc}
 8006b02:	bf00      	nop
 8006b04:	0800768c 	.word	0x0800768c
 8006b08:	080076ac 	.word	0x080076ac
 8006b0c:	0800766c 	.word	0x0800766c

08006b10 <std>:
 8006b10:	2300      	movs	r3, #0
 8006b12:	b510      	push	{r4, lr}
 8006b14:	4604      	mov	r4, r0
 8006b16:	e9c0 3300 	strd	r3, r3, [r0]
 8006b1a:	6083      	str	r3, [r0, #8]
 8006b1c:	8181      	strh	r1, [r0, #12]
 8006b1e:	6643      	str	r3, [r0, #100]	; 0x64
 8006b20:	81c2      	strh	r2, [r0, #14]
 8006b22:	e9c0 3304 	strd	r3, r3, [r0, #16]
 8006b26:	6183      	str	r3, [r0, #24]
 8006b28:	4619      	mov	r1, r3
 8006b2a:	2208      	movs	r2, #8
 8006b2c:	305c      	adds	r0, #92	; 0x5c
 8006b2e:	f7fe fd07 	bl	8005540 <memset>
 8006b32:	4b05      	ldr	r3, [pc, #20]	; (8006b48 <std+0x38>)
 8006b34:	6224      	str	r4, [r4, #32]
 8006b36:	6263      	str	r3, [r4, #36]	; 0x24
 8006b38:	4b04      	ldr	r3, [pc, #16]	; (8006b4c <std+0x3c>)
 8006b3a:	62a3      	str	r3, [r4, #40]	; 0x28
 8006b3c:	4b04      	ldr	r3, [pc, #16]	; (8006b50 <std+0x40>)
 8006b3e:	62e3      	str	r3, [r4, #44]	; 0x2c
 8006b40:	4b04      	ldr	r3, [pc, #16]	; (8006b54 <std+0x44>)
 8006b42:	6323      	str	r3, [r4, #48]	; 0x30
 8006b44:	bd10      	pop	{r4, pc}
 8006b46:	bf00      	nop
 8006b48:	08007471 	.word	0x08007471
 8006b4c:	08007493 	.word	0x08007493
 8006b50:	080074cb 	.word	0x080074cb
 8006b54:	080074ef 	.word	0x080074ef

08006b58 <_cleanup_r>:
 8006b58:	4901      	ldr	r1, [pc, #4]	; (8006b60 <_cleanup_r+0x8>)
 8006b5a:	f000 b885 	b.w	8006c68 <_fwalk_reent>
 8006b5e:	bf00      	nop
 8006b60:	08006abd 	.word	0x08006abd

08006b64 <__sfmoreglue>:
 8006b64:	b570      	push	{r4, r5, r6, lr}
 8006b66:	2568      	movs	r5, #104	; 0x68
 8006b68:	1e4a      	subs	r2, r1, #1
 8006b6a:	4355      	muls	r5, r2
 8006b6c:	460e      	mov	r6, r1
 8006b6e:	f105 0174 	add.w	r1, r5, #116	; 0x74
 8006b72:	f000 fc13 	bl	800739c <_malloc_r>
 8006b76:	4604      	mov	r4, r0
 8006b78:	b140      	cbz	r0, 8006b8c <__sfmoreglue+0x28>
 8006b7a:	2100      	movs	r1, #0
 8006b7c:	e9c0 1600 	strd	r1, r6, [r0]
 8006b80:	300c      	adds	r0, #12
 8006b82:	60a0      	str	r0, [r4, #8]
 8006b84:	f105 0268 	add.w	r2, r5, #104	; 0x68
 8006b88:	f7fe fcda 	bl	8005540 <memset>
 8006b8c:	4620      	mov	r0, r4
 8006b8e:	bd70      	pop	{r4, r5, r6, pc}

08006b90 <__sinit>:
 8006b90:	6983      	ldr	r3, [r0, #24]
 8006b92:	b510      	push	{r4, lr}
 8006b94:	4604      	mov	r4, r0
 8006b96:	bb33      	cbnz	r3, 8006be6 <__sinit+0x56>
 8006b98:	e9c0 3312 	strd	r3, r3, [r0, #72]	; 0x48
 8006b9c:	6503      	str	r3, [r0, #80]	; 0x50
 8006b9e:	4b12      	ldr	r3, [pc, #72]	; (8006be8 <__sinit+0x58>)
 8006ba0:	4a12      	ldr	r2, [pc, #72]	; (8006bec <__sinit+0x5c>)
 8006ba2:	681b      	ldr	r3, [r3, #0]
 8006ba4:	6282      	str	r2, [r0, #40]	; 0x28
 8006ba6:	4298      	cmp	r0, r3
 8006ba8:	bf04      	itt	eq
 8006baa:	2301      	moveq	r3, #1
 8006bac:	6183      	streq	r3, [r0, #24]
 8006bae:	f000 f81f 	bl	8006bf0 <__sfp>
 8006bb2:	6060      	str	r0, [r4, #4]
 8006bb4:	4620      	mov	r0, r4
 8006bb6:	f000 f81b 	bl	8006bf0 <__sfp>
 8006bba:	60a0      	str	r0, [r4, #8]
 8006bbc:	4620      	mov	r0, r4
 8006bbe:	f000 f817 	bl	8006bf0 <__sfp>
 8006bc2:	2200      	movs	r2, #0
 8006bc4:	60e0      	str	r0, [r4, #12]
 8006bc6:	2104      	movs	r1, #4
 8006bc8:	6860      	ldr	r0, [r4, #4]
 8006bca:	f7ff ffa1 	bl	8006b10 <std>
 8006bce:	2201      	movs	r2, #1
 8006bd0:	2109      	movs	r1, #9
 8006bd2:	68a0      	ldr	r0, [r4, #8]
 8006bd4:	f7ff ff9c 	bl	8006b10 <std>
 8006bd8:	2202      	movs	r2, #2
 8006bda:	2112      	movs	r1, #18
 8006bdc:	68e0      	ldr	r0, [r4, #12]
 8006bde:	f7ff ff97 	bl	8006b10 <std>
 8006be2:	2301      	movs	r3, #1
 8006be4:	61a3      	str	r3, [r4, #24]
 8006be6:	bd10      	pop	{r4, pc}
 8006be8:	08007648 	.word	0x08007648
 8006bec:	08006b59 	.word	0x08006b59

08006bf0 <__sfp>:
 8006bf0:	b5f8      	push	{r3, r4, r5, r6, r7, lr}
 8006bf2:	4b1b      	ldr	r3, [pc, #108]	; (8006c60 <__sfp+0x70>)
 8006bf4:	4607      	mov	r7, r0
 8006bf6:	681e      	ldr	r6, [r3, #0]
 8006bf8:	69b3      	ldr	r3, [r6, #24]
 8006bfa:	b913      	cbnz	r3, 8006c02 <__sfp+0x12>
 8006bfc:	4630      	mov	r0, r6
 8006bfe:	f7ff ffc7 	bl	8006b90 <__sinit>
 8006c02:	3648      	adds	r6, #72	; 0x48
 8006c04:	e9d6 3401 	ldrd	r3, r4, [r6, #4]
 8006c08:	3b01      	subs	r3, #1
 8006c0a:	d503      	bpl.n	8006c14 <__sfp+0x24>
 8006c0c:	6833      	ldr	r3, [r6, #0]
 8006c0e:	b133      	cbz	r3, 8006c1e <__sfp+0x2e>
 8006c10:	6836      	ldr	r6, [r6, #0]
 8006c12:	e7f7      	b.n	8006c04 <__sfp+0x14>
 8006c14:	f9b4 500c 	ldrsh.w	r5, [r4, #12]
 8006c18:	b16d      	cbz	r5, 8006c36 <__sfp+0x46>
 8006c1a:	3468      	adds	r4, #104	; 0x68
 8006c1c:	e7f4      	b.n	8006c08 <__sfp+0x18>
 8006c1e:	2104      	movs	r1, #4
 8006c20:	4638      	mov	r0, r7
 8006c22:	f7ff ff9f 	bl	8006b64 <__sfmoreglue>
 8006c26:	6030      	str	r0, [r6, #0]
 8006c28:	2800      	cmp	r0, #0
 8006c2a:	d1f1      	bne.n	8006c10 <__sfp+0x20>
 8006c2c:	230c      	movs	r3, #12
 8006c2e:	4604      	mov	r4, r0
 8006c30:	603b      	str	r3, [r7, #0]
 8006c32:	4620      	mov	r0, r4
 8006c34:	bdf8      	pop	{r3, r4, r5, r6, r7, pc}
 8006c36:	4b0b      	ldr	r3, [pc, #44]	; (8006c64 <__sfp+0x74>)
 8006c38:	6665      	str	r5, [r4, #100]	; 0x64
 8006c3a:	e9c4 5500 	strd	r5, r5, [r4]
 8006c3e:	60a5      	str	r5, [r4, #8]
 8006c40:	e9c4 3503 	strd	r3, r5, [r4, #12]
 8006c44:	e9c4 5505 	strd	r5, r5, [r4, #20]
 8006c48:	2208      	movs	r2, #8
 8006c4a:	4629      	mov	r1, r5
 8006c4c:	f104 005c 	add.w	r0, r4, #92	; 0x5c
 8006c50:	f7fe fc76 	bl	8005540 <memset>
 8006c54:	e9c4 550d 	strd	r5, r5, [r4, #52]	; 0x34
 8006c58:	e9c4 5512 	strd	r5, r5, [r4, #72]	; 0x48
 8006c5c:	e7e9      	b.n	8006c32 <__sfp+0x42>
 8006c5e:	bf00      	nop
 8006c60:	08007648 	.word	0x08007648
 8006c64:	ffff0001 	.word	0xffff0001

08006c68 <_fwalk_reent>:
 8006c68:	e92d 43f8 	stmdb	sp!, {r3, r4, r5, r6, r7, r8, r9, lr}
 8006c6c:	4680      	mov	r8, r0
 8006c6e:	4689      	mov	r9, r1
 8006c70:	2600      	movs	r6, #0
 8006c72:	f100 0448 	add.w	r4, r0, #72	; 0x48
 8006c76:	b914      	cbnz	r4, 8006c7e <_fwalk_reent+0x16>
 8006c78:	4630      	mov	r0, r6
 8006c7a:	e8bd 83f8 	ldmia.w	sp!, {r3, r4, r5, r6, r7, r8, r9, pc}
 8006c7e:	e9d4 7501 	ldrd	r7, r5, [r4, #4]
 8006c82:	3f01      	subs	r7, #1
 8006c84:	d501      	bpl.n	8006c8a <_fwalk_reent+0x22>
 8006c86:	6824      	ldr	r4, [r4, #0]
 8006c88:	e7f5      	b.n	8006c76 <_fwalk_reent+0xe>
 8006c8a:	89ab      	ldrh	r3, [r5, #12]
 8006c8c:	2b01      	cmp	r3, #1
 8006c8e:	d907      	bls.n	8006ca0 <_fwalk_reent+0x38>
 8006c90:	f9b5 300e 	ldrsh.w	r3, [r5, #14]
 8006c94:	3301      	adds	r3, #1
 8006c96:	d003      	beq.n	8006ca0 <_fwalk_reent+0x38>
 8006c98:	4629      	mov	r1, r5
 8006c9a:	4640      	mov	r0, r8
 8006c9c:	47c8      	blx	r9
 8006c9e:	4306      	orrs	r6, r0
 8006ca0:	3568      	adds	r5, #104	; 0x68
 8006ca2:	e7ee      	b.n	8006c82 <_fwalk_reent+0x1a>

08006ca4 <_localeconv_r>:
 8006ca4:	4b04      	ldr	r3, [pc, #16]	; (8006cb8 <_localeconv_r+0x14>)
 8006ca6:	681b      	ldr	r3, [r3, #0]
 8006ca8:	6a18      	ldr	r0, [r3, #32]
 8006caa:	4b04      	ldr	r3, [pc, #16]	; (8006cbc <_localeconv_r+0x18>)
 8006cac:	2800      	cmp	r0, #0
 8006cae:	bf08      	it	eq
 8006cb0:	4618      	moveq	r0, r3
 8006cb2:	30f0      	adds	r0, #240	; 0xf0
 8006cb4:	4770      	bx	lr
 8006cb6:	bf00      	nop
 8006cb8:	20000018 	.word	0x20000018
 8006cbc:	2000007c 	.word	0x2000007c

08006cc0 <__swhatbuf_r>:
 8006cc0:	b570      	push	{r4, r5, r6, lr}
 8006cc2:	460e      	mov	r6, r1
 8006cc4:	f9b1 100e 	ldrsh.w	r1, [r1, #14]
 8006cc8:	b096      	sub	sp, #88	; 0x58
 8006cca:	2900      	cmp	r1, #0
 8006ccc:	4614      	mov	r4, r2
 8006cce:	461d      	mov	r5, r3
 8006cd0:	da07      	bge.n	8006ce2 <__swhatbuf_r+0x22>
 8006cd2:	2300      	movs	r3, #0
 8006cd4:	602b      	str	r3, [r5, #0]
 8006cd6:	89b3      	ldrh	r3, [r6, #12]
 8006cd8:	061a      	lsls	r2, r3, #24
 8006cda:	d410      	bmi.n	8006cfe <__swhatbuf_r+0x3e>
 8006cdc:	f44f 6380 	mov.w	r3, #1024	; 0x400
 8006ce0:	e00e      	b.n	8006d00 <__swhatbuf_r+0x40>
 8006ce2:	466a      	mov	r2, sp
 8006ce4:	f000 fc2a 	bl	800753c <_fstat_r>
 8006ce8:	2800      	cmp	r0, #0
 8006cea:	dbf2      	blt.n	8006cd2 <__swhatbuf_r+0x12>
 8006cec:	9a01      	ldr	r2, [sp, #4]
 8006cee:	f402 4270 	and.w	r2, r2, #61440	; 0xf000
 8006cf2:	f5a2 5300 	sub.w	r3, r2, #8192	; 0x2000
 8006cf6:	425a      	negs	r2, r3
 8006cf8:	415a      	adcs	r2, r3
 8006cfa:	602a      	str	r2, [r5, #0]
 8006cfc:	e7ee      	b.n	8006cdc <__swhatbuf_r+0x1c>
 8006cfe:	2340      	movs	r3, #64	; 0x40
 8006d00:	2000      	movs	r0, #0
 8006d02:	6023      	str	r3, [r4, #0]
 8006d04:	b016      	add	sp, #88	; 0x58
 8006d06:	bd70      	pop	{r4, r5, r6, pc}

08006d08 <malloc>:
 8006d08:	4b02      	ldr	r3, [pc, #8]	; (8006d14 <malloc+0xc>)
 8006d0a:	4601      	mov	r1, r0
 8006d0c:	6818      	ldr	r0, [r3, #0]
 8006d0e:	f000 bb45 	b.w	800739c <_malloc_r>
 8006d12:	bf00      	nop
 8006d14:	20000018 	.word	0x20000018

08006d18 <memcpy>:
 8006d18:	b510      	push	{r4, lr}
 8006d1a:	1e43      	subs	r3, r0, #1
 8006d1c:	440a      	add	r2, r1
 8006d1e:	4291      	cmp	r1, r2
 8006d20:	d100      	bne.n	8006d24 <memcpy+0xc>
 8006d22:	bd10      	pop	{r4, pc}
 8006d24:	f811 4b01 	ldrb.w	r4, [r1], #1
 8006d28:	f803 4f01 	strb.w	r4, [r3, #1]!
 8006d2c:	e7f7      	b.n	8006d1e <memcpy+0x6>

08006d2e <_Balloc>:
 8006d2e:	b570      	push	{r4, r5, r6, lr}
 8006d30:	6a45      	ldr	r5, [r0, #36]	; 0x24
 8006d32:	4604      	mov	r4, r0
 8006d34:	460e      	mov	r6, r1
 8006d36:	b93d      	cbnz	r5, 8006d48 <_Balloc+0x1a>
 8006d38:	2010      	movs	r0, #16
 8006d3a:	f7ff ffe5 	bl	8006d08 <malloc>
 8006d3e:	6260      	str	r0, [r4, #36]	; 0x24
 8006d40:	e9c0 5501 	strd	r5, r5, [r0, #4]
 8006d44:	6005      	str	r5, [r0, #0]
 8006d46:	60c5      	str	r5, [r0, #12]
 8006d48:	6a65      	ldr	r5, [r4, #36]	; 0x24
 8006d4a:	68eb      	ldr	r3, [r5, #12]
 8006d4c:	b183      	cbz	r3, 8006d70 <_Balloc+0x42>
 8006d4e:	6a63      	ldr	r3, [r4, #36]	; 0x24
 8006d50:	68db      	ldr	r3, [r3, #12]
 8006d52:	f853 0026 	ldr.w	r0, [r3, r6, lsl #2]
 8006d56:	b9b8      	cbnz	r0, 8006d88 <_Balloc+0x5a>
 8006d58:	2101      	movs	r1, #1
 8006d5a:	fa01 f506 	lsl.w	r5, r1, r6
 8006d5e:	1d6a      	adds	r2, r5, #5
 8006d60:	0092      	lsls	r2, r2, #2
 8006d62:	4620      	mov	r0, r4
 8006d64:	f000 fabf 	bl	80072e6 <_calloc_r>
 8006d68:	b160      	cbz	r0, 8006d84 <_Balloc+0x56>
 8006d6a:	e9c0 6501 	strd	r6, r5, [r0, #4]
 8006d6e:	e00e      	b.n	8006d8e <_Balloc+0x60>
 8006d70:	2221      	movs	r2, #33	; 0x21
 8006d72:	2104      	movs	r1, #4
 8006d74:	4620      	mov	r0, r4
 8006d76:	f000 fab6 	bl	80072e6 <_calloc_r>
 8006d7a:	6a63      	ldr	r3, [r4, #36]	; 0x24
 8006d7c:	60e8      	str	r0, [r5, #12]
 8006d7e:	68db      	ldr	r3, [r3, #12]
 8006d80:	2b00      	cmp	r3, #0
 8006d82:	d1e4      	bne.n	8006d4e <_Balloc+0x20>
 8006d84:	2000      	movs	r0, #0
 8006d86:	bd70      	pop	{r4, r5, r6, pc}
 8006d88:	6802      	ldr	r2, [r0, #0]
 8006d8a:	f843 2026 	str.w	r2, [r3, r6, lsl #2]
 8006d8e:	2300      	movs	r3, #0
 8006d90:	e9c0 3303 	strd	r3, r3, [r0, #12]
 8006d94:	e7f7      	b.n	8006d86 <_Balloc+0x58>

08006d96 <_Bfree>:
 8006d96:	b570      	push	{r4, r5, r6, lr}
 8006d98:	6a44      	ldr	r4, [r0, #36]	; 0x24
 8006d9a:	4606      	mov	r6, r0
 8006d9c:	460d      	mov	r5, r1
 8006d9e:	b93c      	cbnz	r4, 8006db0 <_Bfree+0x1a>
 8006da0:	2010      	movs	r0, #16
 8006da2:	f7ff ffb1 	bl	8006d08 <malloc>
 8006da6:	6270      	str	r0, [r6, #36]	; 0x24
 8006da8:	e9c0 4401 	strd	r4, r4, [r0, #4]
 8006dac:	6004      	str	r4, [r0, #0]
 8006dae:	60c4      	str	r4, [r0, #12]
 8006db0:	b13d      	cbz	r5, 8006dc2 <_Bfree+0x2c>
 8006db2:	6a73      	ldr	r3, [r6, #36]	; 0x24
 8006db4:	686a      	ldr	r2, [r5, #4]
 8006db6:	68db      	ldr	r3, [r3, #12]
 8006db8:	f853 1022 	ldr.w	r1, [r3, r2, lsl #2]
 8006dbc:	6029      	str	r1, [r5, #0]
 8006dbe:	f843 5022 	str.w	r5, [r3, r2, lsl #2]
 8006dc2:	bd70      	pop	{r4, r5, r6, pc}

08006dc4 <__multadd>:
 8006dc4:	e92d 41f0 	stmdb	sp!, {r4, r5, r6, r7, r8, lr}
 8006dc8:	461f      	mov	r7, r3
 8006dca:	4606      	mov	r6, r0
 8006dcc:	460c      	mov	r4, r1
 8006dce:	2300      	movs	r3, #0
 8006dd0:	690d      	ldr	r5, [r1, #16]
 8006dd2:	f101 0c14 	add.w	ip, r1, #20
 8006dd6:	f8dc 0000 	ldr.w	r0, [ip]
 8006dda:	3301      	adds	r3, #1
 8006ddc:	b281      	uxth	r1, r0
 8006dde:	fb02 7101 	mla	r1, r2, r1, r7
 8006de2:	0c00      	lsrs	r0, r0, #16
 8006de4:	0c0f      	lsrs	r7, r1, #16
 8006de6:	fb02 7000 	mla	r0, r2, r0, r7
 8006dea:	b289      	uxth	r1, r1
 8006dec:	eb01 4100 	add.w	r1, r1, r0, lsl #16
 8006df0:	429d      	cmp	r5, r3
 8006df2:	ea4f 4710 	mov.w	r7, r0, lsr #16
 8006df6:	f84c 1b04 	str.w	r1, [ip], #4
 8006dfa:	dcec      	bgt.n	8006dd6 <__multadd+0x12>
 8006dfc:	b1d7      	cbz	r7, 8006e34 <__multadd+0x70>
 8006dfe:	68a3      	ldr	r3, [r4, #8]
 8006e00:	42ab      	cmp	r3, r5
 8006e02:	dc12      	bgt.n	8006e2a <__multadd+0x66>
 8006e04:	6861      	ldr	r1, [r4, #4]
 8006e06:	4630      	mov	r0, r6
 8006e08:	3101      	adds	r1, #1
 8006e0a:	f7ff ff90 	bl	8006d2e <_Balloc>
 8006e0e:	4680      	mov	r8, r0
 8006e10:	6922      	ldr	r2, [r4, #16]
 8006e12:	f104 010c 	add.w	r1, r4, #12
 8006e16:	3202      	adds	r2, #2
 8006e18:	0092      	lsls	r2, r2, #2
 8006e1a:	300c      	adds	r0, #12
 8006e1c:	f7ff ff7c 	bl	8006d18 <memcpy>
 8006e20:	4621      	mov	r1, r4
 8006e22:	4630      	mov	r0, r6
 8006e24:	f7ff ffb7 	bl	8006d96 <_Bfree>
 8006e28:	4644      	mov	r4, r8
 8006e2a:	eb04 0385 	add.w	r3, r4, r5, lsl #2
 8006e2e:	3501      	adds	r5, #1
 8006e30:	615f      	str	r7, [r3, #20]
 8006e32:	6125      	str	r5, [r4, #16]
 8006e34:	4620      	mov	r0, r4
 8006e36:	e8bd 81f0 	ldmia.w	sp!, {r4, r5, r6, r7, r8, pc}

08006e3a <__hi0bits>:
 8006e3a:	0c02      	lsrs	r2, r0, #16
 8006e3c:	0412      	lsls	r2, r2, #16
 8006e3e:	4603      	mov	r3, r0
 8006e40:	b9b2      	cbnz	r2, 8006e70 <__hi0bits+0x36>
 8006e42:	0403      	lsls	r3, r0, #16
 8006e44:	2010      	movs	r0, #16
 8006e46:	f013 4f7f 	tst.w	r3, #4278190080	; 0xff000000
 8006e4a:	bf04      	itt	eq
 8006e4c:	021b      	lsleq	r3, r3, #8
 8006e4e:	3008      	addeq	r0, #8
 8006e50:	f013 4f70 	tst.w	r3, #4026531840	; 0xf0000000
 8006e54:	bf04      	itt	eq
 8006e56:	011b      	lsleq	r3, r3, #4
 8006e58:	3004      	addeq	r0, #4
 8006e5a:	f013 4f40 	tst.w	r3, #3221225472	; 0xc0000000
 8006e5e:	bf04      	itt	eq
 8006e60:	009b      	lsleq	r3, r3, #2
 8006e62:	3002      	addeq	r0, #2
 8006e64:	2b00      	cmp	r3, #0
 8006e66:	db06      	blt.n	8006e76 <__hi0bits+0x3c>
 8006e68:	005b      	lsls	r3, r3, #1
 8006e6a:	d503      	bpl.n	8006e74 <__hi0bits+0x3a>
 8006e6c:	3001      	adds	r0, #1
 8006e6e:	4770      	bx	lr
 8006e70:	2000      	movs	r0, #0
 8006e72:	e7e8      	b.n	8006e46 <__hi0bits+0xc>
 8006e74:	2020      	movs	r0, #32
 8006e76:	4770      	bx	lr

08006e78 <__lo0bits>:
 8006e78:	6803      	ldr	r3, [r0, #0]
 8006e7a:	4601      	mov	r1, r0
 8006e7c:	f013 0207 	ands.w	r2, r3, #7
 8006e80:	d00b      	beq.n	8006e9a <__lo0bits+0x22>
 8006e82:	07da      	lsls	r2, r3, #31
 8006e84:	d423      	bmi.n	8006ece <__lo0bits+0x56>
 8006e86:	0798      	lsls	r0, r3, #30
 8006e88:	bf49      	itett	mi
 8006e8a:	085b      	lsrmi	r3, r3, #1
 8006e8c:	089b      	lsrpl	r3, r3, #2
 8006e8e:	2001      	movmi	r0, #1
 8006e90:	600b      	strmi	r3, [r1, #0]
 8006e92:	bf5c      	itt	pl
 8006e94:	600b      	strpl	r3, [r1, #0]
 8006e96:	2002      	movpl	r0, #2
 8006e98:	4770      	bx	lr
 8006e9a:	b298      	uxth	r0, r3
 8006e9c:	b9a8      	cbnz	r0, 8006eca <__lo0bits+0x52>
 8006e9e:	2010      	movs	r0, #16
 8006ea0:	0c1b      	lsrs	r3, r3, #16
 8006ea2:	f013 0fff 	tst.w	r3, #255	; 0xff
 8006ea6:	bf04      	itt	eq
 8006ea8:	0a1b      	lsreq	r3, r3, #8
 8006eaa:	3008      	addeq	r0, #8
 8006eac:	071a      	lsls	r2, r3, #28
 8006eae:	bf04      	itt	eq
 8006eb0:	091b      	lsreq	r3, r3, #4
 8006eb2:	3004      	addeq	r0, #4
 8006eb4:	079a      	lsls	r2, r3, #30
 8006eb6:	bf04      	itt	eq
 8006eb8:	089b      	lsreq	r3, r3, #2
 8006eba:	3002      	addeq	r0, #2
 8006ebc:	07da      	lsls	r2, r3, #31
 8006ebe:	d402      	bmi.n	8006ec6 <__lo0bits+0x4e>
 8006ec0:	085b      	lsrs	r3, r3, #1
 8006ec2:	d006      	beq.n	8006ed2 <__lo0bits+0x5a>
 8006ec4:	3001      	adds	r0, #1
 8006ec6:	600b      	str	r3, [r1, #0]
 8006ec8:	4770      	bx	lr
 8006eca:	4610      	mov	r0, r2
 8006ecc:	e7e9      	b.n	8006ea2 <__lo0bits+0x2a>
 8006ece:	2000      	movs	r0, #0
 8006ed0:	4770      	bx	lr
 8006ed2:	2020      	movs	r0, #32
 8006ed4:	4770      	bx	lr

08006ed6 <__i2b>:
 8006ed6:	b510      	push	{r4, lr}
 8006ed8:	460c      	mov	r4, r1
 8006eda:	2101      	movs	r1, #1
 8006edc:	f7ff ff27 	bl	8006d2e <_Balloc>
 8006ee0:	2201      	movs	r2, #1
 8006ee2:	6144      	str	r4, [r0, #20]
 8006ee4:	6102      	str	r2, [r0, #16]
 8006ee6:	bd10      	pop	{r4, pc}

08006ee8 <__multiply>:
 8006ee8:	e92d 4ff7 	stmdb	sp!, {r0, r1, r2, r4, r5, r6, r7, r8, r9, sl, fp, lr}
 8006eec:	4614      	mov	r4, r2
 8006eee:	690a      	ldr	r2, [r1, #16]
 8006ef0:	6923      	ldr	r3, [r4, #16]
 8006ef2:	4688      	mov	r8, r1
 8006ef4:	429a      	cmp	r2, r3
 8006ef6:	bfbe      	ittt	lt
 8006ef8:	460b      	movlt	r3, r1
 8006efa:	46a0      	movlt	r8, r4
 8006efc:	461c      	movlt	r4, r3
 8006efe:	f8d8 7010 	ldr.w	r7, [r8, #16]
 8006f02:	f8d4 9010 	ldr.w	r9, [r4, #16]
 8006f06:	f8d8 3008 	ldr.w	r3, [r8, #8]
 8006f0a:	f8d8 1004 	ldr.w	r1, [r8, #4]
 8006f0e:	eb07 0609 	add.w	r6, r7, r9
 8006f12:	42b3      	cmp	r3, r6
 8006f14:	bfb8      	it	lt
 8006f16:	3101      	addlt	r1, #1
 8006f18:	f7ff ff09 	bl	8006d2e <_Balloc>
 8006f1c:	f100 0514 	add.w	r5, r0, #20
 8006f20:	462b      	mov	r3, r5
 8006f22:	2200      	movs	r2, #0
 8006f24:	eb05 0e86 	add.w	lr, r5, r6, lsl #2
 8006f28:	4573      	cmp	r3, lr
 8006f2a:	d316      	bcc.n	8006f5a <__multiply+0x72>
 8006f2c:	f104 0214 	add.w	r2, r4, #20
 8006f30:	f108 0114 	add.w	r1, r8, #20
 8006f34:	eb02 0389 	add.w	r3, r2, r9, lsl #2
 8006f38:	eb01 0787 	add.w	r7, r1, r7, lsl #2
 8006f3c:	9300      	str	r3, [sp, #0]
 8006f3e:	9b00      	ldr	r3, [sp, #0]
 8006f40:	9201      	str	r2, [sp, #4]
 8006f42:	4293      	cmp	r3, r2
 8006f44:	d80c      	bhi.n	8006f60 <__multiply+0x78>
 8006f46:	2e00      	cmp	r6, #0
 8006f48:	dd03      	ble.n	8006f52 <__multiply+0x6a>
 8006f4a:	f85e 3d04 	ldr.w	r3, [lr, #-4]!
 8006f4e:	2b00      	cmp	r3, #0
 8006f50:	d05d      	beq.n	800700e <__multiply+0x126>
 8006f52:	6106      	str	r6, [r0, #16]
 8006f54:	b003      	add	sp, #12
 8006f56:	e8bd 8ff0 	ldmia.w	sp!, {r4, r5, r6, r7, r8, r9, sl, fp, pc}
 8006f5a:	f843 2b04 	str.w	r2, [r3], #4
 8006f5e:	e7e3      	b.n	8006f28 <__multiply+0x40>
 8006f60:	f8b2 b000 	ldrh.w	fp, [r2]
 8006f64:	f1bb 0f00 	cmp.w	fp, #0
 8006f68:	d023      	beq.n	8006fb2 <__multiply+0xca>
 8006f6a:	4689      	mov	r9, r1
 8006f6c:	46ac      	mov	ip, r5
 8006f6e:	f04f 0800 	mov.w	r8, #0
 8006f72:	f859 4b04 	ldr.w	r4, [r9], #4
 8006f76:	f8dc a000 	ldr.w	sl, [ip]
 8006f7a:	b2a3      	uxth	r3, r4
 8006f7c:	fa1f fa8a 	uxth.w	sl, sl
 8006f80:	fb0b a303 	mla	r3, fp, r3, sl
 8006f84:	ea4f 4a14 	mov.w	sl, r4, lsr #16
 8006f88:	f8dc 4000 	ldr.w	r4, [ip]
 8006f8c:	4443      	add	r3, r8
 8006f8e:	ea4f 4814 	mov.w	r8, r4, lsr #16
 8006f92:	fb0b 840a 	mla	r4, fp, sl, r8
 8006f96:	46e2      	mov	sl, ip
 8006f98:	eb04 4413 	add.w	r4, r4, r3, lsr #16
 8006f9c:	b29b      	uxth	r3, r3
 8006f9e:	ea43 4304 	orr.w	r3, r3, r4, lsl #16
 8006fa2:	454f      	cmp	r7, r9
 8006fa4:	ea4f 4814 	mov.w	r8, r4, lsr #16
 8006fa8:	f84a 3b04 	str.w	r3, [sl], #4
 8006fac:	d82b      	bhi.n	8007006 <__multiply+0x11e>
 8006fae:	f8cc 8004 	str.w	r8, [ip, #4]
 8006fb2:	9b01      	ldr	r3, [sp, #4]
 8006fb4:	3204      	adds	r2, #4
 8006fb6:	f8b3 a002 	ldrh.w	sl, [r3, #2]
 8006fba:	f1ba 0f00 	cmp.w	sl, #0
 8006fbe:	d020      	beq.n	8007002 <__multiply+0x11a>
 8006fc0:	4689      	mov	r9, r1
 8006fc2:	46a8      	mov	r8, r5
 8006fc4:	f04f 0b00 	mov.w	fp, #0
 8006fc8:	682b      	ldr	r3, [r5, #0]
 8006fca:	f8b9 c000 	ldrh.w	ip, [r9]
 8006fce:	f8b8 4002 	ldrh.w	r4, [r8, #2]
 8006fd2:	b29b      	uxth	r3, r3
 8006fd4:	fb0a 440c 	mla	r4, sl, ip, r4
 8006fd8:	46c4      	mov	ip, r8
 8006fda:	445c      	add	r4, fp
 8006fdc:	ea43 4304 	orr.w	r3, r3, r4, lsl #16
 8006fe0:	f84c 3b04 	str.w	r3, [ip], #4
 8006fe4:	f859 3b04 	ldr.w	r3, [r9], #4
 8006fe8:	f8b8 b004 	ldrh.w	fp, [r8, #4]
 8006fec:	0c1b      	lsrs	r3, r3, #16
 8006fee:	fb0a b303 	mla	r3, sl, r3, fp
 8006ff2:	454f      	cmp	r7, r9
 8006ff4:	eb03 4314 	add.w	r3, r3, r4, lsr #16
 8006ff8:	ea4f 4b13 	mov.w	fp, r3, lsr #16
 8006ffc:	d805      	bhi.n	800700a <__multiply+0x122>
 8006ffe:	f8c8 3004 	str.w	r3, [r8, #4]
 8007002:	3504      	adds	r5, #4
 8007004:	e79b      	b.n	8006f3e <__multiply+0x56>
 8007006:	46d4      	mov	ip, sl
 8007008:	e7b3      	b.n	8006f72 <__multiply+0x8a>
 800700a:	46e0      	mov	r8, ip
 800700c:	e7dd      	b.n	8006fca <__multiply+0xe2>
 800700e:	3e01      	subs	r6, #1
 8007010:	e799      	b.n	8006f46 <__multiply+0x5e>
	...

08007014 <__pow5mult>:
 8007014:	e92d 43f8 	stmdb	sp!, {r3, r4, r5, r6, r7, r8, r9, lr}
 8007018:	4615      	mov	r5, r2
 800701a:	f012 0203 	ands.w	r2, r2, #3
 800701e:	4606      	mov	r6, r0
 8007020:	460f      	mov	r7, r1
 8007022:	d007      	beq.n	8007034 <__pow5mult+0x20>
 8007024:	4c21      	ldr	r4, [pc, #132]	; (80070ac <__pow5mult+0x98>)
 8007026:	3a01      	subs	r2, #1
 8007028:	2300      	movs	r3, #0
 800702a:	f854 2022 	ldr.w	r2, [r4, r2, lsl #2]
 800702e:	f7ff fec9 	bl	8006dc4 <__multadd>
 8007032:	4607      	mov	r7, r0
 8007034:	10ad      	asrs	r5, r5, #2
 8007036:	d035      	beq.n	80070a4 <__pow5mult+0x90>
 8007038:	6a74      	ldr	r4, [r6, #36]	; 0x24
 800703a:	b93c      	cbnz	r4, 800704c <__pow5mult+0x38>
 800703c:	2010      	movs	r0, #16
 800703e:	f7ff fe63 	bl	8006d08 <malloc>
 8007042:	6270      	str	r0, [r6, #36]	; 0x24
 8007044:	e9c0 4401 	strd	r4, r4, [r0, #4]
 8007048:	6004      	str	r4, [r0, #0]
 800704a:	60c4      	str	r4, [r0, #12]
 800704c:	f8d6 8024 	ldr.w	r8, [r6, #36]	; 0x24
 8007050:	f8d8 4008 	ldr.w	r4, [r8, #8]
 8007054:	b94c      	cbnz	r4, 800706a <__pow5mult+0x56>
 8007056:	f240 2171 	movw	r1, #625	; 0x271
 800705a:	4630      	mov	r0, r6
 800705c:	f7ff ff3b 	bl	8006ed6 <__i2b>
 8007060:	2300      	movs	r3, #0
 8007062:	4604      	mov	r4, r0
 8007064:	f8c8 0008 	str.w	r0, [r8, #8]
 8007068:	6003      	str	r3, [r0, #0]
 800706a:	f04f 0800 	mov.w	r8, #0
 800706e:	07eb      	lsls	r3, r5, #31
 8007070:	d50a      	bpl.n	8007088 <__pow5mult+0x74>
 8007072:	4639      	mov	r1, r7
 8007074:	4622      	mov	r2, r4
 8007076:	4630      	mov	r0, r6
 8007078:	f7ff ff36 	bl	8006ee8 <__multiply>
 800707c:	4681      	mov	r9, r0
 800707e:	4639      	mov	r1, r7
 8007080:	4630      	mov	r0, r6
 8007082:	f7ff fe88 	bl	8006d96 <_Bfree>
 8007086:	464f      	mov	r7, r9
 8007088:	106d      	asrs	r5, r5, #1
 800708a:	d00b      	beq.n	80070a4 <__pow5mult+0x90>
 800708c:	6820      	ldr	r0, [r4, #0]
 800708e:	b938      	cbnz	r0, 80070a0 <__pow5mult+0x8c>
 8007090:	4622      	mov	r2, r4
 8007092:	4621      	mov	r1, r4
 8007094:	4630      	mov	r0, r6
 8007096:	f7ff ff27 	bl	8006ee8 <__multiply>
 800709a:	6020      	str	r0, [r4, #0]
 800709c:	f8c0 8000 	str.w	r8, [r0]
 80070a0:	4604      	mov	r4, r0
 80070a2:	e7e4      	b.n	800706e <__pow5mult+0x5a>
 80070a4:	4638      	mov	r0, r7
 80070a6:	e8bd 83f8 	ldmia.w	sp!, {r3, r4, r5, r6, r7, r8, r9, pc}
 80070aa:	bf00      	nop
 80070ac:	080077c0 	.word	0x080077c0

080070b0 <__lshift>:
 80070b0:	e92d 47f0 	stmdb	sp!, {r4, r5, r6, r7, r8, r9, sl, lr}
 80070b4:	460c      	mov	r4, r1
 80070b6:	4607      	mov	r7, r0
 80070b8:	4616      	mov	r6, r2
 80070ba:	6923      	ldr	r3, [r4, #16]
 80070bc:	ea4f 1a62 	mov.w	sl, r2, asr #5
 80070c0:	eb0a 0903 	add.w	r9, sl, r3
 80070c4:	6849      	ldr	r1, [r1, #4]
 80070c6:	68a3      	ldr	r3, [r4, #8]
 80070c8:	f109 0501 	add.w	r5, r9, #1
 80070cc:	42ab      	cmp	r3, r5
 80070ce:	db32      	blt.n	8007136 <__lshift+0x86>
 80070d0:	4638      	mov	r0, r7
 80070d2:	f7ff fe2c 	bl	8006d2e <_Balloc>
 80070d6:	2300      	movs	r3, #0
 80070d8:	4680      	mov	r8, r0
 80070da:	461a      	mov	r2, r3
 80070dc:	f100 0114 	add.w	r1, r0, #20
 80070e0:	4553      	cmp	r3, sl
 80070e2:	db2b      	blt.n	800713c <__lshift+0x8c>
 80070e4:	6920      	ldr	r0, [r4, #16]
 80070e6:	ea2a 7aea 	bic.w	sl, sl, sl, asr #31
 80070ea:	f104 0314 	add.w	r3, r4, #20
 80070ee:	f016 021f 	ands.w	r2, r6, #31
 80070f2:	eb01 018a 	add.w	r1, r1, sl, lsl #2
 80070f6:	eb03 0c80 	add.w	ip, r3, r0, lsl #2
 80070fa:	d025      	beq.n	8007148 <__lshift+0x98>
 80070fc:	2000      	movs	r0, #0
 80070fe:	f1c2 0e20 	rsb	lr, r2, #32
 8007102:	468a      	mov	sl, r1
 8007104:	681e      	ldr	r6, [r3, #0]
 8007106:	4096      	lsls	r6, r2
 8007108:	4330      	orrs	r0, r6
 800710a:	f84a 0b04 	str.w	r0, [sl], #4
 800710e:	f853 0b04 	ldr.w	r0, [r3], #4
 8007112:	459c      	cmp	ip, r3
 8007114:	fa20 f00e 	lsr.w	r0, r0, lr
 8007118:	d814      	bhi.n	8007144 <__lshift+0x94>
 800711a:	6048      	str	r0, [r1, #4]
 800711c:	b108      	cbz	r0, 8007122 <__lshift+0x72>
 800711e:	f109 0502 	add.w	r5, r9, #2
 8007122:	3d01      	subs	r5, #1
 8007124:	4638      	mov	r0, r7
 8007126:	f8c8 5010 	str.w	r5, [r8, #16]
 800712a:	4621      	mov	r1, r4
 800712c:	f7ff fe33 	bl	8006d96 <_Bfree>
 8007130:	4640      	mov	r0, r8
 8007132:	e8bd 87f0 	ldmia.w	sp!, {r4, r5, r6, r7, r8, r9, sl, pc}
 8007136:	3101      	adds	r1, #1
 8007138:	005b      	lsls	r3, r3, #1
 800713a:	e7c7      	b.n	80070cc <__lshift+0x1c>
 800713c:	f841 2023 	str.w	r2, [r1, r3, lsl #2]
 8007140:	3301      	adds	r3, #1
 8007142:	e7cd      	b.n	80070e0 <__lshift+0x30>
 8007144:	4651      	mov	r1, sl
 8007146:	e7dc      	b.n	8007102 <__lshift+0x52>
 8007148:	3904      	subs	r1, #4
 800714a:	f853 2b04 	ldr.w	r2, [r3], #4
 800714e:	459c      	cmp	ip, r3
 8007150:	f841 2f04 	str.w	r2, [r1, #4]!
 8007154:	d8f9      	bhi.n	800714a <__lshift+0x9a>
 8007156:	e7e4      	b.n	8007122 <__lshift+0x72>

08007158 <__mcmp>:
 8007158:	6903      	ldr	r3, [r0, #16]
 800715a:	690a      	ldr	r2, [r1, #16]
 800715c:	b530      	push	{r4, r5, lr}
 800715e:	1a9b      	subs	r3, r3, r2
 8007160:	d10c      	bne.n	800717c <__mcmp+0x24>
 8007162:	0092      	lsls	r2, r2, #2
 8007164:	3014      	adds	r0, #20
 8007166:	3114      	adds	r1, #20
 8007168:	1884      	adds	r4, r0, r2
 800716a:	4411      	add	r1, r2
 800716c:	f854 5d04 	ldr.w	r5, [r4, #-4]!
 8007170:	f851 2d04 	ldr.w	r2, [r1, #-4]!
 8007174:	4295      	cmp	r5, r2
 8007176:	d003      	beq.n	8007180 <__mcmp+0x28>
 8007178:	d305      	bcc.n	8007186 <__mcmp+0x2e>
 800717a:	2301      	movs	r3, #1
 800717c:	4618      	mov	r0, r3
 800717e:	bd30      	pop	{r4, r5, pc}
 8007180:	42a0      	cmp	r0, r4
 8007182:	d3f3      	bcc.n	800716c <__mcmp+0x14>
 8007184:	e7fa      	b.n	800717c <__mcmp+0x24>
 8007186:	f04f 33ff 	mov.w	r3, #4294967295
 800718a:	e7f7      	b.n	800717c <__mcmp+0x24>

0800718c <__mdiff>:
 800718c:	e92d 47f0 	stmdb	sp!, {r4, r5, r6, r7, r8, r9, sl, lr}
 8007190:	460d      	mov	r5, r1
 8007192:	4607      	mov	r7, r0
 8007194:	4611      	mov	r1, r2
 8007196:	4628      	mov	r0, r5
 8007198:	4614      	mov	r4, r2
 800719a:	f7ff ffdd 	bl	8007158 <__mcmp>
 800719e:	1e06      	subs	r6, r0, #0
 80071a0:	d108      	bne.n	80071b4 <__mdiff+0x28>
 80071a2:	4631      	mov	r1, r6
 80071a4:	4638      	mov	r0, r7
 80071a6:	f7ff fdc2 	bl	8006d2e <_Balloc>
 80071aa:	2301      	movs	r3, #1
 80071ac:	e9c0 3604 	strd	r3, r6, [r0, #16]
 80071b0:	e8bd 87f0 	ldmia.w	sp!, {r4, r5, r6, r7, r8, r9, sl, pc}
 80071b4:	bfa4      	itt	ge
 80071b6:	4623      	movge	r3, r4
 80071b8:	462c      	movge	r4, r5
 80071ba:	4638      	mov	r0, r7
 80071bc:	6861      	ldr	r1, [r4, #4]
 80071be:	bfa6      	itte	ge
 80071c0:	461d      	movge	r5, r3
 80071c2:	2600      	movge	r6, #0
 80071c4:	2601      	movlt	r6, #1
 80071c6:	f7ff fdb2 	bl	8006d2e <_Balloc>
 80071ca:	f04f 0e00 	mov.w	lr, #0
 80071ce:	60c6      	str	r6, [r0, #12]
 80071d0:	692b      	ldr	r3, [r5, #16]
 80071d2:	6926      	ldr	r6, [r4, #16]
 80071d4:	f104 0214 	add.w	r2, r4, #20
 80071d8:	f105 0914 	add.w	r9, r5, #20
 80071dc:	eb02 0786 	add.w	r7, r2, r6, lsl #2
 80071e0:	eb09 0883 	add.w	r8, r9, r3, lsl #2
 80071e4:	f100 0114 	add.w	r1, r0, #20
 80071e8:	f852 ab04 	ldr.w	sl, [r2], #4
 80071ec:	f859 5b04 	ldr.w	r5, [r9], #4
 80071f0:	fa1f f38a 	uxth.w	r3, sl
 80071f4:	4473      	add	r3, lr
 80071f6:	b2ac      	uxth	r4, r5
 80071f8:	1b1b      	subs	r3, r3, r4
 80071fa:	0c2c      	lsrs	r4, r5, #16
 80071fc:	ebc4 441a 	rsb	r4, r4, sl, lsr #16
 8007200:	eb04 4423 	add.w	r4, r4, r3, asr #16
 8007204:	b29b      	uxth	r3, r3
 8007206:	ea4f 4e24 	mov.w	lr, r4, asr #16
 800720a:	45c8      	cmp	r8, r9
 800720c:	ea43 4404 	orr.w	r4, r3, r4, lsl #16
 8007210:	4694      	mov	ip, r2
 8007212:	f841 4b04 	str.w	r4, [r1], #4
 8007216:	d8e7      	bhi.n	80071e8 <__mdiff+0x5c>
 8007218:	45bc      	cmp	ip, r7
 800721a:	d304      	bcc.n	8007226 <__mdiff+0x9a>
 800721c:	f851 3d04 	ldr.w	r3, [r1, #-4]!
 8007220:	b183      	cbz	r3, 8007244 <__mdiff+0xb8>
 8007222:	6106      	str	r6, [r0, #16]
 8007224:	e7c4      	b.n	80071b0 <__mdiff+0x24>
 8007226:	f85c 4b04 	ldr.w	r4, [ip], #4
 800722a:	b2a2      	uxth	r2, r4
 800722c:	4472      	add	r2, lr
 800722e:	1413      	asrs	r3, r2, #16
 8007230:	eb03 4314 	add.w	r3, r3, r4, lsr #16
 8007234:	b292      	uxth	r2, r2
 8007236:	ea42 4203 	orr.w	r2, r2, r3, lsl #16
 800723a:	ea4f 4e23 	mov.w	lr, r3, asr #16
 800723e:	f841 2b04 	str.w	r2, [r1], #4
 8007242:	e7e9      	b.n	8007218 <__mdiff+0x8c>
 8007244:	3e01      	subs	r6, #1
 8007246:	e7e9      	b.n	800721c <__mdiff+0x90>

08007248 <__d2b>:
 8007248:	e92d 41f3 	stmdb	sp!, {r0, r1, r4, r5, r6, r7, r8, lr}
 800724c:	461c      	mov	r4, r3
 800724e:	e9dd 6508 	ldrd	r6, r5, [sp, #32]
 8007252:	2101      	movs	r1, #1
 8007254:	4690      	mov	r8, r2
 8007256:	f7ff fd6a 	bl	8006d2e <_Balloc>
 800725a:	f3c4 0213 	ubfx	r2, r4, #0, #20
 800725e:	f3c4 540a 	ubfx	r4, r4, #20, #11
 8007262:	4607      	mov	r7, r0
 8007264:	bb34      	cbnz	r4, 80072b4 <__d2b+0x6c>
 8007266:	9201      	str	r2, [sp, #4]
 8007268:	f1b8 0200 	subs.w	r2, r8, #0
 800726c:	d027      	beq.n	80072be <__d2b+0x76>
 800726e:	a802      	add	r0, sp, #8
 8007270:	f840 2d08 	str.w	r2, [r0, #-8]!
 8007274:	f7ff fe00 	bl	8006e78 <__lo0bits>
 8007278:	9900      	ldr	r1, [sp, #0]
 800727a:	b1f0      	cbz	r0, 80072ba <__d2b+0x72>
 800727c:	9a01      	ldr	r2, [sp, #4]
 800727e:	f1c0 0320 	rsb	r3, r0, #32
 8007282:	fa02 f303 	lsl.w	r3, r2, r3
 8007286:	430b      	orrs	r3, r1
 8007288:	40c2      	lsrs	r2, r0
 800728a:	617b      	str	r3, [r7, #20]
 800728c:	9201      	str	r2, [sp, #4]
 800728e:	9b01      	ldr	r3, [sp, #4]
 8007290:	2b00      	cmp	r3, #0
 8007292:	bf14      	ite	ne
 8007294:	2102      	movne	r1, #2
 8007296:	2101      	moveq	r1, #1
 8007298:	61bb      	str	r3, [r7, #24]
 800729a:	6139      	str	r1, [r7, #16]
 800729c:	b1c4      	cbz	r4, 80072d0 <__d2b+0x88>
 800729e:	f2a4 4433 	subw	r4, r4, #1075	; 0x433
 80072a2:	4404      	add	r4, r0
 80072a4:	6034      	str	r4, [r6, #0]
 80072a6:	f1c0 0035 	rsb	r0, r0, #53	; 0x35
 80072aa:	6028      	str	r0, [r5, #0]
 80072ac:	4638      	mov	r0, r7
 80072ae:	b002      	add	sp, #8
 80072b0:	e8bd 81f0 	ldmia.w	sp!, {r4, r5, r6, r7, r8, pc}
 80072b4:	f442 1280 	orr.w	r2, r2, #1048576	; 0x100000
 80072b8:	e7d5      	b.n	8007266 <__d2b+0x1e>
 80072ba:	6179      	str	r1, [r7, #20]
 80072bc:	e7e7      	b.n	800728e <__d2b+0x46>
 80072be:	a801      	add	r0, sp, #4
 80072c0:	f7ff fdda 	bl	8006e78 <__lo0bits>
 80072c4:	2101      	movs	r1, #1
 80072c6:	9b01      	ldr	r3, [sp, #4]
 80072c8:	6139      	str	r1, [r7, #16]
 80072ca:	617b      	str	r3, [r7, #20]
 80072cc:	3020      	adds	r0, #32
 80072ce:	e7e5      	b.n	800729c <__d2b+0x54>
 80072d0:	f2a0 4032 	subw	r0, r0, #1074	; 0x432
 80072d4:	eb07 0381 	add.w	r3, r7, r1, lsl #2
 80072d8:	6030      	str	r0, [r6, #0]
 80072da:	6918      	ldr	r0, [r3, #16]
 80072dc:	f7ff fdad 	bl	8006e3a <__hi0bits>
 80072e0:	ebc0 1041 	rsb	r0, r0, r1, lsl #5
 80072e4:	e7e1      	b.n	80072aa <__d2b+0x62>

080072e6 <_calloc_r>:
 80072e6:	b538      	push	{r3, r4, r5, lr}
 80072e8:	fb02 f401 	mul.w	r4, r2, r1
 80072ec:	4621      	mov	r1, r4
 80072ee:	f000 f855 	bl	800739c <_malloc_r>
 80072f2:	4605      	mov	r5, r0
 80072f4:	b118      	cbz	r0, 80072fe <_calloc_r+0x18>
 80072f6:	4622      	mov	r2, r4
 80072f8:	2100      	movs	r1, #0
 80072fa:	f7fe f921 	bl	8005540 <memset>
 80072fe:	4628      	mov	r0, r5
 8007300:	bd38      	pop	{r3, r4, r5, pc}
	...

08007304 <_free_r>:
 8007304:	b538      	push	{r3, r4, r5, lr}
 8007306:	4605      	mov	r5, r0
 8007308:	2900      	cmp	r1, #0
 800730a:	d043      	beq.n	8007394 <_free_r+0x90>
 800730c:	f851 3c04 	ldr.w	r3, [r1, #-4]
 8007310:	1f0c      	subs	r4, r1, #4
 8007312:	2b00      	cmp	r3, #0
 8007314:	bfb8      	it	lt
 8007316:	18e4      	addlt	r4, r4, r3
 8007318:	f000 f946 	bl	80075a8 <__malloc_lock>
 800731c:	4a1e      	ldr	r2, [pc, #120]	; (8007398 <_free_r+0x94>)
 800731e:	6813      	ldr	r3, [r2, #0]
 8007320:	4610      	mov	r0, r2
 8007322:	b933      	cbnz	r3, 8007332 <_free_r+0x2e>
 8007324:	6063      	str	r3, [r4, #4]
 8007326:	6014      	str	r4, [r2, #0]
 8007328:	4628      	mov	r0, r5
 800732a:	e8bd 4038 	ldmia.w	sp!, {r3, r4, r5, lr}
 800732e:	f000 b93c 	b.w	80075aa <__malloc_unlock>
 8007332:	42a3      	cmp	r3, r4
 8007334:	d90b      	bls.n	800734e <_free_r+0x4a>
 8007336:	6821      	ldr	r1, [r4, #0]
 8007338:	1862      	adds	r2, r4, r1
 800733a:	4293      	cmp	r3, r2
 800733c:	bf01      	itttt	eq
 800733e:	681a      	ldreq	r2, [r3, #0]
 8007340:	685b      	ldreq	r3, [r3, #4]
 8007342:	1852      	addeq	r2, r2, r1
 8007344:	6022      	streq	r2, [r4, #0]
 8007346:	6063      	str	r3, [r4, #4]
 8007348:	6004      	str	r4, [r0, #0]
 800734a:	e7ed      	b.n	8007328 <_free_r+0x24>
 800734c:	4613      	mov	r3, r2
 800734e:	685a      	ldr	r2, [r3, #4]
 8007350:	b10a      	cbz	r2, 8007356 <_free_r+0x52>
 8007352:	42a2      	cmp	r2, r4
 8007354:	d9fa      	bls.n	800734c <_free_r+0x48>
 8007356:	6819      	ldr	r1, [r3, #0]
 8007358:	1858      	adds	r0, r3, r1
 800735a:	42a0      	cmp	r0, r4
 800735c:	d10b      	bne.n	8007376 <_free_r+0x72>
 800735e:	6820      	ldr	r0, [r4, #0]
 8007360:	4401      	add	r1, r0
 8007362:	1858      	adds	r0, r3, r1
 8007364:	4282      	cmp	r2, r0
 8007366:	6019      	str	r1, [r3, #0]
 8007368:	d1de      	bne.n	8007328 <_free_r+0x24>
 800736a:	6810      	ldr	r0, [r2, #0]
 800736c:	6852      	ldr	r2, [r2, #4]
 800736e:	4401      	add	r1, r0
 8007370:	6019      	str	r1, [r3, #0]
 8007372:	605a      	str	r2, [r3, #4]
 8007374:	e7d8      	b.n	8007328 <_free_r+0x24>
 8007376:	d902      	bls.n	800737e <_free_r+0x7a>
 8007378:	230c      	movs	r3, #12
 800737a:	602b      	str	r3, [r5, #0]
 800737c:	e7d4      	b.n	8007328 <_free_r+0x24>
 800737e:	6820      	ldr	r0, [r4, #0]
 8007380:	1821      	adds	r1, r4, r0
 8007382:	428a      	cmp	r2, r1
 8007384:	bf01      	itttt	eq
 8007386:	6811      	ldreq	r1, [r2, #0]
 8007388:	6852      	ldreq	r2, [r2, #4]
 800738a:	1809      	addeq	r1, r1, r0
 800738c:	6021      	streq	r1, [r4, #0]
 800738e:	6062      	str	r2, [r4, #4]
 8007390:	605c      	str	r4, [r3, #4]
 8007392:	e7c9      	b.n	8007328 <_free_r+0x24>
 8007394:	bd38      	pop	{r3, r4, r5, pc}
 8007396:	bf00      	nop
 8007398:	20000218 	.word	0x20000218

0800739c <_malloc_r>:
 800739c:	b570      	push	{r4, r5, r6, lr}
 800739e:	1ccd      	adds	r5, r1, #3
 80073a0:	f025 0503 	bic.w	r5, r5, #3
 80073a4:	3508      	adds	r5, #8
 80073a6:	2d0c      	cmp	r5, #12
 80073a8:	bf38      	it	cc
 80073aa:	250c      	movcc	r5, #12
 80073ac:	2d00      	cmp	r5, #0
 80073ae:	4606      	mov	r6, r0
 80073b0:	db01      	blt.n	80073b6 <_malloc_r+0x1a>
 80073b2:	42a9      	cmp	r1, r5
 80073b4:	d903      	bls.n	80073be <_malloc_r+0x22>
 80073b6:	230c      	movs	r3, #12
 80073b8:	6033      	str	r3, [r6, #0]
 80073ba:	2000      	movs	r0, #0
 80073bc:	bd70      	pop	{r4, r5, r6, pc}
 80073be:	f000 f8f3 	bl	80075a8 <__malloc_lock>
 80073c2:	4a21      	ldr	r2, [pc, #132]	; (8007448 <_malloc_r+0xac>)
 80073c4:	6814      	ldr	r4, [r2, #0]
 80073c6:	4621      	mov	r1, r4
 80073c8:	b991      	cbnz	r1, 80073f0 <_malloc_r+0x54>
 80073ca:	4c20      	ldr	r4, [pc, #128]	; (800744c <_malloc_r+0xb0>)
 80073cc:	6823      	ldr	r3, [r4, #0]
 80073ce:	b91b      	cbnz	r3, 80073d8 <_malloc_r+0x3c>
 80073d0:	4630      	mov	r0, r6
 80073d2:	f000 f83d 	bl	8007450 <_sbrk_r>
 80073d6:	6020      	str	r0, [r4, #0]
 80073d8:	4629      	mov	r1, r5
 80073da:	4630      	mov	r0, r6
 80073dc:	f000 f838 	bl	8007450 <_sbrk_r>
 80073e0:	1c43      	adds	r3, r0, #1
 80073e2:	d124      	bne.n	800742e <_malloc_r+0x92>
 80073e4:	230c      	movs	r3, #12
 80073e6:	4630      	mov	r0, r6
 80073e8:	6033      	str	r3, [r6, #0]
 80073ea:	f000 f8de 	bl	80075aa <__malloc_unlock>
 80073ee:	e7e4      	b.n	80073ba <_malloc_r+0x1e>
 80073f0:	680b      	ldr	r3, [r1, #0]
 80073f2:	1b5b      	subs	r3, r3, r5
 80073f4:	d418      	bmi.n	8007428 <_malloc_r+0x8c>
 80073f6:	2b0b      	cmp	r3, #11
 80073f8:	d90f      	bls.n	800741a <_malloc_r+0x7e>
 80073fa:	600b      	str	r3, [r1, #0]
 80073fc:	18cc      	adds	r4, r1, r3
 80073fe:	50cd      	str	r5, [r1, r3]
 8007400:	4630      	mov	r0, r6
 8007402:	f000 f8d2 	bl	80075aa <__malloc_unlock>
 8007406:	f104 000b 	add.w	r0, r4, #11
 800740a:	1d23      	adds	r3, r4, #4
 800740c:	f020 0007 	bic.w	r0, r0, #7
 8007410:	1ac3      	subs	r3, r0, r3
 8007412:	d0d3      	beq.n	80073bc <_malloc_r+0x20>
 8007414:	425a      	negs	r2, r3
 8007416:	50e2      	str	r2, [r4, r3]
 8007418:	e7d0      	b.n	80073bc <_malloc_r+0x20>
 800741a:	684b      	ldr	r3, [r1, #4]
 800741c:	428c      	cmp	r4, r1
 800741e:	bf16      	itet	ne
 8007420:	6063      	strne	r3, [r4, #4]
 8007422:	6013      	streq	r3, [r2, #0]
 8007424:	460c      	movne	r4, r1
 8007426:	e7eb      	b.n	8007400 <_malloc_r+0x64>
 8007428:	460c      	mov	r4, r1
 800742a:	6849      	ldr	r1, [r1, #4]
 800742c:	e7cc      	b.n	80073c8 <_malloc_r+0x2c>
 800742e:	1cc4      	adds	r4, r0, #3
 8007430:	f024 0403 	bic.w	r4, r4, #3
 8007434:	42a0      	cmp	r0, r4
 8007436:	d005      	beq.n	8007444 <_malloc_r+0xa8>
 8007438:	1a21      	subs	r1, r4, r0
 800743a:	4630      	mov	r0, r6
 800743c:	f000 f808 	bl	8007450 <_sbrk_r>
 8007440:	3001      	adds	r0, #1
 8007442:	d0cf      	beq.n	80073e4 <_malloc_r+0x48>
 8007444:	6025      	str	r5, [r4, #0]
 8007446:	e7db      	b.n	8007400 <_malloc_r+0x64>
 8007448:	20000218 	.word	0x20000218
 800744c:	2000021c 	.word	0x2000021c

08007450 <_sbrk_r>:
 8007450:	b538      	push	{r3, r4, r5, lr}
 8007452:	2300      	movs	r3, #0
 8007454:	4c05      	ldr	r4, [pc, #20]	; (800746c <_sbrk_r+0x1c>)
 8007456:	4605      	mov	r5, r0
 8007458:	4608      	mov	r0, r1
 800745a:	6023      	str	r3, [r4, #0]
 800745c:	f7fc fea4 	bl	80041a8 <_sbrk>
 8007460:	1c43      	adds	r3, r0, #1
 8007462:	d102      	bne.n	800746a <_sbrk_r+0x1a>
 8007464:	6823      	ldr	r3, [r4, #0]
 8007466:	b103      	cbz	r3, 800746a <_sbrk_r+0x1a>
 8007468:	602b      	str	r3, [r5, #0]
 800746a:	bd38      	pop	{r3, r4, r5, pc}
 800746c:	20000230 	.word	0x20000230

08007470 <__sread>:
 8007470:	b510      	push	{r4, lr}
 8007472:	460c      	mov	r4, r1
 8007474:	f9b1 100e 	ldrsh.w	r1, [r1, #14]
 8007478:	f000 f898 	bl	80075ac <_read_r>
 800747c:	2800      	cmp	r0, #0
 800747e:	bfab      	itete	ge
 8007480:	6d63      	ldrge	r3, [r4, #84]	; 0x54
 8007482:	89a3      	ldrhlt	r3, [r4, #12]
 8007484:	181b      	addge	r3, r3, r0
 8007486:	f423 5380 	biclt.w	r3, r3, #4096	; 0x1000
 800748a:	bfac      	ite	ge
 800748c:	6563      	strge	r3, [r4, #84]	; 0x54
 800748e:	81a3      	strhlt	r3, [r4, #12]
 8007490:	bd10      	pop	{r4, pc}

08007492 <__swrite>:
 8007492:	e92d 41f0 	stmdb	sp!, {r4, r5, r6, r7, r8, lr}
 8007496:	461f      	mov	r7, r3
 8007498:	898b      	ldrh	r3, [r1, #12]
 800749a:	4605      	mov	r5, r0
 800749c:	05db      	lsls	r3, r3, #23
 800749e:	460c      	mov	r4, r1
 80074a0:	4616      	mov	r6, r2
 80074a2:	d505      	bpl.n	80074b0 <__swrite+0x1e>
 80074a4:	2302      	movs	r3, #2
 80074a6:	2200      	movs	r2, #0
 80074a8:	f9b1 100e 	ldrsh.w	r1, [r1, #14]
 80074ac:	f000 f858 	bl	8007560 <_lseek_r>
 80074b0:	89a3      	ldrh	r3, [r4, #12]
 80074b2:	4632      	mov	r2, r6
 80074b4:	f423 5380 	bic.w	r3, r3, #4096	; 0x1000
 80074b8:	81a3      	strh	r3, [r4, #12]
 80074ba:	f9b4 100e 	ldrsh.w	r1, [r4, #14]
 80074be:	463b      	mov	r3, r7
 80074c0:	4628      	mov	r0, r5
 80074c2:	e8bd 41f0 	ldmia.w	sp!, {r4, r5, r6, r7, r8, lr}
 80074c6:	f000 b817 	b.w	80074f8 <_write_r>

080074ca <__sseek>:
 80074ca:	b510      	push	{r4, lr}
 80074cc:	460c      	mov	r4, r1
 80074ce:	f9b1 100e 	ldrsh.w	r1, [r1, #14]
 80074d2:	f000 f845 	bl	8007560 <_lseek_r>
 80074d6:	1c43      	adds	r3, r0, #1
 80074d8:	89a3      	ldrh	r3, [r4, #12]
 80074da:	bf15      	itete	ne
 80074dc:	6560      	strne	r0, [r4, #84]	; 0x54
 80074de:	f423 5380 	biceq.w	r3, r3, #4096	; 0x1000
 80074e2:	f443 5380 	orrne.w	r3, r3, #4096	; 0x1000
 80074e6:	81a3      	strheq	r3, [r4, #12]
 80074e8:	bf18      	it	ne
 80074ea:	81a3      	strhne	r3, [r4, #12]
 80074ec:	bd10      	pop	{r4, pc}

080074ee <__sclose>:
 80074ee:	f9b1 100e 	ldrsh.w	r1, [r1, #14]
 80074f2:	f000 b813 	b.w	800751c <_close_r>
	...

080074f8 <_write_r>:
 80074f8:	b538      	push	{r3, r4, r5, lr}
 80074fa:	4605      	mov	r5, r0
 80074fc:	4608      	mov	r0, r1
 80074fe:	4611      	mov	r1, r2
 8007500:	2200      	movs	r2, #0
 8007502:	4c05      	ldr	r4, [pc, #20]	; (8007518 <_write_r+0x20>)
 8007504:	6022      	str	r2, [r4, #0]
 8007506:	461a      	mov	r2, r3
 8007508:	f7fc fe0b 	bl	8004122 <_write>
 800750c:	1c43      	adds	r3, r0, #1
 800750e:	d102      	bne.n	8007516 <_write_r+0x1e>
 8007510:	6823      	ldr	r3, [r4, #0]
 8007512:	b103      	cbz	r3, 8007516 <_write_r+0x1e>
 8007514:	602b      	str	r3, [r5, #0]
 8007516:	bd38      	pop	{r3, r4, r5, pc}
 8007518:	20000230 	.word	0x20000230

0800751c <_close_r>:
 800751c:	b538      	push	{r3, r4, r5, lr}
 800751e:	2300      	movs	r3, #0
 8007520:	4c05      	ldr	r4, [pc, #20]	; (8007538 <_close_r+0x1c>)
 8007522:	4605      	mov	r5, r0
 8007524:	4608      	mov	r0, r1
 8007526:	6023      	str	r3, [r4, #0]
 8007528:	f7fc fe17 	bl	800415a <_close>
 800752c:	1c43      	adds	r3, r0, #1
 800752e:	d102      	bne.n	8007536 <_close_r+0x1a>
 8007530:	6823      	ldr	r3, [r4, #0]
 8007532:	b103      	cbz	r3, 8007536 <_close_r+0x1a>
 8007534:	602b      	str	r3, [r5, #0]
 8007536:	bd38      	pop	{r3, r4, r5, pc}
 8007538:	20000230 	.word	0x20000230

0800753c <_fstat_r>:
 800753c:	b538      	push	{r3, r4, r5, lr}
 800753e:	2300      	movs	r3, #0
 8007540:	4c06      	ldr	r4, [pc, #24]	; (800755c <_fstat_r+0x20>)
 8007542:	4605      	mov	r5, r0
 8007544:	4608      	mov	r0, r1
 8007546:	4611      	mov	r1, r2
 8007548:	6023      	str	r3, [r4, #0]
 800754a:	f7fc fe11 	bl	8004170 <_fstat>
 800754e:	1c43      	adds	r3, r0, #1
 8007550:	d102      	bne.n	8007558 <_fstat_r+0x1c>
 8007552:	6823      	ldr	r3, [r4, #0]
 8007554:	b103      	cbz	r3, 8007558 <_fstat_r+0x1c>
 8007556:	602b      	str	r3, [r5, #0]
 8007558:	bd38      	pop	{r3, r4, r5, pc}
 800755a:	bf00      	nop
 800755c:	20000230 	.word	0x20000230

08007560 <_lseek_r>:
 8007560:	b538      	push	{r3, r4, r5, lr}
 8007562:	4605      	mov	r5, r0
 8007564:	4608      	mov	r0, r1
 8007566:	4611      	mov	r1, r2
 8007568:	2200      	movs	r2, #0
 800756a:	4c05      	ldr	r4, [pc, #20]	; (8007580 <_lseek_r+0x20>)
 800756c:	6022      	str	r2, [r4, #0]
 800756e:	461a      	mov	r2, r3
 8007570:	f7fc fe0d 	bl	800418e <_lseek>
 8007574:	1c43      	adds	r3, r0, #1
 8007576:	d102      	bne.n	800757e <_lseek_r+0x1e>
 8007578:	6823      	ldr	r3, [r4, #0]
 800757a:	b103      	cbz	r3, 800757e <_lseek_r+0x1e>
 800757c:	602b      	str	r3, [r5, #0]
 800757e:	bd38      	pop	{r3, r4, r5, pc}
 8007580:	20000230 	.word	0x20000230

08007584 <__ascii_mbtowc>:
 8007584:	b082      	sub	sp, #8
 8007586:	b901      	cbnz	r1, 800758a <__ascii_mbtowc+0x6>
 8007588:	a901      	add	r1, sp, #4
 800758a:	b142      	cbz	r2, 800759e <__ascii_mbtowc+0x1a>
 800758c:	b14b      	cbz	r3, 80075a2 <__ascii_mbtowc+0x1e>
 800758e:	7813      	ldrb	r3, [r2, #0]
 8007590:	600b      	str	r3, [r1, #0]
 8007592:	7812      	ldrb	r2, [r2, #0]
 8007594:	1c10      	adds	r0, r2, #0
 8007596:	bf18      	it	ne
 8007598:	2001      	movne	r0, #1
 800759a:	b002      	add	sp, #8
 800759c:	4770      	bx	lr
 800759e:	4610      	mov	r0, r2
 80075a0:	e7fb      	b.n	800759a <__ascii_mbtowc+0x16>
 80075a2:	f06f 0001 	mvn.w	r0, #1
 80075a6:	e7f8      	b.n	800759a <__ascii_mbtowc+0x16>

080075a8 <__malloc_lock>:
 80075a8:	4770      	bx	lr

080075aa <__malloc_unlock>:
 80075aa:	4770      	bx	lr

080075ac <_read_r>:
 80075ac:	b538      	push	{r3, r4, r5, lr}
 80075ae:	4605      	mov	r5, r0
 80075b0:	4608      	mov	r0, r1
 80075b2:	4611      	mov	r1, r2
 80075b4:	2200      	movs	r2, #0
 80075b6:	4c05      	ldr	r4, [pc, #20]	; (80075cc <_read_r+0x20>)
 80075b8:	6022      	str	r2, [r4, #0]
 80075ba:	461a      	mov	r2, r3
 80075bc:	f7fc fd94 	bl	80040e8 <_read>
 80075c0:	1c43      	adds	r3, r0, #1
 80075c2:	d102      	bne.n	80075ca <_read_r+0x1e>
 80075c4:	6823      	ldr	r3, [r4, #0]
 80075c6:	b103      	cbz	r3, 80075ca <_read_r+0x1e>
 80075c8:	602b      	str	r3, [r5, #0]
 80075ca:	bd38      	pop	{r3, r4, r5, pc}
 80075cc:	20000230 	.word	0x20000230

080075d0 <__ascii_wctomb>:
 80075d0:	b149      	cbz	r1, 80075e6 <__ascii_wctomb+0x16>
 80075d2:	2aff      	cmp	r2, #255	; 0xff
 80075d4:	bf8b      	itete	hi
 80075d6:	238a      	movhi	r3, #138	; 0x8a
 80075d8:	700a      	strbls	r2, [r1, #0]
 80075da:	6003      	strhi	r3, [r0, #0]
 80075dc:	2001      	movls	r0, #1
 80075de:	bf88      	it	hi
 80075e0:	f04f 30ff 	movhi.w	r0, #4294967295
 80075e4:	4770      	bx	lr
 80075e6:	4608      	mov	r0, r1
 80075e8:	4770      	bx	lr
	...

080075ec <_init>:
 80075ec:	b5f8      	push	{r3, r4, r5, r6, r7, lr}
 80075ee:	bf00      	nop
 80075f0:	bcf8      	pop	{r3, r4, r5, r6, r7}
 80075f2:	bc08      	pop	{r3}
 80075f4:	469e      	mov	lr, r3
 80075f6:	4770      	bx	lr

080075f8 <_fini>:
 80075f8:	b5f8      	push	{r3, r4, r5, r6, r7, lr}
 80075fa:	bf00      	nop
 80075fc:	bcf8      	pop	{r3, r4, r5, r6, r7}
 80075fe:	bc08      	pop	{r3}
 8007600:	469e      	mov	lr, r3
 8007602:	4770      	bx	lr
